0000000000002000 <_init>:
    2000:	f3 0f 1e fa          	endbr64
    2004:	48 83 ec 08          	sub    rsp,0x8
    2008:	48 8b 05 c1 9f 00 00 	mov    rax,QWORD PTR [rip+0x9fc1]        # bfd0 <__gmon_start__@Base>
    200f:	48 85 c0             	test   rax,rax
    2012:	74 02                	je     2016 <_init+0x16>
    2014:	ff d0                	call   rax
    2016:	48 83 c4 08          	add    rsp,0x8
    201a:	c3                   	ret

0000000000002020 <_ZNSaIcED2Ev@plt-0x10>:
    2020:	ff 35 ca 9f 00 00    	push   QWORD PTR [rip+0x9fca]        # bff0 <_GLOBAL_OFFSET_TABLE_+0x8>
    2026:	ff 25 cc 9f 00 00    	jmp    QWORD PTR [rip+0x9fcc]        # bff8 <_GLOBAL_OFFSET_TABLE_+0x10>
    202c:	0f 1f 40 00          	nop    DWORD PTR [rax+0x0]
    2030:	ff 25 ca 9f 00 00    	jmp    QWORD PTR [rip+0x9fca]        # c000 <_ZNSaIcED2Ev@GLIBCXX_3.4>
    2036:	68 00 00 00 00       	push   0x0
    203b:	e9 e0 ff ff ff       	jmp    2020 <_init+0x20>

0000000000002040 <_ZSt11_Hash_bytesPKvmm@plt>:
    2040:	ff 25 c2 9f 00 00    	jmp    QWORD PTR [rip+0x9fc2]        # c008 <_ZSt11_Hash_bytesPKvmm@CXXABI_1.3.5>
    2046:	68 01 00 00 00       	push   0x1
    204b:	e9 d0 ff ff ff       	jmp    2020 <_init+0x20>

0000000000002050 <_ZNSolsEm@plt>:
    2050:	ff 25 ba 9f 00 00    	jmp    QWORD PTR [rip+0x9fba]        # c010 <_ZNSolsEm@GLIBCXX_3.4>
    2056:	68 02 00 00 00       	push   0x2
    205b:	e9 c0 ff ff ff       	jmp    2020 <_init+0x20>

0000000000002060 <_ZSt9terminatev@plt>:
    2060:	ff 25 b2 9f 00 00    	jmp    QWORD PTR [rip+0x9fb2]        # c018 <_ZSt9terminatev@GLIBCXX_3.4>
    2066:	68 03 00 00 00       	push   0x3
    206b:	e9 b0 ff ff ff       	jmp    2020 <_init+0x20>

0000000000002070 <_ZSt17__throw_bad_allocv@plt>:
    2070:	ff 25 aa 9f 00 00    	jmp    QWORD PTR [rip+0x9faa]        # c020 <_ZSt17__throw_bad_allocv@GLIBCXX_3.4>
    2076:	68 04 00 00 00       	push   0x4
    207b:	e9 a0 ff ff ff       	jmp    2020 <_init+0x20>

0000000000002080 <__cxa_begin_catch@plt>:
    2080:	ff 25 a2 9f 00 00    	jmp    QWORD PTR [rip+0x9fa2]        # c028 <__cxa_begin_catch@CXXABI_1.3>
    2086:	68 05 00 00 00       	push   0x5
    208b:	e9 90 ff ff ff       	jmp    2020 <_init+0x20>

0000000000002090 <_ZNSt7__cxx1112basic_stringIcSt11char_traitsIcESaIcEEC1ERKS4_@plt>:
    2090:	ff 25 9a 9f 00 00    	jmp    QWORD PTR [rip+0x9f9a]        # c030 <_ZNSt7__cxx1112basic_stringIcSt11char_traitsIcESaIcEEC1ERKS4_@GLIBCXX_3.4.21>
    2096:	68 06 00 00 00       	push   0x6
    209b:	e9 80 ff ff ff       	jmp    2020 <_init+0x20>

00000000000020a0 <memcmp@plt>:
    20a0:	ff 25 92 9f 00 00    	jmp    QWORD PTR [rip+0x9f92]        # c038 <memcmp@GLIBC_2.2.5>
    20a6:	68 07 00 00 00       	push   0x7
    20ab:	e9 70 ff ff ff       	jmp    2020 <_init+0x20>

00000000000020b0 <__cxa_allocate_exception@plt>:
    20b0:	ff 25 8a 9f 00 00    	jmp    QWORD PTR [rip+0x9f8a]        # c040 <__cxa_allocate_exception@CXXABI_1.3>
    20b6:	68 08 00 00 00       	push   0x8
    20bb:	e9 60 ff ff ff       	jmp    2020 <_init+0x20>

00000000000020c0 <_ZSt20__throw_length_errorPKc@plt>:
    20c0:	ff 25 82 9f 00 00    	jmp    QWORD PTR [rip+0x9f82]        # c048 <_ZSt20__throw_length_errorPKc@GLIBCXX_3.4>
    20c6:	68 09 00 00 00       	push   0x9
    20cb:	e9 50 ff ff ff       	jmp    2020 <_init+0x20>

00000000000020d0 <memset@plt>:
    20d0:	ff 25 7a 9f 00 00    	jmp    QWORD PTR [rip+0x9f7a]        # c050 <memset@GLIBC_2.2.5>
    20d6:	68 0a 00 00 00       	push   0xa
    20db:	e9 40 ff ff ff       	jmp    2020 <_init+0x20>

00000000000020e0 <_ZNSaIcEC1ERKS_@plt>:
    20e0:	ff 25 72 9f 00 00    	jmp    QWORD PTR [rip+0x9f72]        # c058 <_ZNSaIcEC1ERKS_@GLIBCXX_3.4>
    20e6:	68 0b 00 00 00       	push   0xb
    20eb:	e9 30 ff ff ff       	jmp    2020 <_init+0x20>

00000000000020f0 <_ZNSt7__cxx1112basic_stringIcSt11char_traitsIcESaIcEE3endEv@plt>:
    20f0:	ff 25 6a 9f 00 00    	jmp    QWORD PTR [rip+0x9f6a]        # c060 <_ZNSt7__cxx1112basic_stringIcSt11char_traitsIcESaIcEE3endEv@GLIBCXX_3.4.21>
    20f6:	68 0c 00 00 00       	push   0xc
    20fb:	e9 20 ff ff ff       	jmp    2020 <_init+0x20>

0000000000002100 <_ZNSt7__cxx1112basic_stringIcSt11char_traitsIcESaIcEED1Ev@plt>:
    2100:	ff 25 62 9f 00 00    	jmp    QWORD PTR [rip+0x9f62]        # c068 <_ZNSt7__cxx1112basic_stringIcSt11char_traitsIcESaIcEED1Ev@GLIBCXX_3.4.21>
    2106:	68 0d 00 00 00       	push   0xd
    210b:	e9 10 ff ff ff       	jmp    2020 <_init+0x20>

0000000000002110 <_ZNSt7__cxx1112basic_stringIcSt11char_traitsIcESaIcEE13_M_set_lengthEm@plt>:
    2110:	ff 25 5a 9f 00 00    	jmp    QWORD PTR [rip+0x9f5a]        # c070 <_ZNSt7__cxx1112basic_stringIcSt11char_traitsIcESaIcEE13_M_set_lengthEm@GLIBCXX_3.4.21>
    2116:	68 0e 00 00 00       	push   0xe
    211b:	e9 00 ff ff ff       	jmp    2020 <_init+0x20>

0000000000002120 <_ZNKSt7__cxx1112basic_stringIcSt11char_traitsIcESaIcEE4sizeEv@plt>:
    2120:	ff 25 52 9f 00 00    	jmp    QWORD PTR [rip+0x9f52]        # c078 <_ZNKSt7__cxx1112basic_stringIcSt11char_traitsIcESaIcEE4sizeEv@GLIBCXX_3.4.21>
    2126:	68 0f 00 00 00       	push   0xf
    212b:	e9 f0 fe ff ff       	jmp    2020 <_init+0x20>

0000000000002130 <_ZNKSt8__detail20_Prime_rehash_policy11_M_next_bktEm@plt>:
    2130:	ff 25 4a 9f 00 00    	jmp    QWORD PTR [rip+0x9f4a]        # c080 <_ZNKSt8__detail20_Prime_rehash_policy11_M_next_bktEm@GLIBCXX_3.4.18>
    2136:	68 10 00 00 00       	push   0x10
    213b:	e9 e0 fe ff ff       	jmp    2020 <_init+0x20>

0000000000002140 <__cxa_free_exception@plt>:
    2140:	ff 25 42 9f 00 00    	jmp    QWORD PTR [rip+0x9f42]        # c088 <__cxa_free_exception@CXXABI_1.3>
    2146:	68 11 00 00 00       	push   0x11
    214b:	e9 d0 fe ff ff       	jmp    2020 <_init+0x20>

0000000000002150 <_ZSt28__throw_bad_array_new_lengthv@plt>:
    2150:	ff 25 3a 9f 00 00    	jmp    QWORD PTR [rip+0x9f3a]        # c090 <_ZSt28__throw_bad_array_new_lengthv@GLIBCXX_3.4.29>
    2156:	68 12 00 00 00       	push   0x12
    215b:	e9 c0 fe ff ff       	jmp    2020 <_init+0x20>

0000000000002160 <_ZNSt7__cxx1112basic_stringIcSt11char_traitsIcESaIcEE13_M_local_dataEv@plt>:
    2160:	ff 25 32 9f 00 00    	jmp    QWORD PTR [rip+0x9f32]        # c098 <_ZNSt7__cxx1112basic_stringIcSt11char_traitsIcESaIcEE13_M_local_dataEv@GLIBCXX_3.4.21>
    2166:	68 13 00 00 00       	push   0x13
    216b:	e9 b0 fe ff ff       	jmp    2020 <_init+0x20>

0000000000002170 <_ZNSt7__cxx1112basic_stringIcSt11char_traitsIcESaIcEE7_M_dataEPc@plt>:
    2170:	ff 25 2a 9f 00 00    	jmp    QWORD PTR [rip+0x9f2a]        # c0a0 <_ZNSt7__cxx1112basic_stringIcSt11char_traitsIcESaIcEE7_M_dataEPc@GLIBCXX_3.4.21>
    2176:	68 14 00 00 00       	push   0x14
    217b:	e9 a0 fe ff ff       	jmp    2020 <_init+0x20>

0000000000002180 <_ZNSt7__cxx1112basic_stringIcSt11char_traitsIcESaIcEE5beginEv@plt>:
    2180:	ff 25 22 9f 00 00    	jmp    QWORD PTR [rip+0x9f22]        # c0a8 <_ZNSt7__cxx1112basic_stringIcSt11char_traitsIcESaIcEE5beginEv@GLIBCXX_3.4.21>
    2186:	68 15 00 00 00       	push   0x15
    218b:	e9 90 fe ff ff       	jmp    2020 <_init+0x20>

0000000000002190 <__cxa_atexit@plt>:
    2190:	ff 25 1a 9f 00 00    	jmp    QWORD PTR [rip+0x9f1a]        # c0b0 <__cxa_atexit@GLIBC_2.2.5>
    2196:	68 16 00 00 00       	push   0x16
    219b:	e9 80 fe ff ff       	jmp    2020 <_init+0x20>

00000000000021a0 <_ZdlPv@plt>:
    21a0:	ff 25 12 9f 00 00    	jmp    QWORD PTR [rip+0x9f12]        # c0b8 <_ZdlPv@GLIBCXX_3.4>
    21a6:	68 17 00 00 00       	push   0x17
    21ab:	e9 70 fe ff ff       	jmp    2020 <_init+0x20>

00000000000021b0 <_ZStlsISt11char_traitsIcEERSt13basic_ostreamIcT_ES5_PKc@plt>:
    21b0:	ff 25 0a 9f 00 00    	jmp    QWORD PTR [rip+0x9f0a]        # c0c0 <_ZStlsISt11char_traitsIcEERSt13basic_ostreamIcT_ES5_PKc@GLIBCXX_3.4>
    21b6:	68 18 00 00 00       	push   0x18
    21bb:	e9 60 fe ff ff       	jmp    2020 <_init+0x20>

00000000000021c0 <_Znwm@plt>:
    21c0:	ff 25 02 9f 00 00    	jmp    QWORD PTR [rip+0x9f02]        # c0c8 <_Znwm@GLIBCXX_3.4>
    21c6:	68 19 00 00 00       	push   0x19
    21cb:	e9 50 fe ff ff       	jmp    2020 <_init+0x20>

00000000000021d0 <_ZNSolsEPFRSoS_E@plt>:
    21d0:	ff 25 fa 9e 00 00    	jmp    QWORD PTR [rip+0x9efa]        # c0d0 <_ZNSolsEPFRSoS_E@GLIBCXX_3.4>
    21d6:	68 1a 00 00 00       	push   0x1a
    21db:	e9 40 fe ff ff       	jmp    2020 <_init+0x20>

00000000000021e0 <_ZNSt7__cxx1112basic_stringIcSt11char_traitsIcESaIcEE12_Alloc_hiderC1EPcRKS3_@plt>:
    21e0:	ff 25 f2 9e 00 00    	jmp    QWORD PTR [rip+0x9ef2]        # c0d8 <_ZNSt7__cxx1112basic_stringIcSt11char_traitsIcESaIcEE12_Alloc_hiderC1EPcRKS3_@GLIBCXX_3.4.21>
    21e6:	68 1b 00 00 00       	push   0x1b
    21eb:	e9 30 fe ff ff       	jmp    2020 <_init+0x20>

00000000000021f0 <_ZNSaIcED1Ev@plt>:
    21f0:	ff 25 ea 9e 00 00    	jmp    QWORD PTR [rip+0x9eea]        # c0e0 <_ZNSaIcED1Ev@GLIBCXX_3.4>
    21f6:	68 1c 00 00 00       	push   0x1c
    21fb:	e9 20 fe ff ff       	jmp    2020 <_init+0x20>

0000000000002200 <_ZNKSt7__cxx1112basic_stringIcSt11char_traitsIcESaIcEE7_M_dataEv@plt>:
    2200:	ff 25 e2 9e 00 00    	jmp    QWORD PTR [rip+0x9ee2]        # c0e8 <_ZNKSt7__cxx1112basic_stringIcSt11char_traitsIcESaIcEE7_M_dataEv@GLIBCXX_3.4.21>
    2206:	68 1d 00 00 00       	push   0x1d
    220b:	e9 10 fe ff ff       	jmp    2020 <_init+0x20>

0000000000002210 <_ZStlsISt11char_traitsIcEERSt13basic_ostreamIcT_ES5_c@plt>:
    2210:	ff 25 da 9e 00 00    	jmp    QWORD PTR [rip+0x9eda]        # c0f0 <_ZStlsISt11char_traitsIcEERSt13basic_ostreamIcT_ES5_c@GLIBCXX_3.4>
    2216:	68 1e 00 00 00       	push   0x1e
    221b:	e9 00 fe ff ff       	jmp    2020 <_init+0x20>

0000000000002220 <_ZNSt7__cxx1112basic_stringIcSt11char_traitsIcESaIcEE10_M_disposeEv@plt>:
    2220:	ff 25 d2 9e 00 00    	jmp    QWORD PTR [rip+0x9ed2]        # c0f8 <_ZNSt7__cxx1112basic_stringIcSt11char_traitsIcESaIcEE10_M_disposeEv@GLIBCXX_3.4.21>
    2226:	68 1f 00 00 00       	push   0x1f
    222b:	e9 f0 fd ff ff       	jmp    2020 <_init+0x20>

0000000000002230 <_ZNKSt7__cxx1112basic_stringIcSt11char_traitsIcESaIcEE4dataEv@plt>:
    2230:	ff 25 ca 9e 00 00    	jmp    QWORD PTR [rip+0x9eca]        # c100 <_ZNKSt7__cxx1112basic_stringIcSt11char_traitsIcESaIcEE4dataEv@GLIBCXX_3.4.21>
    2236:	68 20 00 00 00       	push   0x20
    223b:	e9 e0 fd ff ff       	jmp    2020 <_init+0x20>

0000000000002240 <_ZNKSt8__detail20_Prime_rehash_policy14_M_need_rehashEmmm@plt>:
    2240:	ff 25 c2 9e 00 00    	jmp    QWORD PTR [rip+0x9ec2]        # c108 <_ZNKSt8__detail20_Prime_rehash_policy14_M_need_rehashEmmm@GLIBCXX_3.4.18>
    2246:	68 21 00 00 00       	push   0x21
    224b:	e9 d0 fd ff ff       	jmp    2020 <_init+0x20>

0000000000002250 <_ZNSt7__cxx1112basic_stringIcSt11char_traitsIcESaIcEEC1EPKcRKS3_@plt>:
    2250:	ff 25 ba 9e 00 00    	jmp    QWORD PTR [rip+0x9eba]        # c110 <_ZNSt7__cxx1112basic_stringIcSt11char_traitsIcESaIcEEC1EPKcRKS3_@GLIBCXX_3.4.21>
    2256:	68 22 00 00 00       	push   0x22
    225b:	e9 c0 fd ff ff       	jmp    2020 <_init+0x20>

0000000000002260 <_ZNSaIcEC2ERKS_@plt>:
    2260:	ff 25 b2 9e 00 00    	jmp    QWORD PTR [rip+0x9eb2]        # c118 <_ZNSaIcEC2ERKS_@GLIBCXX_3.4>
    2266:	68 23 00 00 00       	push   0x23
    226b:	e9 b0 fd ff ff       	jmp    2020 <_init+0x20>

0000000000002270 <__cxa_rethrow@plt>:
    2270:	ff 25 aa 9e 00 00    	jmp    QWORD PTR [rip+0x9eaa]        # c120 <__cxa_rethrow@CXXABI_1.3>
    2276:	68 24 00 00 00       	push   0x24
    227b:	e9 a0 fd ff ff       	jmp    2020 <_init+0x20>

0000000000002280 <_ZNKSt7__cxx1112basic_stringIcSt11char_traitsIcESaIcEE6lengthEv@plt>:
    2280:	ff 25 a2 9e 00 00    	jmp    QWORD PTR [rip+0x9ea2]        # c128 <_ZNKSt7__cxx1112basic_stringIcSt11char_traitsIcESaIcEE6lengthEv@GLIBCXX_3.4.21>
    2286:	68 25 00 00 00       	push   0x25
    228b:	e9 90 fd ff ff       	jmp    2020 <_init+0x20>

0000000000002290 <_ZNSt8ios_base4InitC1Ev@plt>:
    2290:	ff 25 9a 9e 00 00    	jmp    QWORD PTR [rip+0x9e9a]        # c130 <_ZNSt8ios_base4InitC1Ev@GLIBCXX_3.4>
    2296:	68 26 00 00 00       	push   0x26
    229b:	e9 80 fd ff ff       	jmp    2020 <_init+0x20>

00000000000022a0 <memmove@plt>:
    22a0:	ff 25 92 9e 00 00    	jmp    QWORD PTR [rip+0x9e92]        # c138 <memmove@GLIBC_2.2.5>
    22a6:	68 27 00 00 00       	push   0x27
    22ab:	e9 70 fd ff ff       	jmp    2020 <_init+0x20>

00000000000022b0 <__cxa_end_catch@plt>:
    22b0:	ff 25 8a 9e 00 00    	jmp    QWORD PTR [rip+0x9e8a]        # c140 <__cxa_end_catch@CXXABI_1.3>
    22b6:	68 28 00 00 00       	push   0x28
    22bb:	e9 60 fd ff ff       	jmp    2020 <_init+0x20>

00000000000022c0 <__cxa_throw@plt>:
    22c0:	ff 25 82 9e 00 00    	jmp    QWORD PTR [rip+0x9e82]        # c148 <__cxa_throw@CXXABI_1.3>
    22c6:	68 29 00 00 00       	push   0x29
    22cb:	e9 50 fd ff ff       	jmp    2020 <_init+0x20>

00000000000022d0 <_ZNSolsEi@plt>:
    22d0:	ff 25 7a 9e 00 00    	jmp    QWORD PTR [rip+0x9e7a]        # c150 <_ZNSolsEi@GLIBCXX_3.4>
    22d6:	68 2a 00 00 00       	push   0x2a
    22db:	e9 40 fd ff ff       	jmp    2020 <_init+0x20>

00000000000022e0 <_Unwind_Resume@plt>:
    22e0:	ff 25 72 9e 00 00    	jmp    QWORD PTR [rip+0x9e72]        # c158 <_Unwind_Resume@GCC_3.0>
    22e6:	68 2b 00 00 00       	push   0x2b
    22eb:	e9 30 fd ff ff       	jmp    2020 <_init+0x20>

00000000000022f0 <_ZNSaIcEC1Ev@plt>:
    22f0:	ff 25 6a 9e 00 00    	jmp    QWORD PTR [rip+0x9e6a]        # c160 <_ZNSaIcEC1Ev@GLIBCXX_3.4>
    22f6:	68 2c 00 00 00       	push   0x2c
    22fb:	e9 20 fd ff ff       	jmp    2020 <_init+0x20>

0000000000002300 <_ZNSt7__cxx1112basic_stringIcSt11char_traitsIcESaIcEE9_M_createERmm@plt>:
    2300:	ff 25 62 9e 00 00    	jmp    QWORD PTR [rip+0x9e62]        # c168 <_ZNSt7__cxx1112basic_stringIcSt11char_traitsIcESaIcEE9_M_createERmm@GLIBCXX_3.4.21>
    2306:	68 2d 00 00 00       	push   0x2d
    230b:	e9 10 fd ff ff       	jmp    2020 <_init+0x20>

0000000000002310 <_ZNSt16invalid_argumentC1EPKc@plt>:
    2310:	ff 25 5a 9e 00 00    	jmp    QWORD PTR [rip+0x9e5a]        # c170 <_ZNSt16invalid_argumentC1EPKc@GLIBCXX_3.4.21>
    2316:	68 2e 00 00 00       	push   0x2e
    231b:	e9 00 fd ff ff       	jmp    2020 <_init+0x20>

0000000000002320 <_ZNSt7__cxx1112basic_stringIcSt11char_traitsIcESaIcEE11_M_capacityEm@plt>:
    2320:	ff 25 52 9e 00 00    	jmp    QWORD PTR [rip+0x9e52]        # c178 <_ZNSt7__cxx1112basic_stringIcSt11char_traitsIcESaIcEE11_M_capacityEm@GLIBCXX_3.4.21>
    2326:	68 2f 00 00 00       	push   0x2f
    232b:	e9 f0 fc ff ff       	jmp    2020 <_init+0x20>

0000000000002330 <__cxa_finalize@plt>:
    2330:	ff 25 62 9c 00 00    	jmp    QWORD PTR [rip+0x9c62]        # bf98 <__cxa_finalize@GLIBC_2.2.5>
    2336:	66 90                	xchg   ax,ax

0000000000002340 <__cxx_global_var_init>:
    2340:	55                   	push   rbp
    2341:	48 89 e5             	mov    rbp,rsp
    2344:	48 8d 3d 5d 9e 00 00 	lea    rdi,[rip+0x9e5d]        # c1a8 <_ZStL8__ioinit>
    234b:	e8 40 ff ff ff       	call   2290 <_ZNSt8ios_base4InitC1Ev@plt>
    2350:	48 8b 3d 89 9c 00 00 	mov    rdi,QWORD PTR [rip+0x9c89]        # bfe0 <_ZNSt8ios_base4InitD1Ev@GLIBCXX_3.4>
    2357:	48 8d 35 4a 9e 00 00 	lea    rsi,[rip+0x9e4a]        # c1a8 <_ZStL8__ioinit>
    235e:	48 8d 15 23 9e 00 00 	lea    rdx,[rip+0x9e23]        # c188 <__dso_handle>
    2365:	e8 26 fe ff ff       	call   2190 <__cxa_atexit@plt>
    236a:	5d                   	pop    rbp
    236b:	c3                   	ret
    236c:	0f 1f 40 00          	nop    DWORD PTR [rax+0x0]

0000000000002370 <__cxx_global_var_init.1>:
    2370:	55                   	push   rbp
    2371:	48 89 e5             	mov    rbp,rsp
    2374:	48 81 ec 00 02 00 00 	sub    rsp,0x200
    237b:	48 8d bd d8 fe ff ff 	lea    rdi,[rbp-0x128]
    2382:	48 89 bd 88 fe ff ff 	mov    QWORD PTR [rbp-0x178],rdi
    2389:	48 89 bd d0 fe ff ff 	mov    QWORD PTR [rbp-0x130],rdi
    2390:	c7 85 cc fe ff ff 0d 	mov    DWORD PTR [rbp-0x134],0xd
    2397:	00 00 00 
    239a:	48 8d 35 db 5d 00 00 	lea    rsi,[rip+0x5ddb]        # 817c <_IO_stdin_used+0x17c>
    23a1:	48 8d 95 cc fe ff ff 	lea    rdx,[rbp-0x134]
    23a8:	e8 23 07 00 00       	call   2ad0 <_ZNSt4pairIKNSt7__cxx1112basic_stringIcSt11char_traitsIcESaIcEEE5TokenEC2IRA3_KcS7_Lb1EEEOT_OT0_>
    23ad:	e9 00 00 00 00       	jmp    23b2 <__cxx_global_var_init.1+0x42>
    23b2:	48 8b bd 88 fe ff ff 	mov    rdi,QWORD PTR [rbp-0x178]
    23b9:	48 83 c7 28          	add    rdi,0x28
    23bd:	48 89 bd 80 fe ff ff 	mov    QWORD PTR [rbp-0x180],rdi
    23c4:	48 89 bd d0 fe ff ff 	mov    QWORD PTR [rbp-0x130],rdi
    23cb:	c7 85 b8 fe ff ff 0e 	mov    DWORD PTR [rbp-0x148],0xe
    23d2:	00 00 00 
    23d5:	48 8d 35 a3 5d 00 00 	lea    rsi,[rip+0x5da3]        # 817f <_IO_stdin_used+0x17f>
    23dc:	48 8d 95 b8 fe ff ff 	lea    rdx,[rbp-0x148]
    23e3:	e8 78 07 00 00       	call   2b60 <_ZNSt4pairIKNSt7__cxx1112basic_stringIcSt11char_traitsIcESaIcEEE5TokenEC2IRA4_KcS7_Lb1EEEOT_OT0_>
    23e8:	e9 00 00 00 00       	jmp    23ed <__cxx_global_var_init.1+0x7d>
    23ed:	48 8b bd 80 fe ff ff 	mov    rdi,QWORD PTR [rbp-0x180]
    23f4:	48 83 c7 28          	add    rdi,0x28
    23f8:	48 89 bd 78 fe ff ff 	mov    QWORD PTR [rbp-0x188],rdi
    23ff:	48 89 bd d0 fe ff ff 	mov    QWORD PTR [rbp-0x130],rdi
    2406:	c7 85 b4 fe ff ff 0f 	mov    DWORD PTR [rbp-0x14c],0xf
    240d:	00 00 00 
    2410:	48 8d 35 6c 5d 00 00 	lea    rsi,[rip+0x5d6c]        # 8183 <_IO_stdin_used+0x183>
    2417:	48 8d 95 b4 fe ff ff 	lea    rdx,[rbp-0x14c]
    241e:	e8 cd 07 00 00       	call   2bf0 <_ZNSt4pairIKNSt7__cxx1112basic_stringIcSt11char_traitsIcESaIcEEE5TokenEC2IRA5_KcS7_Lb1EEEOT_OT0_>
    2423:	e9 00 00 00 00       	jmp    2428 <__cxx_global_var_init.1+0xb8>
    2428:	48 8b bd 78 fe ff ff 	mov    rdi,QWORD PTR [rbp-0x188]
    242f:	48 83 c7 28          	add    rdi,0x28
    2433:	48 89 bd 70 fe ff ff 	mov    QWORD PTR [rbp-0x190],rdi
    243a:	48 89 bd d0 fe ff ff 	mov    QWORD PTR [rbp-0x130],rdi
    2441:	c7 85 b0 fe ff ff 10 	mov    DWORD PTR [rbp-0x150],0x10
    2448:	00 00 00 
    244b:	48 8d 35 36 5d 00 00 	lea    rsi,[rip+0x5d36]        # 8188 <_IO_stdin_used+0x188>
    2452:	48 8d 95 b0 fe ff ff 	lea    rdx,[rbp-0x150]
    2459:	e8 22 08 00 00       	call   2c80 <_ZNSt4pairIKNSt7__cxx1112basic_stringIcSt11char_traitsIcESaIcEEE5TokenEC2IRA6_KcS7_Lb1EEEOT_OT0_>
    245e:	e9 00 00 00 00       	jmp    2463 <__cxx_global_var_init.1+0xf3>
    2463:	48 8b bd 70 fe ff ff 	mov    rdi,QWORD PTR [rbp-0x190]
    246a:	48 83 c7 28          	add    rdi,0x28
    246e:	48 89 bd 68 fe ff ff 	mov    QWORD PTR [rbp-0x198],rdi
    2475:	48 89 bd d0 fe ff ff 	mov    QWORD PTR [rbp-0x130],rdi
    247c:	c7 85 ac fe ff ff 11 	mov    DWORD PTR [rbp-0x154],0x11
    2483:	00 00 00 
    2486:	48 8d 35 01 5d 00 00 	lea    rsi,[rip+0x5d01]        # 818e <_IO_stdin_used+0x18e>
    248d:	48 8d 95 ac fe ff ff 	lea    rdx,[rbp-0x154]
    2494:	e8 37 06 00 00       	call   2ad0 <_ZNSt4pairIKNSt7__cxx1112basic_stringIcSt11char_traitsIcESaIcEEE5TokenEC2IRA3_KcS7_Lb1EEEOT_OT0_>
    2499:	e9 00 00 00 00       	jmp    249e <__cxx_global_var_init.1+0x12e>
    249e:	48 8b bd 68 fe ff ff 	mov    rdi,QWORD PTR [rbp-0x198]
    24a5:	48 83 c7 28          	add    rdi,0x28
    24a9:	48 89 bd 60 fe ff ff 	mov    QWORD PTR [rbp-0x1a0],rdi
    24b0:	48 89 bd d0 fe ff ff 	mov    QWORD PTR [rbp-0x130],rdi
    24b7:	c7 85 a8 fe ff ff 12 	mov    DWORD PTR [rbp-0x158],0x12
    24be:	00 00 00 
    24c1:	48 8d 35 c9 5c 00 00 	lea    rsi,[rip+0x5cc9]        # 8191 <_IO_stdin_used+0x191>
    24c8:	48 8d 95 a8 fe ff ff 	lea    rdx,[rbp-0x158]
    24cf:	e8 1c 07 00 00       	call   2bf0 <_ZNSt4pairIKNSt7__cxx1112basic_stringIcSt11char_traitsIcESaIcEEE5TokenEC2IRA5_KcS7_Lb1EEEOT_OT0_>
    24d4:	e9 00 00 00 00       	jmp    24d9 <__cxx_global_var_init.1+0x169>
    24d9:	48 8b bd 60 fe ff ff 	mov    rdi,QWORD PTR [rbp-0x1a0]
    24e0:	48 83 c7 28          	add    rdi,0x28
    24e4:	48 89 bd d0 fe ff ff 	mov    QWORD PTR [rbp-0x130],rdi
    24eb:	c7 85 a4 fe ff ff 13 	mov    DWORD PTR [rbp-0x15c],0x13
    24f2:	00 00 00 
    24f5:	48 8d 35 9a 5c 00 00 	lea    rsi,[rip+0x5c9a]        # 8196 <_IO_stdin_used+0x196>
    24fc:	48 8d 95 a4 fe ff ff 	lea    rdx,[rbp-0x15c]
    2503:	e8 08 08 00 00       	call   2d10 <_ZNSt4pairIKNSt7__cxx1112basic_stringIcSt11char_traitsIcESaIcEEE5TokenEC2IRA7_KcS7_Lb1EEEOT_OT0_>
    2508:	e9 00 00 00 00       	jmp    250d <__cxx_global_var_init.1+0x19d>
    250d:	48 8d 85 d8 fe ff ff 	lea    rax,[rbp-0x128]
    2514:	48 89 45 f0          	mov    QWORD PTR [rbp-0x10],rax
    2518:	48 c7 45 f8 07 00 00 	mov    QWORD PTR [rbp-0x8],0x7
    251f:	00 
    2520:	48 8d bd 90 fe ff ff 	lea    rdi,[rbp-0x170]
    2527:	48 89 bd 58 fe ff ff 	mov    QWORD PTR [rbp-0x1a8],rdi
    252e:	e8 8d 08 00 00       	call   2dc0 <_ZNSaISt4pairIKNSt7__cxx1112basic_stringIcSt11char_traitsIcESaIcEEE5TokenEEC2Ev>
    2533:	48 8b 8d 58 fe ff ff 	mov    rcx,QWORD PTR [rbp-0x1a8]
    253a:	48 8b 75 f0          	mov    rsi,QWORD PTR [rbp-0x10]
    253e:	48 8b 55 f8          	mov    rdx,QWORD PTR [rbp-0x8]
    2542:	48 89 e0             	mov    rax,rsp
    2545:	48 89 08             	mov    QWORD PTR [rax],rcx
    2548:	48 8d 3d 61 9c 00 00 	lea    rdi,[rip+0x9c61]        # c1b0 <_ZL10keywordMapB5cxx11>
    254f:	31 c0                	xor    eax,eax
    2551:	89 c1                	mov    ecx,eax
    2553:	4c 8d 85 a0 fe ff ff 	lea    r8,[rbp-0x160]
    255a:	4c 8d 8d 98 fe ff ff 	lea    r9,[rbp-0x168]
    2561:	e8 7a 08 00 00       	call   2de0 <_ZNSt13unordered_mapINSt7__cxx1112basic_stringIcSt11char_traitsIcESaIcEEE5TokenSt4hashIS5_ESt8equal_toIS5_ESaISt4pairIKS5_S6_EEEC2ESt16initializer_listISD_EmRKS8_RKSA_RKSE_>
    2566:	e9 00 00 00 00       	jmp    256b <__cxx_global_var_init.1+0x1fb>
    256b:	48 8d bd 90 fe ff ff 	lea    rdi,[rbp-0x170]
    2572:	e8 c9 08 00 00       	call   2e40 <_ZNSaISt4pairIKNSt7__cxx1112basic_stringIcSt11char_traitsIcESaIcEEE5TokenEED2Ev>
    2577:	48 8d 85 d8 fe ff ff 	lea    rax,[rbp-0x128]
    257e:	48 89 85 48 fe ff ff 	mov    QWORD PTR [rbp-0x1b8],rax
    2585:	48 05 18 01 00 00    	add    rax,0x118
    258b:	48 89 85 50 fe ff ff 	mov    QWORD PTR [rbp-0x1b0],rax
    2592:	48 8b bd 50 fe ff ff 	mov    rdi,QWORD PTR [rbp-0x1b0]
    2599:	48 83 c7 d8          	add    rdi,0xffffffffffffffd8
    259d:	48 89 bd 40 fe ff ff 	mov    QWORD PTR [rbp-0x1c0],rdi
    25a4:	e8 f7 07 00 00       	call   2da0 <_ZNSt4pairIKNSt7__cxx1112basic_stringIcSt11char_traitsIcESaIcEEE5TokenED2Ev>
    25a9:	48 8b 8d 48 fe ff ff 	mov    rcx,QWORD PTR [rbp-0x1b8]
    25b0:	48 8b 85 40 fe ff ff 	mov    rax,QWORD PTR [rbp-0x1c0]
    25b7:	48 39 c8             	cmp    rax,rcx
    25ba:	48 89 85 50 fe ff ff 	mov    QWORD PTR [rbp-0x1b0],rax
    25c1:	0f 85 cb ff ff ff    	jne    2592 <__cxx_global_var_init.1+0x222>
    25c7:	48 8d 3d 92 08 00 00 	lea    rdi,[rip+0x892]        # 2e60 <_ZNSt13unordered_mapINSt7__cxx1112basic_stringIcSt11char_traitsIcESaIcEEE5TokenSt4hashIS5_ESt8equal_toIS5_ESaISt4pairIKS5_S6_EEED2Ev>
    25ce:	48 8d 35 db 9b 00 00 	lea    rsi,[rip+0x9bdb]        # c1b0 <_ZL10keywordMapB5cxx11>
    25d5:	48 8d 15 ac 9b 00 00 	lea    rdx,[rip+0x9bac]        # c188 <__dso_handle>
    25dc:	e8 af fb ff ff       	call   2190 <__cxa_atexit@plt>
    25e1:	48 81 c4 00 02 00 00 	add    rsp,0x200
    25e8:	5d                   	pop    rbp
    25e9:	c3                   	ret
    25ea:	48 8b 8d 88 fe ff ff 	mov    rcx,QWORD PTR [rbp-0x178]
    25f1:	48 89 95 30 fe ff ff 	mov    QWORD PTR [rbp-0x1d0],rdx
    25f8:	48 89 c2             	mov    rdx,rax
    25fb:	48 8b 85 30 fe ff ff 	mov    rax,QWORD PTR [rbp-0x1d0]
    2602:	48 89 95 c0 fe ff ff 	mov    QWORD PTR [rbp-0x140],rdx
    2609:	89 85 bc fe ff ff    	mov    DWORD PTR [rbp-0x144],eax
    260f:	48 8b 85 d0 fe ff ff 	mov    rax,QWORD PTR [rbp-0x130]
    2616:	48 39 c1             	cmp    rcx,rax
    2619:	48 89 85 38 fe ff ff 	mov    QWORD PTR [rbp-0x1c8],rax
    2620:	0f 84 35 00 00 00    	je     265b <__cxx_global_var_init.1+0x2eb>
    2626:	48 8b bd 38 fe ff ff 	mov    rdi,QWORD PTR [rbp-0x1c8]
    262d:	48 83 c7 d8          	add    rdi,0xffffffffffffffd8
    2631:	48 89 bd 28 fe ff ff 	mov    QWORD PTR [rbp-0x1d8],rdi
    2638:	e8 63 07 00 00       	call   2da0 <_ZNSt4pairIKNSt7__cxx1112basic_stringIcSt11char_traitsIcESaIcEEE5TokenED2Ev>
    263d:	48 8b 8d 88 fe ff ff 	mov    rcx,QWORD PTR [rbp-0x178]
    2644:	48 8b 85 28 fe ff ff 	mov    rax,QWORD PTR [rbp-0x1d8]
    264b:	48 39 c8             	cmp    rax,rcx
    264e:	48 89 85 38 fe ff ff 	mov    QWORD PTR [rbp-0x1c8],rax
    2655:	0f 85 cb ff ff ff    	jne    2626 <__cxx_global_var_init.1+0x2b6>
    265b:	e9 73 00 00 00       	jmp    26d3 <__cxx_global_var_init.1+0x363>
    2660:	48 89 c1             	mov    rcx,rax
    2663:	89 d0                	mov    eax,edx
    2665:	48 89 8d c0 fe ff ff 	mov    QWORD PTR [rbp-0x140],rcx
    266c:	89 85 bc fe ff ff    	mov    DWORD PTR [rbp-0x144],eax
    2672:	48 8d bd 90 fe ff ff 	lea    rdi,[rbp-0x170]
    2679:	e8 c2 07 00 00       	call   2e40 <_ZNSaISt4pairIKNSt7__cxx1112basic_stringIcSt11char_traitsIcESaIcEEE5TokenEED2Ev>
    267e:	48 8d 85 d8 fe ff ff 	lea    rax,[rbp-0x128]
    2685:	48 89 85 18 fe ff ff 	mov    QWORD PTR [rbp-0x1e8],rax
    268c:	48 05 18 01 00 00    	add    rax,0x118
    2692:	48 89 85 20 fe ff ff 	mov    QWORD PTR [rbp-0x1e0],rax
    2699:	48 8b bd 20 fe ff ff 	mov    rdi,QWORD PTR [rbp-0x1e0]
    26a0:	48 83 c7 d8          	add    rdi,0xffffffffffffffd8
    26a4:	48 89 bd 10 fe ff ff 	mov    QWORD PTR [rbp-0x1f0],rdi
    26ab:	e8 f0 06 00 00       	call   2da0 <_ZNSt4pairIKNSt7__cxx1112basic_stringIcSt11char_traitsIcESaIcEEE5TokenED2Ev>
    26b0:	48 8b 8d 18 fe ff ff 	mov    rcx,QWORD PTR [rbp-0x1e8]
    26b7:	48 8b 85 10 fe ff ff 	mov    rax,QWORD PTR [rbp-0x1f0]
    26be:	48 39 c8             	cmp    rax,rcx
    26c1:	48 89 85 20 fe ff ff 	mov    QWORD PTR [rbp-0x1e0],rax
    26c8:	0f 85 cb ff ff ff    	jne    2699 <__cxx_global_var_init.1+0x329>
    26ce:	e9 00 00 00 00       	jmp    26d3 <__cxx_global_var_init.1+0x363>
    26d3:	48 8b bd c0 fe ff ff 	mov    rdi,QWORD PTR [rbp-0x140]
    26da:	e8 01 fc ff ff       	call   22e0 <_Unwind_Resume@plt>
    26df:	90                   	nop

00000000000026e0 <_GLOBAL__sub_I_main.cxx>:
    26e0:	55                   	push   rbp
    26e1:	48 89 e5             	mov    rbp,rsp
    26e4:	e8 57 fc ff ff       	call   2340 <__cxx_global_var_init>
    26e9:	e8 82 fc ff ff       	call   2370 <__cxx_global_var_init.1>
    26ee:	5d                   	pop    rbp
    26ef:	c3                   	ret

00000000000026f0 <_start>:
    26f0:	f3 0f 1e fa          	endbr64
    26f4:	31 ed                	xor    ebp,ebp
    26f6:	49 89 d1             	mov    r9,rdx
    26f9:	5e                   	pop    rsi
    26fa:	48 89 e2             	mov    rdx,rsp
    26fd:	48 83 e4 f0          	and    rsp,0xfffffffffffffff0
    2701:	50                   	push   rax
    2702:	54                   	push   rsp
    2703:	45 31 c0             	xor    r8d,r8d
    2706:	31 c9                	xor    ecx,ecx
    2708:	48 8d 3d d1 00 00 00 	lea    rdi,[rip+0xd1]        # 27e0 <main>
    270f:	ff 15 93 98 00 00    	call   QWORD PTR [rip+0x9893]        # bfa8 <__libc_start_main@GLIBC_2.34>
    2715:	f4                   	hlt
    2716:	66 2e 0f 1f 84 00 00 	cs nop WORD PTR [rax+rax*1+0x0]
    271d:	00 00 00 

0000000000002720 <deregister_tm_clones>:
    2720:	48 8d 3d 79 9a 00 00 	lea    rdi,[rip+0x9a79]        # c1a0 <__TMC_END__>
    2727:	48 8d 05 72 9a 00 00 	lea    rax,[rip+0x9a72]        # c1a0 <__TMC_END__>
    272e:	48 39 f8             	cmp    rax,rdi
    2731:	74 15                	je     2748 <deregister_tm_clones+0x28>
    2733:	48 8b 05 86 98 00 00 	mov    rax,QWORD PTR [rip+0x9886]        # bfc0 <_ITM_deregisterTMCloneTable@Base>
    273a:	48 85 c0             	test   rax,rax
    273d:	74 09                	je     2748 <deregister_tm_clones+0x28>
    273f:	ff e0                	jmp    rax
    2741:	0f 1f 80 00 00 00 00 	nop    DWORD PTR [rax+0x0]
    2748:	c3                   	ret
    2749:	0f 1f 80 00 00 00 00 	nop    DWORD PTR [rax+0x0]

0000000000002750 <register_tm_clones>:
    2750:	48 8d 3d 49 9a 00 00 	lea    rdi,[rip+0x9a49]        # c1a0 <__TMC_END__>
    2757:	48 8d 35 42 9a 00 00 	lea    rsi,[rip+0x9a42]        # c1a0 <__TMC_END__>
    275e:	48 29 fe             	sub    rsi,rdi
    2761:	48 89 f0             	mov    rax,rsi
    2764:	48 c1 ee 3f          	shr    rsi,0x3f
    2768:	48 c1 f8 03          	sar    rax,0x3
    276c:	48 01 c6             	add    rsi,rax
    276f:	48 d1 fe             	sar    rsi,1
    2772:	74 14                	je     2788 <register_tm_clones+0x38>
    2774:	48 8b 05 5d 98 00 00 	mov    rax,QWORD PTR [rip+0x985d]        # bfd8 <_ITM_registerTMCloneTable@Base>
    277b:	48 85 c0             	test   rax,rax
    277e:	74 08                	je     2788 <register_tm_clones+0x38>
    2780:	ff e0                	jmp    rax
    2782:	66 0f 1f 44 00 00    	nop    WORD PTR [rax+rax*1+0x0]
    2788:	c3                   	ret
    2789:	0f 1f 80 00 00 00 00 	nop    DWORD PTR [rax+0x0]

0000000000002790 <__do_global_dtors_aux>:
    2790:	f3 0f 1e fa          	endbr64
    2794:	80 3d 05 9a 00 00 00 	cmp    BYTE PTR [rip+0x9a05],0x0        # c1a0 <__TMC_END__>
    279b:	75 2b                	jne    27c8 <__do_global_dtors_aux+0x38>
    279d:	55                   	push   rbp
    279e:	48 83 3d f2 97 00 00 	cmp    QWORD PTR [rip+0x97f2],0x0        # bf98 <__cxa_finalize@GLIBC_2.2.5>
    27a5:	00 
    27a6:	48 89 e5             	mov    rbp,rsp
    27a9:	74 0c                	je     27b7 <__do_global_dtors_aux+0x27>
    27ab:	48 8b 3d d6 99 00 00 	mov    rdi,QWORD PTR [rip+0x99d6]        # c188 <__dso_handle>
    27b2:	e8 79 fb ff ff       	call   2330 <__cxa_finalize@plt>
    27b7:	e8 64 ff ff ff       	call   2720 <deregister_tm_clones>
    27bc:	c6 05 dd 99 00 00 01 	mov    BYTE PTR [rip+0x99dd],0x1        # c1a0 <__TMC_END__>
    27c3:	5d                   	pop    rbp
    27c4:	c3                   	ret
    27c5:	0f 1f 00             	nop    DWORD PTR [rax]
    27c8:	c3                   	ret
    27c9:	0f 1f 80 00 00 00 00 	nop    DWORD PTR [rax+0x0]

00000000000027d0 <frame_dummy>:
    27d0:	f3 0f 1e fa          	endbr64
    27d4:	e9 77 ff ff ff       	jmp    2750 <register_tm_clones>
    27d9:	0f 1f 80 00 00 00 00 	nop    DWORD PTR [rax+0x0]

00000000000027e0 <main>:
    27e0:	55                   	push   rbp
    27e1:	48 89 e5             	mov    rbp,rsp
    27e4:	48 81 ec 10 01 00 00 	sub    rsp,0x110
    27eb:	c7 45 fc 00 00 00 00 	mov    DWORD PTR [rbp-0x4],0x0
    27f2:	48 8d 7d d0          	lea    rdi,[rbp-0x30]
    27f6:	48 89 bd 50 ff ff ff 	mov    QWORD PTR [rbp-0xb0],rdi
    27fd:	e8 ee fa ff ff       	call   22f0 <_ZNSaIcEC1Ev@plt>
    2802:	48 8b 95 50 ff ff ff 	mov    rdx,QWORD PTR [rbp-0xb0]
    2809:	48 8d 35 8d 59 00 00 	lea    rsi,[rip+0x598d]        # 819d <_IO_stdin_used+0x19d>
    2810:	48 8d 7d d8          	lea    rdi,[rbp-0x28]
    2814:	e8 37 fa ff ff       	call   2250 <_ZNSt7__cxx1112basic_stringIcSt11char_traitsIcESaIcEEC1EPKcRKS3_@plt>
    2819:	e9 00 00 00 00       	jmp    281e <main+0x3e>
    281e:	48 8d 7d d0          	lea    rdi,[rbp-0x30]
    2822:	e8 c9 f9 ff ff       	call   21f0 <_ZNSaIcED1Ev@plt>
    2827:	48 8d 7d d8          	lea    rdi,[rbp-0x28]
    282b:	48 89 bd 40 ff ff ff 	mov    QWORD PTR [rbp-0xc0],rdi
    2832:	e8 49 f9 ff ff       	call   2180 <_ZNSt7__cxx1112basic_stringIcSt11char_traitsIcESaIcEE5beginEv@plt>
    2837:	48 8b bd 40 ff ff ff 	mov    rdi,QWORD PTR [rbp-0xc0]
    283e:	48 89 45 a0          	mov    QWORD PTR [rbp-0x60],rax
    2842:	e8 a9 f8 ff ff       	call   20f0 <_ZNSt7__cxx1112basic_stringIcSt11char_traitsIcESaIcEE3endEv@plt>
    2847:	48 89 45 98          	mov    QWORD PTR [rbp-0x68],rax
    284b:	48 8d 7d 90          	lea    rdi,[rbp-0x70]
    284f:	48 89 bd 48 ff ff ff 	mov    QWORD PTR [rbp-0xb8],rdi
    2856:	e8 95 fa ff ff       	call   22f0 <_ZNSaIcEC1Ev@plt>
    285b:	48 8b 8d 48 ff ff ff 	mov    rcx,QWORD PTR [rbp-0xb8]
    2862:	48 8b 75 a0          	mov    rsi,QWORD PTR [rbp-0x60]
    2866:	48 8b 55 98          	mov    rdx,QWORD PTR [rbp-0x68]
    286a:	48 8d 7d a8          	lea    rdi,[rbp-0x58]
    286e:	e8 0d 06 00 00       	call   2e80 <_ZNSt6vectorIcSaIcEEC2IN9__gnu_cxx17__normal_iteratorIPcNSt7__cxx1112basic_stringIcSt11char_traitsIcES0_EEEEvEET_SC_RKS0_>
    2873:	e9 00 00 00 00       	jmp    2878 <main+0x98>
    2878:	48 8d 7d 90          	lea    rdi,[rbp-0x70]
    287c:	e8 6f f9 ff ff       	call   21f0 <_ZNSaIcED1Ev@plt>
    2881:	48 8d bd 60 ff ff ff 	lea    rdi,[rbp-0xa0]
    2888:	48 8d 75 a8          	lea    rsi,[rbp-0x58]
    288c:	e8 7f 06 00 00       	call   2f10 <_ZN5lexer5LexerC2ERKSt6vectorIcSaIcEE>
    2891:	e9 00 00 00 00       	jmp    2896 <main+0xb6>
    2896:	48 8d bd 60 ff ff ff 	lea    rdi,[rbp-0xa0]
    289d:	e8 ae 06 00 00       	call   2f50 <_ZN5lexer5Lexer9read_charEv>
    28a2:	e9 00 00 00 00       	jmp    28a7 <main+0xc7>
    28a7:	e9 00 00 00 00       	jmp    28ac <main+0xcc>
    28ac:	e9 00 00 00 00       	jmp    28b1 <main+0xd1>
    28b1:	48 8d bd 60 ff ff ff 	lea    rdi,[rbp-0xa0]
    28b8:	e8 13 07 00 00       	call   2fd0 <_ZN5lexer5Lexer10next_tokenEv>
    28bd:	89 85 3c ff ff ff    	mov    DWORD PTR [rbp-0xc4],eax
    28c3:	e9 00 00 00 00       	jmp    28c8 <main+0xe8>
    28c8:	8b 85 3c ff ff ff    	mov    eax,DWORD PTR [rbp-0xc4]
    28ce:	89 85 5c ff ff ff    	mov    DWORD PTR [rbp-0xa4],eax
    28d4:	83 bd 5c ff ff ff 01 	cmp    DWORD PTR [rbp-0xa4],0x1
    28db:	0f 85 67 00 00 00    	jne    2948 <main+0x168>
    28e1:	e9 a2 00 00 00       	jmp    2988 <main+0x1a8>
    28e6:	48 89 c1             	mov    rcx,rax
    28e9:	89 d0                	mov    eax,edx
    28eb:	48 89 4d c8          	mov    QWORD PTR [rbp-0x38],rcx
    28ef:	89 45 c4             	mov    DWORD PTR [rbp-0x3c],eax
    28f2:	48 8d 7d d0          	lea    rdi,[rbp-0x30]
    28f6:	e8 f5 f8 ff ff       	call   21f0 <_ZNSaIcED1Ev@plt>
    28fb:	e9 c7 01 00 00       	jmp    2ac7 <main+0x2e7>
    2900:	48 89 c1             	mov    rcx,rax
    2903:	89 d0                	mov    eax,edx
    2905:	48 89 4d c8          	mov    QWORD PTR [rbp-0x38],rcx
    2909:	89 45 c4             	mov    DWORD PTR [rbp-0x3c],eax
    290c:	48 8d 7d 90          	lea    rdi,[rbp-0x70]
    2910:	e8 db f8 ff ff       	call   21f0 <_ZNSaIcED1Ev@plt>
    2915:	e9 a4 01 00 00       	jmp    2abe <main+0x2de>
    291a:	48 89 c1             	mov    rcx,rax
    291d:	89 d0                	mov    eax,edx
    291f:	48 89 4d c8          	mov    QWORD PTR [rbp-0x38],rcx
    2923:	89 45 c4             	mov    DWORD PTR [rbp-0x3c],eax
    2926:	e9 8a 01 00 00       	jmp    2ab5 <main+0x2d5>
    292b:	48 89 c1             	mov    rcx,rax
    292e:	89 d0                	mov    eax,edx
    2930:	48 89 4d c8          	mov    QWORD PTR [rbp-0x38],rcx
    2934:	89 45 c4             	mov    DWORD PTR [rbp-0x3c],eax
    2937:	48 8d bd 60 ff ff ff 	lea    rdi,[rbp-0xa0]
    293e:	e8 4d 09 00 00       	call   3290 <_ZN5lexer5LexerD2Ev>
    2943:	e9 6d 01 00 00       	jmp    2ab5 <main+0x2d5>
    2948:	8b b5 5c ff ff ff    	mov    esi,DWORD PTR [rbp-0xa4]
    294e:	48 8b 3d 5b 96 00 00 	mov    rdi,QWORD PTR [rip+0x965b]        # bfb0 <_ZSt4cout@GLIBCXX_3.4>
    2955:	e8 76 f9 ff ff       	call   22d0 <_ZNSolsEi@plt>
    295a:	48 89 85 30 ff ff ff 	mov    QWORD PTR [rbp-0xd0],rax
    2961:	e9 00 00 00 00       	jmp    2966 <main+0x186>
    2966:	48 8b bd 30 ff ff ff 	mov    rdi,QWORD PTR [rbp-0xd0]
    296d:	48 8b 35 2c 96 00 00 	mov    rsi,QWORD PTR [rip+0x962c]        # bfa0 <_ZSt4endlIcSt11char_traitsIcEERSt13basic_ostreamIT_T0_ES6_@GLIBCXX_3.4>
    2974:	e8 57 f8 ff ff       	call   21d0 <_ZNSolsEPFRSoS_E@plt>
    2979:	e9 00 00 00 00       	jmp    297e <main+0x19e>
    297e:	e9 00 00 00 00       	jmp    2983 <main+0x1a3>
    2983:	e9 24 ff ff ff       	jmp    28ac <main+0xcc>
    2988:	48 8d bd 60 ff ff ff 	lea    rdi,[rbp-0xa0]
    298f:	e8 9c 08 00 00       	call   3230 <_ZNK5lexer5Lexer6get_chEv>
    2994:	88 85 2f ff ff ff    	mov    BYTE PTR [rbp-0xd1],al
    299a:	e9 00 00 00 00       	jmp    299f <main+0x1bf>
    299f:	8a 85 2f ff ff ff    	mov    al,BYTE PTR [rbp-0xd1]
    29a5:	0f be f0             	movsx  esi,al
    29a8:	48 8b 3d 01 96 00 00 	mov    rdi,QWORD PTR [rip+0x9601]        # bfb0 <_ZSt4cout@GLIBCXX_3.4>
    29af:	e8 5c f8 ff ff       	call   2210 <_ZStlsISt11char_traitsIcEERSt13basic_ostreamIcT_ES5_c@plt>
    29b4:	48 89 85 20 ff ff ff 	mov    QWORD PTR [rbp-0xe0],rax
    29bb:	e9 00 00 00 00       	jmp    29c0 <main+0x1e0>
    29c0:	48 8b bd 20 ff ff ff 	mov    rdi,QWORD PTR [rbp-0xe0]
    29c7:	48 8d 35 ff 57 00 00 	lea    rsi,[rip+0x57ff]        # 81cd <_IO_stdin_used+0x1cd>
    29ce:	e8 dd f7 ff ff       	call   21b0 <_ZStlsISt11char_traitsIcEERSt13basic_ostreamIcT_ES5_PKc@plt>
    29d3:	48 89 85 18 ff ff ff 	mov    QWORD PTR [rbp-0xe8],rax
    29da:	e9 00 00 00 00       	jmp    29df <main+0x1ff>
    29df:	48 8d bd 60 ff ff ff 	lea    rdi,[rbp-0xa0]
    29e6:	e8 65 08 00 00       	call   3250 <_ZNK5lexer5Lexer12get_positionEv>
    29eb:	48 89 85 10 ff ff ff 	mov    QWORD PTR [rbp-0xf0],rax
    29f2:	e9 00 00 00 00       	jmp    29f7 <main+0x217>
    29f7:	48 8b b5 10 ff ff ff 	mov    rsi,QWORD PTR [rbp-0xf0]
    29fe:	48 8b bd 18 ff ff ff 	mov    rdi,QWORD PTR [rbp-0xe8]
    2a05:	e8 46 f6 ff ff       	call   2050 <_ZNSolsEm@plt>
    2a0a:	48 89 85 08 ff ff ff 	mov    QWORD PTR [rbp-0xf8],rax
    2a11:	e9 00 00 00 00       	jmp    2a16 <main+0x236>
    2a16:	48 8b bd 08 ff ff ff 	mov    rdi,QWORD PTR [rbp-0xf8]
    2a1d:	48 8d 35 a9 57 00 00 	lea    rsi,[rip+0x57a9]        # 81cd <_IO_stdin_used+0x1cd>
    2a24:	e8 87 f7 ff ff       	call   21b0 <_ZStlsISt11char_traitsIcEERSt13basic_ostreamIcT_ES5_PKc@plt>
    2a29:	48 89 85 00 ff ff ff 	mov    QWORD PTR [rbp-0x100],rax
    2a30:	e9 00 00 00 00       	jmp    2a35 <main+0x255>
    2a35:	48 8d bd 60 ff ff ff 	lea    rdi,[rbp-0xa0]
    2a3c:	e8 2f 08 00 00       	call   3270 <_ZNK5lexer5Lexer17get_read_positionEv>
    2a41:	48 89 85 f8 fe ff ff 	mov    QWORD PTR [rbp-0x108],rax
    2a48:	e9 00 00 00 00       	jmp    2a4d <main+0x26d>
    2a4d:	48 8b b5 f8 fe ff ff 	mov    rsi,QWORD PTR [rbp-0x108]
    2a54:	48 8b bd 00 ff ff ff 	mov    rdi,QWORD PTR [rbp-0x100]
    2a5b:	e8 f0 f5 ff ff       	call   2050 <_ZNSolsEm@plt>
    2a60:	48 89 85 f0 fe ff ff 	mov    QWORD PTR [rbp-0x110],rax
    2a67:	e9 00 00 00 00       	jmp    2a6c <main+0x28c>
    2a6c:	48 8b bd f0 fe ff ff 	mov    rdi,QWORD PTR [rbp-0x110]
    2a73:	48 8b 35 26 95 00 00 	mov    rsi,QWORD PTR [rip+0x9526]        # bfa0 <_ZSt4endlIcSt11char_traitsIcEERSt13basic_ostreamIT_T0_ES6_@GLIBCXX_3.4>
    2a7a:	e8 51 f7 ff ff       	call   21d0 <_ZNSolsEPFRSoS_E@plt>
    2a7f:	e9 00 00 00 00       	jmp    2a84 <main+0x2a4>
    2a84:	c7 45 fc 00 00 00 00 	mov    DWORD PTR [rbp-0x4],0x0
    2a8b:	48 8d bd 60 ff ff ff 	lea    rdi,[rbp-0xa0]
    2a92:	e8 f9 07 00 00       	call   3290 <_ZN5lexer5LexerD2Ev>
    2a97:	48 8d 7d a8          	lea    rdi,[rbp-0x58]
    2a9b:	e8 10 08 00 00       	call   32b0 <_ZNSt6vectorIcSaIcEED2Ev>
    2aa0:	48 8d 7d d8          	lea    rdi,[rbp-0x28]
    2aa4:	e8 57 f6 ff ff       	call   2100 <_ZNSt7__cxx1112basic_stringIcSt11char_traitsIcESaIcEED1Ev@plt>
    2aa9:	8b 45 fc             	mov    eax,DWORD PTR [rbp-0x4]
    2aac:	48 81 c4 10 01 00 00 	add    rsp,0x110
    2ab3:	5d                   	pop    rbp
    2ab4:	c3                   	ret
    2ab5:	48 8d 7d a8          	lea    rdi,[rbp-0x58]
    2ab9:	e8 f2 07 00 00       	call   32b0 <_ZNSt6vectorIcSaIcEED2Ev>
    2abe:	48 8d 7d d8          	lea    rdi,[rbp-0x28]
    2ac2:	e8 39 f6 ff ff       	call   2100 <_ZNSt7__cxx1112basic_stringIcSt11char_traitsIcESaIcEED1Ev@plt>
    2ac7:	48 8b 7d c8          	mov    rdi,QWORD PTR [rbp-0x38]
    2acb:	e8 10 f8 ff ff       	call   22e0 <_Unwind_Resume@plt>

0000000000002ad0 <_ZNSt4pairIKNSt7__cxx1112basic_stringIcSt11char_traitsIcESaIcEEE5TokenEC2IRA3_KcS7_Lb1EEEOT_OT0_>:
    2ad0:	55                   	push   rbp
    2ad1:	48 89 e5             	mov    rbp,rsp
    2ad4:	48 83 ec 50          	sub    rsp,0x50
    2ad8:	48 89 7d f8          	mov    QWORD PTR [rbp-0x8],rdi
    2adc:	48 89 75 f0          	mov    QWORD PTR [rbp-0x10],rsi
    2ae0:	48 89 55 e8          	mov    QWORD PTR [rbp-0x18],rdx
    2ae4:	48 8b 45 f8          	mov    rax,QWORD PTR [rbp-0x8]
    2ae8:	48 89 45 b8          	mov    QWORD PTR [rbp-0x48],rax
    2aec:	48 8b 45 f0          	mov    rax,QWORD PTR [rbp-0x10]
    2af0:	48 89 45 c0          	mov    QWORD PTR [rbp-0x40],rax
    2af4:	48 8d 7d e0          	lea    rdi,[rbp-0x20]
    2af8:	48 89 7d c8          	mov    QWORD PTR [rbp-0x38],rdi
    2afc:	e8 ef f7 ff ff       	call   22f0 <_ZNSaIcEC1Ev@plt>
    2b01:	48 8b 7d b8          	mov    rdi,QWORD PTR [rbp-0x48]
    2b05:	48 8b 75 c0          	mov    rsi,QWORD PTR [rbp-0x40]
    2b09:	48 8b 55 c8          	mov    rdx,QWORD PTR [rbp-0x38]
    2b0d:	e8 3e f7 ff ff       	call   2250 <_ZNSt7__cxx1112basic_stringIcSt11char_traitsIcESaIcEEC1EPKcRKS3_@plt>
    2b12:	e9 00 00 00 00       	jmp    2b17 <_ZNSt4pairIKNSt7__cxx1112basic_stringIcSt11char_traitsIcESaIcEEE5TokenEC2IRA3_KcS7_Lb1EEEOT_OT0_+0x47>
    2b17:	48 8d 7d e0          	lea    rdi,[rbp-0x20]
    2b1b:	e8 d0 f6 ff ff       	call   21f0 <_ZNSaIcED1Ev@plt>
    2b20:	48 8b 45 b8          	mov    rax,QWORD PTR [rbp-0x48]
    2b24:	48 8b 4d e8          	mov    rcx,QWORD PTR [rbp-0x18]
    2b28:	8b 09                	mov    ecx,DWORD PTR [rcx]
    2b2a:	89 48 20             	mov    DWORD PTR [rax+0x20],ecx
    2b2d:	48 83 c4 50          	add    rsp,0x50
    2b31:	5d                   	pop    rbp
    2b32:	c3                   	ret
    2b33:	48 89 c1             	mov    rcx,rax
    2b36:	89 d0                	mov    eax,edx
    2b38:	48 89 4d d8          	mov    QWORD PTR [rbp-0x28],rcx
    2b3c:	89 45 d4             	mov    DWORD PTR [rbp-0x2c],eax
    2b3f:	48 8d 7d e0          	lea    rdi,[rbp-0x20]
    2b43:	e8 a8 f6 ff ff       	call   21f0 <_ZNSaIcED1Ev@plt>
    2b48:	48 8b 7d d8          	mov    rdi,QWORD PTR [rbp-0x28]
    2b4c:	e8 8f f7 ff ff       	call   22e0 <_Unwind_Resume@plt>
    2b51:	66 2e 0f 1f 84 00 00 	cs nop WORD PTR [rax+rax*1+0x0]
    2b58:	00 00 00 
    2b5b:	0f 1f 44 00 00       	nop    DWORD PTR [rax+rax*1+0x0]

0000000000002b60 <_ZNSt4pairIKNSt7__cxx1112basic_stringIcSt11char_traitsIcESaIcEEE5TokenEC2IRA4_KcS7_Lb1EEEOT_OT0_>:
    2b60:	55                   	push   rbp
    2b61:	48 89 e5             	mov    rbp,rsp
    2b64:	48 83 ec 50          	sub    rsp,0x50
    2b68:	48 89 7d f8          	mov    QWORD PTR [rbp-0x8],rdi
    2b6c:	48 89 75 f0          	mov    QWORD PTR [rbp-0x10],rsi
    2b70:	48 89 55 e8          	mov    QWORD PTR [rbp-0x18],rdx
    2b74:	48 8b 45 f8          	mov    rax,QWORD PTR [rbp-0x8]
    2b78:	48 89 45 b8          	mov    QWORD PTR [rbp-0x48],rax
    2b7c:	48 8b 45 f0          	mov    rax,QWORD PTR [rbp-0x10]
    2b80:	48 89 45 c0          	mov    QWORD PTR [rbp-0x40],rax
    2b84:	48 8d 7d e0          	lea    rdi,[rbp-0x20]
    2b88:	48 89 7d c8          	mov    QWORD PTR [rbp-0x38],rdi
    2b8c:	e8 5f f7 ff ff       	call   22f0 <_ZNSaIcEC1Ev@plt>
    2b91:	48 8b 7d b8          	mov    rdi,QWORD PTR [rbp-0x48]
    2b95:	48 8b 75 c0          	mov    rsi,QWORD PTR [rbp-0x40]
    2b99:	48 8b 55 c8          	mov    rdx,QWORD PTR [rbp-0x38]
    2b9d:	e8 ae f6 ff ff       	call   2250 <_ZNSt7__cxx1112basic_stringIcSt11char_traitsIcESaIcEEC1EPKcRKS3_@plt>
    2ba2:	e9 00 00 00 00       	jmp    2ba7 <_ZNSt4pairIKNSt7__cxx1112basic_stringIcSt11char_traitsIcESaIcEEE5TokenEC2IRA4_KcS7_Lb1EEEOT_OT0_+0x47>
    2ba7:	48 8d 7d e0          	lea    rdi,[rbp-0x20]
    2bab:	e8 40 f6 ff ff       	call   21f0 <_ZNSaIcED1Ev@plt>
    2bb0:	48 8b 45 b8          	mov    rax,QWORD PTR [rbp-0x48]
    2bb4:	48 8b 4d e8          	mov    rcx,QWORD PTR [rbp-0x18]
    2bb8:	8b 09                	mov    ecx,DWORD PTR [rcx]
    2bba:	89 48 20             	mov    DWORD PTR [rax+0x20],ecx
    2bbd:	48 83 c4 50          	add    rsp,0x50
    2bc1:	5d                   	pop    rbp
    2bc2:	c3                   	ret
    2bc3:	48 89 c1             	mov    rcx,rax
    2bc6:	89 d0                	mov    eax,edx
    2bc8:	48 89 4d d8          	mov    QWORD PTR [rbp-0x28],rcx
    2bcc:	89 45 d4             	mov    DWORD PTR [rbp-0x2c],eax
    2bcf:	48 8d 7d e0          	lea    rdi,[rbp-0x20]
    2bd3:	e8 18 f6 ff ff       	call   21f0 <_ZNSaIcED1Ev@plt>
    2bd8:	48 8b 7d d8          	mov    rdi,QWORD PTR [rbp-0x28]
    2bdc:	e8 ff f6 ff ff       	call   22e0 <_Unwind_Resume@plt>
    2be1:	66 2e 0f 1f 84 00 00 	cs nop WORD PTR [rax+rax*1+0x0]
    2be8:	00 00 00 
    2beb:	0f 1f 44 00 00       	nop    DWORD PTR [rax+rax*1+0x0]

0000000000002bf0 <_ZNSt4pairIKNSt7__cxx1112basic_stringIcSt11char_traitsIcESaIcEEE5TokenEC2IRA5_KcS7_Lb1EEEOT_OT0_>:
    2bf0:	55                   	push   rbp
    2bf1:	48 89 e5             	mov    rbp,rsp
    2bf4:	48 83 ec 50          	sub    rsp,0x50
    2bf8:	48 89 7d f8          	mov    QWORD PTR [rbp-0x8],rdi
    2bfc:	48 89 75 f0          	mov    QWORD PTR [rbp-0x10],rsi
    2c00:	48 89 55 e8          	mov    QWORD PTR [rbp-0x18],rdx
    2c04:	48 8b 45 f8          	mov    rax,QWORD PTR [rbp-0x8]
    2c08:	48 89 45 b8          	mov    QWORD PTR [rbp-0x48],rax
    2c0c:	48 8b 45 f0          	mov    rax,QWORD PTR [rbp-0x10]
    2c10:	48 89 45 c0          	mov    QWORD PTR [rbp-0x40],rax
    2c14:	48 8d 7d e0          	lea    rdi,[rbp-0x20]
    2c18:	48 89 7d c8          	mov    QWORD PTR [rbp-0x38],rdi
    2c1c:	e8 cf f6 ff ff       	call   22f0 <_ZNSaIcEC1Ev@plt>
    2c21:	48 8b 7d b8          	mov    rdi,QWORD PTR [rbp-0x48]
    2c25:	48 8b 75 c0          	mov    rsi,QWORD PTR [rbp-0x40]
    2c29:	48 8b 55 c8          	mov    rdx,QWORD PTR [rbp-0x38]
    2c2d:	e8 1e f6 ff ff       	call   2250 <_ZNSt7__cxx1112basic_stringIcSt11char_traitsIcESaIcEEC1EPKcRKS3_@plt>
    2c32:	e9 00 00 00 00       	jmp    2c37 <_ZNSt4pairIKNSt7__cxx1112basic_stringIcSt11char_traitsIcESaIcEEE5TokenEC2IRA5_KcS7_Lb1EEEOT_OT0_+0x47>
    2c37:	48 8d 7d e0          	lea    rdi,[rbp-0x20]
    2c3b:	e8 b0 f5 ff ff       	call   21f0 <_ZNSaIcED1Ev@plt>
    2c40:	48 8b 45 b8          	mov    rax,QWORD PTR [rbp-0x48]
    2c44:	48 8b 4d e8          	mov    rcx,QWORD PTR [rbp-0x18]
    2c48:	8b 09                	mov    ecx,DWORD PTR [rcx]
    2c4a:	89 48 20             	mov    DWORD PTR [rax+0x20],ecx
    2c4d:	48 83 c4 50          	add    rsp,0x50
    2c51:	5d                   	pop    rbp
    2c52:	c3                   	ret
    2c53:	48 89 c1             	mov    rcx,rax
    2c56:	89 d0                	mov    eax,edx
    2c58:	48 89 4d d8          	mov    QWORD PTR [rbp-0x28],rcx
    2c5c:	89 45 d4             	mov    DWORD PTR [rbp-0x2c],eax
    2c5f:	48 8d 7d e0          	lea    rdi,[rbp-0x20]
    2c63:	e8 88 f5 ff ff       	call   21f0 <_ZNSaIcED1Ev@plt>
    2c68:	48 8b 7d d8          	mov    rdi,QWORD PTR [rbp-0x28]
    2c6c:	e8 6f f6 ff ff       	call   22e0 <_Unwind_Resume@plt>
    2c71:	66 2e 0f 1f 84 00 00 	cs nop WORD PTR [rax+rax*1+0x0]
    2c78:	00 00 00 
    2c7b:	0f 1f 44 00 00       	nop    DWORD PTR [rax+rax*1+0x0]

0000000000002c80 <_ZNSt4pairIKNSt7__cxx1112basic_stringIcSt11char_traitsIcESaIcEEE5TokenEC2IRA6_KcS7_Lb1EEEOT_OT0_>:
    2c80:	55                   	push   rbp
    2c81:	48 89 e5             	mov    rbp,rsp
    2c84:	48 83 ec 50          	sub    rsp,0x50
    2c88:	48 89 7d f8          	mov    QWORD PTR [rbp-0x8],rdi
    2c8c:	48 89 75 f0          	mov    QWORD PTR [rbp-0x10],rsi
    2c90:	48 89 55 e8          	mov    QWORD PTR [rbp-0x18],rdx
    2c94:	48 8b 45 f8          	mov    rax,QWORD PTR [rbp-0x8]
    2c98:	48 89 45 b8          	mov    QWORD PTR [rbp-0x48],rax
    2c9c:	48 8b 45 f0          	mov    rax,QWORD PTR [rbp-0x10]
    2ca0:	48 89 45 c0          	mov    QWORD PTR [rbp-0x40],rax
    2ca4:	48 8d 7d e0          	lea    rdi,[rbp-0x20]
    2ca8:	48 89 7d c8          	mov    QWORD PTR [rbp-0x38],rdi
    2cac:	e8 3f f6 ff ff       	call   22f0 <_ZNSaIcEC1Ev@plt>
    2cb1:	48 8b 7d b8          	mov    rdi,QWORD PTR [rbp-0x48]
    2cb5:	48 8b 75 c0          	mov    rsi,QWORD PTR [rbp-0x40]
    2cb9:	48 8b 55 c8          	mov    rdx,QWORD PTR [rbp-0x38]
    2cbd:	e8 8e f5 ff ff       	call   2250 <_ZNSt7__cxx1112basic_stringIcSt11char_traitsIcESaIcEEC1EPKcRKS3_@plt>
    2cc2:	e9 00 00 00 00       	jmp    2cc7 <_ZNSt4pairIKNSt7__cxx1112basic_stringIcSt11char_traitsIcESaIcEEE5TokenEC2IRA6_KcS7_Lb1EEEOT_OT0_+0x47>
    2cc7:	48 8d 7d e0          	lea    rdi,[rbp-0x20]
    2ccb:	e8 20 f5 ff ff       	call   21f0 <_ZNSaIcED1Ev@plt>
    2cd0:	48 8b 45 b8          	mov    rax,QWORD PTR [rbp-0x48]
    2cd4:	48 8b 4d e8          	mov    rcx,QWORD PTR [rbp-0x18]
    2cd8:	8b 09                	mov    ecx,DWORD PTR [rcx]
    2cda:	89 48 20             	mov    DWORD PTR [rax+0x20],ecx
    2cdd:	48 83 c4 50          	add    rsp,0x50
    2ce1:	5d                   	pop    rbp
    2ce2:	c3                   	ret
    2ce3:	48 89 c1             	mov    rcx,rax
    2ce6:	89 d0                	mov    eax,edx
    2ce8:	48 89 4d d8          	mov    QWORD PTR [rbp-0x28],rcx
    2cec:	89 45 d4             	mov    DWORD PTR [rbp-0x2c],eax
    2cef:	48 8d 7d e0          	lea    rdi,[rbp-0x20]
    2cf3:	e8 f8 f4 ff ff       	call   21f0 <_ZNSaIcED1Ev@plt>
    2cf8:	48 8b 7d d8          	mov    rdi,QWORD PTR [rbp-0x28]
    2cfc:	e8 df f5 ff ff       	call   22e0 <_Unwind_Resume@plt>
    2d01:	66 2e 0f 1f 84 00 00 	cs nop WORD PTR [rax+rax*1+0x0]
    2d08:	00 00 00 
    2d0b:	0f 1f 44 00 00       	nop    DWORD PTR [rax+rax*1+0x0]

0000000000002d10 <_ZNSt4pairIKNSt7__cxx1112basic_stringIcSt11char_traitsIcESaIcEEE5TokenEC2IRA7_KcS7_Lb1EEEOT_OT0_>:
    2d10:	55                   	push   rbp
    2d11:	48 89 e5             	mov    rbp,rsp
    2d14:	48 83 ec 50          	sub    rsp,0x50
    2d18:	48 89 7d f8          	mov    QWORD PTR [rbp-0x8],rdi
    2d1c:	48 89 75 f0          	mov    QWORD PTR [rbp-0x10],rsi
    2d20:	48 89 55 e8          	mov    QWORD PTR [rbp-0x18],rdx
    2d24:	48 8b 45 f8          	mov    rax,QWORD PTR [rbp-0x8]
    2d28:	48 89 45 b8          	mov    QWORD PTR [rbp-0x48],rax
    2d2c:	48 8b 45 f0          	mov    rax,QWORD PTR [rbp-0x10]
    2d30:	48 89 45 c0          	mov    QWORD PTR [rbp-0x40],rax
    2d34:	48 8d 7d e0          	lea    rdi,[rbp-0x20]
    2d38:	48 89 7d c8          	mov    QWORD PTR [rbp-0x38],rdi
    2d3c:	e8 af f5 ff ff       	call   22f0 <_ZNSaIcEC1Ev@plt>
    2d41:	48 8b 7d b8          	mov    rdi,QWORD PTR [rbp-0x48]
    2d45:	48 8b 75 c0          	mov    rsi,QWORD PTR [rbp-0x40]
    2d49:	48 8b 55 c8          	mov    rdx,QWORD PTR [rbp-0x38]
    2d4d:	e8 fe f4 ff ff       	call   2250 <_ZNSt7__cxx1112basic_stringIcSt11char_traitsIcESaIcEEC1EPKcRKS3_@plt>
    2d52:	e9 00 00 00 00       	jmp    2d57 <_ZNSt4pairIKNSt7__cxx1112basic_stringIcSt11char_traitsIcESaIcEEE5TokenEC2IRA7_KcS7_Lb1EEEOT_OT0_+0x47>
    2d57:	48 8d 7d e0          	lea    rdi,[rbp-0x20]
    2d5b:	e8 90 f4 ff ff       	call   21f0 <_ZNSaIcED1Ev@plt>
    2d60:	48 8b 45 b8          	mov    rax,QWORD PTR [rbp-0x48]
    2d64:	48 8b 4d e8          	mov    rcx,QWORD PTR [rbp-0x18]
    2d68:	8b 09                	mov    ecx,DWORD PTR [rcx]
    2d6a:	89 48 20             	mov    DWORD PTR [rax+0x20],ecx
    2d6d:	48 83 c4 50          	add    rsp,0x50
    2d71:	5d                   	pop    rbp
    2d72:	c3                   	ret
    2d73:	48 89 c1             	mov    rcx,rax
    2d76:	89 d0                	mov    eax,edx
    2d78:	48 89 4d d8          	mov    QWORD PTR [rbp-0x28],rcx
    2d7c:	89 45 d4             	mov    DWORD PTR [rbp-0x2c],eax
    2d7f:	48 8d 7d e0          	lea    rdi,[rbp-0x20]
    2d83:	e8 68 f4 ff ff       	call   21f0 <_ZNSaIcED1Ev@plt>
    2d88:	48 8b 7d d8          	mov    rdi,QWORD PTR [rbp-0x28]
    2d8c:	e8 4f f5 ff ff       	call   22e0 <_Unwind_Resume@plt>
    2d91:	66 2e 0f 1f 84 00 00 	cs nop WORD PTR [rax+rax*1+0x0]
    2d98:	00 00 00 
    2d9b:	0f 1f 44 00 00       	nop    DWORD PTR [rax+rax*1+0x0]

0000000000002da0 <_ZNSt4pairIKNSt7__cxx1112basic_stringIcSt11char_traitsIcESaIcEEE5TokenED2Ev>:
    2da0:	55                   	push   rbp
    2da1:	48 89 e5             	mov    rbp,rsp
    2da4:	48 83 ec 10          	sub    rsp,0x10
    2da8:	48 89 7d f8          	mov    QWORD PTR [rbp-0x8],rdi
    2dac:	48 8b 7d f8          	mov    rdi,QWORD PTR [rbp-0x8]
    2db0:	e8 4b f3 ff ff       	call   2100 <_ZNSt7__cxx1112basic_stringIcSt11char_traitsIcESaIcEED1Ev@plt>
    2db5:	48 83 c4 10          	add    rsp,0x10
    2db9:	5d                   	pop    rbp
    2dba:	c3                   	ret
    2dbb:	0f 1f 44 00 00       	nop    DWORD PTR [rax+rax*1+0x0]

0000000000002dc0 <_ZNSaISt4pairIKNSt7__cxx1112basic_stringIcSt11char_traitsIcESaIcEEE5TokenEEC2Ev>:
    2dc0:	55                   	push   rbp
    2dc1:	48 89 e5             	mov    rbp,rsp
    2dc4:	48 83 ec 10          	sub    rsp,0x10
    2dc8:	48 89 7d f8          	mov    QWORD PTR [rbp-0x8],rdi
    2dcc:	48 8b 7d f8          	mov    rdi,QWORD PTR [rbp-0x8]
    2dd0:	e8 9b 2b 00 00       	call   5970 <_ZNSt15__new_allocatorISt4pairIKNSt7__cxx1112basic_stringIcSt11char_traitsIcESaIcEEE5TokenEEC2Ev>
    2dd5:	48 83 c4 10          	add    rsp,0x10
    2dd9:	5d                   	pop    rbp
    2dda:	c3                   	ret
    2ddb:	0f 1f 44 00 00       	nop    DWORD PTR [rax+rax*1+0x0]

0000000000002de0 <_ZNSt13unordered_mapINSt7__cxx1112basic_stringIcSt11char_traitsIcESaIcEEE5TokenSt4hashIS5_ESt8equal_toIS5_ESaISt4pairIKS5_S6_EEEC2ESt16initializer_listISD_EmRKS8_RKSA_RKSE_>:
    2de0:	55                   	push   rbp
    2de1:	48 89 e5             	mov    rbp,rsp
    2de4:	48 83 ec 50          	sub    rsp,0x50
    2de8:	48 8b 45 10          	mov    rax,QWORD PTR [rbp+0x10]
    2dec:	48 89 75 f0          	mov    QWORD PTR [rbp-0x10],rsi
    2df0:	48 89 55 f8          	mov    QWORD PTR [rbp-0x8],rdx
    2df4:	48 89 7d e8          	mov    QWORD PTR [rbp-0x18],rdi
    2df8:	48 89 4d e0          	mov    QWORD PTR [rbp-0x20],rcx
    2dfc:	4c 89 45 d8          	mov    QWORD PTR [rbp-0x28],r8
    2e00:	4c 89 4d d0          	mov    QWORD PTR [rbp-0x30],r9
    2e04:	48 8b 7d e8          	mov    rdi,QWORD PTR [rbp-0x18]
    2e08:	48 8b 45 f0          	mov    rax,QWORD PTR [rbp-0x10]
    2e0c:	48 89 45 c0          	mov    QWORD PTR [rbp-0x40],rax
    2e10:	48 8b 45 f8          	mov    rax,QWORD PTR [rbp-0x8]
    2e14:	48 89 45 c8          	mov    QWORD PTR [rbp-0x38],rax
    2e18:	48 8b 4d e0          	mov    rcx,QWORD PTR [rbp-0x20]
    2e1c:	4c 8b 45 d8          	mov    r8,QWORD PTR [rbp-0x28]
    2e20:	4c 8b 4d d0          	mov    r9,QWORD PTR [rbp-0x30]
    2e24:	48 8b 45 10          	mov    rax,QWORD PTR [rbp+0x10]
    2e28:	48 8b 75 c0          	mov    rsi,QWORD PTR [rbp-0x40]
    2e2c:	48 8b 55 c8          	mov    rdx,QWORD PTR [rbp-0x38]
    2e30:	48 89 04 24          	mov    QWORD PTR [rsp],rax
    2e34:	e8 57 2b 00 00       	call   5990 <_ZNSt10_HashtableINSt7__cxx1112basic_stringIcSt11char_traitsIcESaIcEEESt4pairIKS5_5TokenESaIS9_ENSt8__detail10_Select1stESt8equal_toIS5_ESt4hashIS5_ENSB_18_Mod_range_hashingENSB_20_Default_ranged_hashENSB_20_Prime_rehash_policyENSB_17_Hashtable_traitsILb1ELb0ELb1EEEEC2ESt16initializer_listIS9_EmRKSG_RKSE_RKSA_>
    2e39:	48 83 c4 50          	add    rsp,0x50
    2e3d:	5d                   	pop    rbp
    2e3e:	c3                   	ret
    2e3f:	90                   	nop

0000000000002e40 <_ZNSaISt4pairIKNSt7__cxx1112basic_stringIcSt11char_traitsIcESaIcEEE5TokenEED2Ev>:
    2e40:	55                   	push   rbp
    2e41:	48 89 e5             	mov    rbp,rsp
    2e44:	48 83 ec 10          	sub    rsp,0x10
    2e48:	48 89 7d f8          	mov    QWORD PTR [rbp-0x8],rdi
    2e4c:	48 8b 7d f8          	mov    rdi,QWORD PTR [rbp-0x8]
    2e50:	e8 2b 2b 00 00       	call   5980 <_ZNSt15__new_allocatorISt4pairIKNSt7__cxx1112basic_stringIcSt11char_traitsIcESaIcEEE5TokenEED2Ev>
    2e55:	48 83 c4 10          	add    rsp,0x10
    2e59:	5d                   	pop    rbp
    2e5a:	c3                   	ret
    2e5b:	0f 1f 44 00 00       	nop    DWORD PTR [rax+rax*1+0x0]

0000000000002e60 <_ZNSt13unordered_mapINSt7__cxx1112basic_stringIcSt11char_traitsIcESaIcEEE5TokenSt4hashIS5_ESt8equal_toIS5_ESaISt4pairIKS5_S6_EEED2Ev>:
    2e60:	55                   	push   rbp
    2e61:	48 89 e5             	mov    rbp,rsp
    2e64:	48 83 ec 10          	sub    rsp,0x10
    2e68:	48 89 7d f8          	mov    QWORD PTR [rbp-0x8],rdi
    2e6c:	48 8b 7d f8          	mov    rdi,QWORD PTR [rbp-0x8]
    2e70:	e8 9b 04 00 00       	call   3310 <_ZNSt10_HashtableINSt7__cxx1112basic_stringIcSt11char_traitsIcESaIcEEESt4pairIKS5_5TokenESaIS9_ENSt8__detail10_Select1stESt8equal_toIS5_ESt4hashIS5_ENSB_18_Mod_range_hashingENSB_20_Default_ranged_hashENSB_20_Prime_rehash_policyENSB_17_Hashtable_traitsILb1ELb0ELb1EEEED2Ev>
    2e75:	48 83 c4 10          	add    rsp,0x10
    2e79:	5d                   	pop    rbp
    2e7a:	c3                   	ret
    2e7b:	0f 1f 44 00 00       	nop    DWORD PTR [rax+rax*1+0x0]

0000000000002e80 <_ZNSt6vectorIcSaIcEEC2IN9__gnu_cxx17__normal_iteratorIPcNSt7__cxx1112basic_stringIcSt11char_traitsIcES0_EEEEvEET_SC_RKS0_>:
    2e80:	55                   	push   rbp
    2e81:	48 89 e5             	mov    rbp,rsp
    2e84:	48 83 ec 60          	sub    rsp,0x60
    2e88:	48 89 75 f8          	mov    QWORD PTR [rbp-0x8],rsi
    2e8c:	48 89 55 f0          	mov    QWORD PTR [rbp-0x10],rdx
    2e90:	48 89 7d e8          	mov    QWORD PTR [rbp-0x18],rdi
    2e94:	48 89 4d e0          	mov    QWORD PTR [rbp-0x20],rcx
    2e98:	48 8b 7d e8          	mov    rdi,QWORD PTR [rbp-0x18]
    2e9c:	48 89 7d a8          	mov    QWORD PTR [rbp-0x58],rdi
    2ea0:	48 8b 75 e0          	mov    rsi,QWORD PTR [rbp-0x20]
    2ea4:	e8 07 18 00 00       	call   46b0 <_ZNSt12_Vector_baseIcSaIcEEC2ERKS0_>
    2ea9:	48 8b 45 f8          	mov    rax,QWORD PTR [rbp-0x8]
    2ead:	48 89 45 d8          	mov    QWORD PTR [rbp-0x28],rax
    2eb1:	48 8b 45 f0          	mov    rax,QWORD PTR [rbp-0x10]
    2eb5:	48 89 45 d0          	mov    QWORD PTR [rbp-0x30],rax
    2eb9:	48 8d 7d f8          	lea    rdi,[rbp-0x8]
    2ebd:	e8 4e 41 00 00       	call   7010 <_ZSt19__iterator_categoryIN9__gnu_cxx17__normal_iteratorIPcNSt7__cxx1112basic_stringIcSt11char_traitsIcESaIcEEEEEENSt15iterator_traitsIT_E17iterator_categoryERKSB_>
    2ec2:	e9 00 00 00 00       	jmp    2ec7 <_ZNSt6vectorIcSaIcEEC2IN9__gnu_cxx17__normal_iteratorIPcNSt7__cxx1112basic_stringIcSt11char_traitsIcES0_EEEEvEET_SC_RKS0_+0x47>
    2ec7:	48 8b 7d a8          	mov    rdi,QWORD PTR [rbp-0x58]
    2ecb:	48 8b 75 d8          	mov    rsi,QWORD PTR [rbp-0x28]
    2ecf:	48 8b 55 d0          	mov    rdx,QWORD PTR [rbp-0x30]
    2ed3:	e8 78 40 00 00       	call   6f50 <_ZNSt6vectorIcSaIcEE19_M_range_initializeIN9__gnu_cxx17__normal_iteratorIPcNSt7__cxx1112basic_stringIcSt11char_traitsIcES0_EEEEEEvT_SC_St20forward_iterator_tag>
    2ed8:	e9 00 00 00 00       	jmp    2edd <_ZNSt6vectorIcSaIcEEC2IN9__gnu_cxx17__normal_iteratorIPcNSt7__cxx1112basic_stringIcSt11char_traitsIcES0_EEEEvEET_SC_RKS0_+0x5d>
    2edd:	48 83 c4 60          	add    rsp,0x60
    2ee1:	5d                   	pop    rbp
    2ee2:	c3                   	ret
    2ee3:	48 8b 7d a8          	mov    rdi,QWORD PTR [rbp-0x58]
    2ee7:	48 89 c1             	mov    rcx,rax
    2eea:	89 d0                	mov    eax,edx
    2eec:	48 89 4d b8          	mov    QWORD PTR [rbp-0x48],rcx
    2ef0:	89 45 b4             	mov    DWORD PTR [rbp-0x4c],eax
    2ef3:	e8 08 0c 00 00       	call   3b00 <_ZNSt12_Vector_baseIcSaIcEED2Ev>
    2ef8:	48 8b 7d b8          	mov    rdi,QWORD PTR [rbp-0x48]
    2efc:	e8 df f3 ff ff       	call   22e0 <_Unwind_Resume@plt>
    2f01:	66 2e 0f 1f 84 00 00 	cs nop WORD PTR [rax+rax*1+0x0]
    2f08:	00 00 00 
    2f0b:	0f 1f 44 00 00       	nop    DWORD PTR [rax+rax*1+0x0]

0000000000002f10 <_ZN5lexer5LexerC2ERKSt6vectorIcSaIcEE>:
    2f10:	55                   	push   rbp
    2f11:	48 89 e5             	mov    rbp,rsp
    2f14:	48 83 ec 20          	sub    rsp,0x20
    2f18:	48 89 7d f8          	mov    QWORD PTR [rbp-0x8],rdi
    2f1c:	48 89 75 f0          	mov    QWORD PTR [rbp-0x10],rsi
    2f20:	48 8b 7d f8          	mov    rdi,QWORD PTR [rbp-0x8]
    2f24:	48 89 7d e8          	mov    QWORD PTR [rbp-0x18],rdi
    2f28:	48 8b 75 f0          	mov    rsi,QWORD PTR [rbp-0x10]
    2f2c:	e8 6f 09 00 00       	call   38a0 <_ZNSt6vectorIcSaIcEEC2ERKS1_>
    2f31:	48 8b 45 e8          	mov    rax,QWORD PTR [rbp-0x18]
    2f35:	48 c7 40 18 00 00 00 	mov    QWORD PTR [rax+0x18],0x0
    2f3c:	00 
    2f3d:	48 c7 40 20 00 00 00 	mov    QWORD PTR [rax+0x20],0x0
    2f44:	00 
    2f45:	c6 40 28 30          	mov    BYTE PTR [rax+0x28],0x30
    2f49:	48 83 c4 20          	add    rsp,0x20
    2f4d:	5d                   	pop    rbp
    2f4e:	c3                   	ret
    2f4f:	90                   	nop

0000000000002f50 <_ZN5lexer5Lexer9read_charEv>:
    2f50:	55                   	push   rbp
    2f51:	48 89 e5             	mov    rbp,rsp
    2f54:	48 83 ec 20          	sub    rsp,0x20
    2f58:	48 89 7d f8          	mov    QWORD PTR [rbp-0x8],rdi
    2f5c:	48 8b 7d f8          	mov    rdi,QWORD PTR [rbp-0x8]
    2f60:	48 89 7d e8          	mov    QWORD PTR [rbp-0x18],rdi
    2f64:	48 8b 47 20          	mov    rax,QWORD PTR [rdi+0x20]
    2f68:	48 89 45 f0          	mov    QWORD PTR [rbp-0x10],rax
    2f6c:	e8 1f 0a 00 00       	call   3990 <_ZNKSt6vectorIcSaIcEE4sizeEv>
    2f71:	48 89 c1             	mov    rcx,rax
    2f74:	48 8b 45 f0          	mov    rax,QWORD PTR [rbp-0x10]
    2f78:	48 39 c8             	cmp    rax,rcx
    2f7b:	0f 82 0d 00 00 00    	jb     2f8e <_ZN5lexer5Lexer9read_charEv+0x3e>
    2f81:	48 8b 45 e8          	mov    rax,QWORD PTR [rbp-0x18]
    2f85:	c6 40 28 30          	mov    BYTE PTR [rax+0x28],0x30
    2f89:	e9 19 00 00 00       	jmp    2fa7 <_ZN5lexer5Lexer9read_charEv+0x57>
    2f8e:	48 8b 7d e8          	mov    rdi,QWORD PTR [rbp-0x18]
    2f92:	48 8b 77 20          	mov    rsi,QWORD PTR [rdi+0x20]
    2f96:	e8 05 11 00 00       	call   40a0 <_ZNSt6vectorIcSaIcEEixEm>
    2f9b:	48 89 c1             	mov    rcx,rax
    2f9e:	48 8b 45 e8          	mov    rax,QWORD PTR [rbp-0x18]
    2fa2:	8a 09                	mov    cl,BYTE PTR [rcx]
    2fa4:	88 48 28             	mov    BYTE PTR [rax+0x28],cl
    2fa7:	48 8b 45 e8          	mov    rax,QWORD PTR [rbp-0x18]
    2fab:	48 8b 48 20          	mov    rcx,QWORD PTR [rax+0x20]
    2faf:	48 89 48 18          	mov    QWORD PTR [rax+0x18],rcx
    2fb3:	48 8b 48 20          	mov    rcx,QWORD PTR [rax+0x20]
    2fb7:	48 83 c1 01          	add    rcx,0x1
    2fbb:	48 89 48 20          	mov    QWORD PTR [rax+0x20],rcx
    2fbf:	48 83 c4 20          	add    rsp,0x20
    2fc3:	5d                   	pop    rbp
    2fc4:	c3                   	ret
    2fc5:	66 2e 0f 1f 84 00 00 	cs nop WORD PTR [rax+rax*1+0x0]
    2fcc:	00 00 00 
    2fcf:	90                   	nop

0000000000002fd0 <_ZN5lexer5Lexer10next_tokenEv>:
    2fd0:	55                   	push   rbp
    2fd1:	48 89 e5             	mov    rbp,rsp
    2fd4:	48 81 ec 90 00 00 00 	sub    rsp,0x90
    2fdb:	48 89 7d f0          	mov    QWORD PTR [rbp-0x10],rdi
    2fdf:	48 8b 7d f0          	mov    rdi,QWORD PTR [rbp-0x10]
    2fe3:	48 89 7d 80          	mov    QWORD PTR [rbp-0x80],rdi
    2fe7:	48 89 7d e8          	mov    QWORD PTR [rbp-0x18],rdi
    2feb:	48 89 7d e0          	mov    QWORD PTR [rbp-0x20],rdi
    2fef:	e8 cc 10 00 00       	call   40c0 <_ZN5lexer5Lexer15skip_whitespaceEv>
    2ff4:	48 8b 45 80          	mov    rax,QWORD PTR [rbp-0x80]
    2ff8:	0f be 40 28          	movsx  eax,BYTE PTR [rax+0x28]
    2ffc:	83 c0 df             	add    eax,0xffffffdf
    2fff:	89 c1                	mov    ecx,eax
    3001:	48 89 4d 88          	mov    QWORD PTR [rbp-0x78],rcx
    3005:	83 e8 5c             	sub    eax,0x5c
    3008:	0f 87 c8 00 00 00    	ja     30d6 <_ZN5lexer5Lexer10next_tokenEv+0x106>
    300e:	48 8b 45 88          	mov    rax,QWORD PTR [rbp-0x78]
    3012:	48 8d 0d eb 4f 00 00 	lea    rcx,[rip+0x4feb]        # 8004 <_IO_stdin_used+0x4>
    3019:	48 63 04 81          	movsxd rax,DWORD PTR [rcx+rax*4]
    301d:	48 01 c8             	add    rax,rcx
    3020:	ff e0                	jmp    rax
    3022:	c7 45 dc 05 00 00 00 	mov    DWORD PTR [rbp-0x24],0x5
    3029:	e9 de 01 00 00       	jmp    320c <_ZN5lexer5Lexer10next_tokenEv+0x23c>
    302e:	c7 45 dc 06 00 00 00 	mov    DWORD PTR [rbp-0x24],0x6
    3035:	e9 d2 01 00 00       	jmp    320c <_ZN5lexer5Lexer10next_tokenEv+0x23c>
    303a:	c7 45 dc 14 00 00 00 	mov    DWORD PTR [rbp-0x24],0x14
    3041:	e9 c6 01 00 00       	jmp    320c <_ZN5lexer5Lexer10next_tokenEv+0x23c>
    3046:	c7 45 dc 15 00 00 00 	mov    DWORD PTR [rbp-0x24],0x15
    304d:	e9 ba 01 00 00       	jmp    320c <_ZN5lexer5Lexer10next_tokenEv+0x23c>
    3052:	c7 45 dc 17 00 00 00 	mov    DWORD PTR [rbp-0x24],0x17
    3059:	e9 ae 01 00 00       	jmp    320c <_ZN5lexer5Lexer10next_tokenEv+0x23c>
    305e:	c7 45 dc 16 00 00 00 	mov    DWORD PTR [rbp-0x24],0x16
    3065:	e9 a2 01 00 00       	jmp    320c <_ZN5lexer5Lexer10next_tokenEv+0x23c>
    306a:	c7 45 dc 18 00 00 00 	mov    DWORD PTR [rbp-0x24],0x18
    3071:	e9 96 01 00 00       	jmp    320c <_ZN5lexer5Lexer10next_tokenEv+0x23c>
    3076:	c7 45 dc 19 00 00 00 	mov    DWORD PTR [rbp-0x24],0x19
    307d:	e9 8a 01 00 00       	jmp    320c <_ZN5lexer5Lexer10next_tokenEv+0x23c>
    3082:	c7 45 dc 08 00 00 00 	mov    DWORD PTR [rbp-0x24],0x8
    3089:	e9 7e 01 00 00       	jmp    320c <_ZN5lexer5Lexer10next_tokenEv+0x23c>
    308e:	c7 45 dc 09 00 00 00 	mov    DWORD PTR [rbp-0x24],0x9
    3095:	e9 72 01 00 00       	jmp    320c <_ZN5lexer5Lexer10next_tokenEv+0x23c>
    309a:	c7 45 dc 0a 00 00 00 	mov    DWORD PTR [rbp-0x24],0xa
    30a1:	e9 66 01 00 00       	jmp    320c <_ZN5lexer5Lexer10next_tokenEv+0x23c>
    30a6:	c7 45 dc 07 00 00 00 	mov    DWORD PTR [rbp-0x24],0x7
    30ad:	e9 5a 01 00 00       	jmp    320c <_ZN5lexer5Lexer10next_tokenEv+0x23c>
    30b2:	c7 45 dc 0b 00 00 00 	mov    DWORD PTR [rbp-0x24],0xb
    30b9:	e9 4e 01 00 00       	jmp    320c <_ZN5lexer5Lexer10next_tokenEv+0x23c>
    30be:	c7 45 dc 0c 00 00 00 	mov    DWORD PTR [rbp-0x24],0xc
    30c5:	e9 42 01 00 00       	jmp    320c <_ZN5lexer5Lexer10next_tokenEv+0x23c>
    30ca:	c7 45 dc 01 00 00 00 	mov    DWORD PTR [rbp-0x24],0x1
    30d1:	e9 36 01 00 00       	jmp    320c <_ZN5lexer5Lexer10next_tokenEv+0x23c>
    30d6:	48 8b 45 80          	mov    rax,QWORD PTR [rbp-0x80]
    30da:	0f be 78 28          	movsx  edi,BYTE PTR [rax+0x28]
    30de:	e8 3d 10 00 00       	call   4120 <_ZN5lexer5Lexer9is_letterEc>
    30e3:	a8 01                	test   al,0x1
    30e5:	0f 85 05 00 00 00    	jne    30f0 <_ZN5lexer5Lexer10next_tokenEv+0x120>
    30eb:	e9 c8 00 00 00       	jmp    31b8 <_ZN5lexer5Lexer10next_tokenEv+0x1e8>
    30f0:	48 8d 7d c0          	lea    rdi,[rbp-0x40]
    30f4:	48 89 bd 70 ff ff ff 	mov    QWORD PTR [rbp-0x90],rdi
    30fb:	48 8d 75 e8          	lea    rsi,[rbp-0x18]
    30ff:	e8 8c 10 00 00       	call   4190 <_ZZN5lexer5Lexer10next_tokenEvENKUlvE_clEv>
    3104:	48 8b bd 70 ff ff ff 	mov    rdi,QWORD PTR [rbp-0x90]
    310b:	e8 b0 11 00 00       	call   42c0 <_Z17get_keyword_tokenRKSt6vectorIcSaIcEE>
    3110:	89 85 7c ff ff ff    	mov    DWORD PTR [rbp-0x84],eax
    3116:	e9 00 00 00 00       	jmp    311b <_ZN5lexer5Lexer10next_tokenEv+0x14b>
    311b:	8b 85 7c ff ff ff    	mov    eax,DWORD PTR [rbp-0x84]
    3121:	89 45 fc             	mov    DWORD PTR [rbp-0x4],eax
    3124:	c7 45 b0 01 00 00 00 	mov    DWORD PTR [rbp-0x50],0x1
    312b:	e9 57 00 00 00       	jmp    3187 <_ZN5lexer5Lexer10next_tokenEv+0x1b7>
    3130:	48 89 c1             	mov    rcx,rax
    3133:	89 d0                	mov    eax,edx
    3135:	48 89 4d b8          	mov    QWORD PTR [rbp-0x48],rcx
    3139:	89 45 b4             	mov    DWORD PTR [rbp-0x4c],eax
    313c:	8b 45 b4             	mov    eax,DWORD PTR [rbp-0x4c]
    313f:	b9 01 00 00 00       	mov    ecx,0x1
    3144:	39 c8                	cmp    eax,ecx
    3146:	0f 85 5e 00 00 00    	jne    31aa <_ZN5lexer5Lexer10next_tokenEv+0x1da>
    314c:	48 8b 7d b8          	mov    rdi,QWORD PTR [rbp-0x48]
    3150:	e8 2b ef ff ff       	call   2080 <__cxa_begin_catch@plt>
    3155:	48 89 45 a8          	mov    QWORD PTR [rbp-0x58],rax
    3159:	c7 45 fc 02 00 00 00 	mov    DWORD PTR [rbp-0x4],0x2
    3160:	c7 45 b0 01 00 00 00 	mov    DWORD PTR [rbp-0x50],0x1
    3167:	e8 44 f1 ff ff       	call   22b0 <__cxa_end_catch@plt>
    316c:	e9 00 00 00 00       	jmp    3171 <_ZN5lexer5Lexer10next_tokenEv+0x1a1>
    3171:	e9 11 00 00 00       	jmp    3187 <_ZN5lexer5Lexer10next_tokenEv+0x1b7>
    3176:	48 89 c1             	mov    rcx,rax
    3179:	89 d0                	mov    eax,edx
    317b:	48 89 4d b8          	mov    QWORD PTR [rbp-0x48],rcx
    317f:	89 45 b4             	mov    DWORD PTR [rbp-0x4c],eax
    3182:	e9 23 00 00 00       	jmp    31aa <_ZN5lexer5Lexer10next_tokenEv+0x1da>
    3187:	48 8d 7d c0          	lea    rdi,[rbp-0x40]
    318b:	e8 20 01 00 00       	call   32b0 <_ZNSt6vectorIcSaIcEED2Ev>
    3190:	8b 45 b0             	mov    eax,DWORD PTR [rbp-0x50]
    3193:	85 c0                	test   eax,eax
    3195:	0f 84 0a 00 00 00    	je     31a5 <_ZN5lexer5Lexer10next_tokenEv+0x1d5>
    319b:	e9 00 00 00 00       	jmp    31a0 <_ZN5lexer5Lexer10next_tokenEv+0x1d0>
    31a0:	e9 76 00 00 00       	jmp    321b <_ZN5lexer5Lexer10next_tokenEv+0x24b>
    31a5:	e9 5d 00 00 00       	jmp    3207 <_ZN5lexer5Lexer10next_tokenEv+0x237>
    31aa:	48 8d 7d c0          	lea    rdi,[rbp-0x40]
    31ae:	e8 fd 00 00 00       	call   32b0 <_ZNSt6vectorIcSaIcEED2Ev>
    31b3:	e9 6f 00 00 00       	jmp    3227 <_ZN5lexer5Lexer10next_tokenEv+0x257>
    31b8:	48 8b 45 80          	mov    rax,QWORD PTR [rbp-0x80]
    31bc:	0f be 78 28          	movsx  edi,BYTE PTR [rax+0x28]
    31c0:	e8 5b 12 00 00       	call   4420 <_ZN5lexer5Lexer8is_digitEc>
    31c5:	a8 01                	test   al,0x1
    31c7:	0f 85 05 00 00 00    	jne    31d2 <_ZN5lexer5Lexer10next_tokenEv+0x202>
    31cd:	e9 29 00 00 00       	jmp    31fb <_ZN5lexer5Lexer10next_tokenEv+0x22b>
    31d2:	48 8d 7d 90          	lea    rdi,[rbp-0x70]
    31d6:	48 8d 75 e0          	lea    rsi,[rbp-0x20]
    31da:	e8 81 12 00 00       	call   4460 <_ZZN5lexer5Lexer10next_tokenEvENKUlvE0_clEv>
    31df:	c7 45 fc 03 00 00 00 	mov    DWORD PTR [rbp-0x4],0x3
    31e6:	c7 45 b0 01 00 00 00 	mov    DWORD PTR [rbp-0x50],0x1
    31ed:	48 8d 7d 90          	lea    rdi,[rbp-0x70]
    31f1:	e8 ba 00 00 00       	call   32b0 <_ZNSt6vectorIcSaIcEED2Ev>
    31f6:	e9 20 00 00 00       	jmp    321b <_ZN5lexer5Lexer10next_tokenEv+0x24b>
    31fb:	c7 45 fc 00 00 00 00 	mov    DWORD PTR [rbp-0x4],0x0
    3202:	e9 14 00 00 00       	jmp    321b <_ZN5lexer5Lexer10next_tokenEv+0x24b>
    3207:	e9 00 00 00 00       	jmp    320c <_ZN5lexer5Lexer10next_tokenEv+0x23c>
    320c:	48 8b 7d 80          	mov    rdi,QWORD PTR [rbp-0x80]
    3210:	e8 3b fd ff ff       	call   2f50 <_ZN5lexer5Lexer9read_charEv>
    3215:	8b 45 dc             	mov    eax,DWORD PTR [rbp-0x24]
    3218:	89 45 fc             	mov    DWORD PTR [rbp-0x4],eax
    321b:	8b 45 fc             	mov    eax,DWORD PTR [rbp-0x4]
    321e:	48 81 c4 90 00 00 00 	add    rsp,0x90
    3225:	5d                   	pop    rbp
    3226:	c3                   	ret
    3227:	48 8b 7d b8          	mov    rdi,QWORD PTR [rbp-0x48]
    322b:	e8 b0 f0 ff ff       	call   22e0 <_Unwind_Resume@plt>

0000000000003230 <_ZNK5lexer5Lexer6get_chEv>:
    3230:	55                   	push   rbp
    3231:	48 89 e5             	mov    rbp,rsp
    3234:	48 89 7d f8          	mov    QWORD PTR [rbp-0x8],rdi
    3238:	48 8b 45 f8          	mov    rax,QWORD PTR [rbp-0x8]
    323c:	0f be 40 28          	movsx  eax,BYTE PTR [rax+0x28]
    3240:	5d                   	pop    rbp
    3241:	c3                   	ret
    3242:	66 2e 0f 1f 84 00 00 	cs nop WORD PTR [rax+rax*1+0x0]
    3249:	00 00 00 
    324c:	0f 1f 40 00          	nop    DWORD PTR [rax+0x0]

0000000000003250 <_ZNK5lexer5Lexer12get_positionEv>:
    3250:	55                   	push   rbp
    3251:	48 89 e5             	mov    rbp,rsp
    3254:	48 89 7d f8          	mov    QWORD PTR [rbp-0x8],rdi
    3258:	48 8b 45 f8          	mov    rax,QWORD PTR [rbp-0x8]
    325c:	48 8b 40 18          	mov    rax,QWORD PTR [rax+0x18]
    3260:	5d                   	pop    rbp
    3261:	c3                   	ret
    3262:	66 2e 0f 1f 84 00 00 	cs nop WORD PTR [rax+rax*1+0x0]
    3269:	00 00 00 
    326c:	0f 1f 40 00          	nop    DWORD PTR [rax+0x0]

0000000000003270 <_ZNK5lexer5Lexer17get_read_positionEv>:
    3270:	55                   	push   rbp
    3271:	48 89 e5             	mov    rbp,rsp
    3274:	48 89 7d f8          	mov    QWORD PTR [rbp-0x8],rdi
    3278:	48 8b 45 f8          	mov    rax,QWORD PTR [rbp-0x8]
    327c:	48 8b 40 20          	mov    rax,QWORD PTR [rax+0x20]
    3280:	5d                   	pop    rbp
    3281:	c3                   	ret
    3282:	66 2e 0f 1f 84 00 00 	cs nop WORD PTR [rax+rax*1+0x0]
    3289:	00 00 00 
    328c:	0f 1f 40 00          	nop    DWORD PTR [rax+0x0]

0000000000003290 <_ZN5lexer5LexerD2Ev>:
    3290:	55                   	push   rbp
    3291:	48 89 e5             	mov    rbp,rsp
    3294:	48 83 ec 10          	sub    rsp,0x10
    3298:	48 89 7d f8          	mov    QWORD PTR [rbp-0x8],rdi
    329c:	48 8b 7d f8          	mov    rdi,QWORD PTR [rbp-0x8]
    32a0:	e8 0b 00 00 00       	call   32b0 <_ZNSt6vectorIcSaIcEED2Ev>
    32a5:	48 83 c4 10          	add    rsp,0x10
    32a9:	5d                   	pop    rbp
    32aa:	c3                   	ret
    32ab:	0f 1f 44 00 00       	nop    DWORD PTR [rax+rax*1+0x0]

00000000000032b0 <_ZNSt6vectorIcSaIcEED2Ev>:
    32b0:	55                   	push   rbp
    32b1:	48 89 e5             	mov    rbp,rsp
    32b4:	48 83 ec 20          	sub    rsp,0x20
    32b8:	48 89 7d f8          	mov    QWORD PTR [rbp-0x8],rdi
    32bc:	48 8b 7d f8          	mov    rdi,QWORD PTR [rbp-0x8]
    32c0:	48 89 7d e0          	mov    QWORD PTR [rbp-0x20],rdi
    32c4:	48 8b 07             	mov    rax,QWORD PTR [rdi]
    32c7:	48 89 45 e8          	mov    QWORD PTR [rbp-0x18],rax
    32cb:	48 8b 47 08          	mov    rax,QWORD PTR [rdi+0x8]
    32cf:	48 89 45 f0          	mov    QWORD PTR [rbp-0x10],rax
    32d3:	e8 18 08 00 00       	call   3af0 <_ZNSt12_Vector_baseIcSaIcEE19_M_get_Tp_allocatorEv>
    32d8:	48 8b 7d e8          	mov    rdi,QWORD PTR [rbp-0x18]
    32dc:	48 8b 75 f0          	mov    rsi,QWORD PTR [rbp-0x10]
    32e0:	48 89 c2             	mov    rdx,rax
    32e3:	e8 f8 3b 00 00       	call   6ee0 <_ZSt8_DestroyIPccEvT_S1_RSaIT0_E>
    32e8:	e9 00 00 00 00       	jmp    32ed <_ZNSt6vectorIcSaIcEED2Ev+0x3d>
    32ed:	48 8b 7d e0          	mov    rdi,QWORD PTR [rbp-0x20]
    32f1:	e8 0a 08 00 00       	call   3b00 <_ZNSt12_Vector_baseIcSaIcEED2Ev>
    32f6:	48 83 c4 20          	add    rsp,0x20
    32fa:	5d                   	pop    rbp
    32fb:	c3                   	ret
    32fc:	48 89 c7             	mov    rdi,rax
    32ff:	e8 ec 00 00 00       	call   33f0 <__clang_call_terminate>
    3304:	66 2e 0f 1f 84 00 00 	cs nop WORD PTR [rax+rax*1+0x0]
    330b:	00 00 00 
    330e:	66 90                	xchg   ax,ax

0000000000003310 <_ZNSt10_HashtableINSt7__cxx1112basic_stringIcSt11char_traitsIcESaIcEEESt4pairIKS5_5TokenESaIS9_ENSt8__detail10_Select1stESt8equal_toIS5_ESt4hashIS5_ENSB_18_Mod_range_hashingENSB_20_Default_ranged_hashENSB_20_Prime_rehash_policyENSB_17_Hashtable_traitsILb1ELb0ELb1EEEED2Ev>:
    3310:	55                   	push   rbp
    3311:	48 89 e5             	mov    rbp,rsp
    3314:	48 83 ec 10          	sub    rsp,0x10
    3318:	48 89 7d f8          	mov    QWORD PTR [rbp-0x8],rdi
    331c:	48 8b 7d f8          	mov    rdi,QWORD PTR [rbp-0x8]
    3320:	48 89 7d f0          	mov    QWORD PTR [rbp-0x10],rdi
    3324:	e8 27 00 00 00       	call   3350 <_ZNSt10_HashtableINSt7__cxx1112basic_stringIcSt11char_traitsIcESaIcEEESt4pairIKS5_5TokenESaIS9_ENSt8__detail10_Select1stESt8equal_toIS5_ESt4hashIS5_ENSB_18_Mod_range_hashingENSB_20_Default_ranged_hashENSB_20_Prime_rehash_policyENSB_17_Hashtable_traitsILb1ELb0ELb1EEEE5clearEv>
    3329:	48 8b 7d f0          	mov    rdi,QWORD PTR [rbp-0x10]
    332d:	e8 8e 00 00 00       	call   33c0 <_ZNSt10_HashtableINSt7__cxx1112basic_stringIcSt11char_traitsIcESaIcEEESt4pairIKS5_5TokenESaIS9_ENSt8__detail10_Select1stESt8equal_toIS5_ESt4hashIS5_ENSB_18_Mod_range_hashingENSB_20_Default_ranged_hashENSB_20_Prime_rehash_policyENSB_17_Hashtable_traitsILb1ELb0ELb1EEEE21_M_deallocate_bucketsEv>
    3332:	e9 00 00 00 00       	jmp    3337 <_ZNSt10_HashtableINSt7__cxx1112basic_stringIcSt11char_traitsIcESaIcEEESt4pairIKS5_5TokenESaIS9_ENSt8__detail10_Select1stESt8equal_toIS5_ESt4hashIS5_ENSB_18_Mod_range_hashingENSB_20_Default_ranged_hashENSB_20_Prime_rehash_policyENSB_17_Hashtable_traitsILb1ELb0ELb1EEEED2Ev+0x27>
    3337:	48 8b 7d f0          	mov    rdi,QWORD PTR [rbp-0x10]
    333b:	e8 c0 00 00 00       	call   3400 <_ZNSt8__detail16_Hashtable_allocISaINS_10_Hash_nodeISt4pairIKNSt7__cxx1112basic_stringIcSt11char_traitsIcESaIcEEE5TokenELb1EEEEED2Ev>
    3340:	48 83 c4 10          	add    rsp,0x10
    3344:	5d                   	pop    rbp
    3345:	c3                   	ret
    3346:	48 89 c7             	mov    rdi,rax
    3349:	e8 a2 00 00 00       	call   33f0 <__clang_call_terminate>
    334e:	66 90                	xchg   ax,ax

0000000000003350 <_ZNSt10_HashtableINSt7__cxx1112basic_stringIcSt11char_traitsIcESaIcEEESt4pairIKS5_5TokenESaIS9_ENSt8__detail10_Select1stESt8equal_toIS5_ESt4hashIS5_ENSB_18_Mod_range_hashingENSB_20_Default_ranged_hashENSB_20_Prime_rehash_policyENSB_17_Hashtable_traitsILb1ELb0ELb1EEEE5clearEv>:
    3350:	55                   	push   rbp
    3351:	48 89 e5             	mov    rbp,rsp
    3354:	48 83 ec 20          	sub    rsp,0x20
    3358:	48 89 7d f8          	mov    QWORD PTR [rbp-0x8],rdi
    335c:	48 8b 7d f8          	mov    rdi,QWORD PTR [rbp-0x8]
    3360:	48 89 7d e8          	mov    QWORD PTR [rbp-0x18],rdi
    3364:	e8 07 01 00 00       	call   3470 <_ZNKSt10_HashtableINSt7__cxx1112basic_stringIcSt11char_traitsIcESaIcEEESt4pairIKS5_5TokenESaIS9_ENSt8__detail10_Select1stESt8equal_toIS5_ESt4hashIS5_ENSB_18_Mod_range_hashingENSB_20_Default_ranged_hashENSB_20_Prime_rehash_policyENSB_17_Hashtable_traitsILb1ELb0ELb1EEEE8_M_beginEv>
    3369:	48 89 45 f0          	mov    QWORD PTR [rbp-0x10],rax
    336d:	e9 00 00 00 00       	jmp    3372 <_ZNSt10_HashtableINSt7__cxx1112basic_stringIcSt11char_traitsIcESaIcEEESt4pairIKS5_5TokenESaIS9_ENSt8__detail10_Select1stESt8equal_toIS5_ESt4hashIS5_ENSB_18_Mod_range_hashingENSB_20_Default_ranged_hashENSB_20_Prime_rehash_policyENSB_17_Hashtable_traitsILb1ELb0ELb1EEEE5clearEv+0x22>
    3372:	48 8b 75 f0          	mov    rsi,QWORD PTR [rbp-0x10]
    3376:	48 8b 7d e8          	mov    rdi,QWORD PTR [rbp-0x18]
    337a:	e8 a1 00 00 00       	call   3420 <_ZNSt8__detail16_Hashtable_allocISaINS_10_Hash_nodeISt4pairIKNSt7__cxx1112basic_stringIcSt11char_traitsIcESaIcEEE5TokenELb1EEEEE19_M_deallocate_nodesEPSC_>
    337f:	e9 00 00 00 00       	jmp    3384 <_ZNSt10_HashtableINSt7__cxx1112basic_stringIcSt11char_traitsIcESaIcEEESt4pairIKS5_5TokenESaIS9_ENSt8__detail10_Select1stESt8equal_toIS5_ESt4hashIS5_ENSB_18_Mod_range_hashingENSB_20_Default_ranged_hashENSB_20_Prime_rehash_policyENSB_17_Hashtable_traitsILb1ELb0ELb1EEEE5clearEv+0x34>
    3384:	48 8b 45 e8          	mov    rax,QWORD PTR [rbp-0x18]
    3388:	48 8b 38             	mov    rdi,QWORD PTR [rax]
    338b:	48 8b 50 08          	mov    rdx,QWORD PTR [rax+0x8]
    338f:	48 c1 e2 03          	shl    rdx,0x3
    3393:	31 f6                	xor    esi,esi
    3395:	e8 36 ed ff ff       	call   20d0 <memset@plt>
    339a:	48 8b 45 e8          	mov    rax,QWORD PTR [rbp-0x18]
    339e:	48 c7 40 18 00 00 00 	mov    QWORD PTR [rax+0x18],0x0
    33a5:	00 
    33a6:	48 c7 40 10 00 00 00 	mov    QWORD PTR [rax+0x10],0x0
    33ad:	00 
    33ae:	48 83 c4 20          	add    rsp,0x20
    33b2:	5d                   	pop    rbp
    33b3:	c3                   	ret
    33b4:	48 89 c7             	mov    rdi,rax
    33b7:	e8 34 00 00 00       	call   33f0 <__clang_call_terminate>
    33bc:	0f 1f 40 00          	nop    DWORD PTR [rax+0x0]

00000000000033c0 <_ZNSt10_HashtableINSt7__cxx1112basic_stringIcSt11char_traitsIcESaIcEEESt4pairIKS5_5TokenESaIS9_ENSt8__detail10_Select1stESt8equal_toIS5_ESt4hashIS5_ENSB_18_Mod_range_hashingENSB_20_Default_ranged_hashENSB_20_Prime_rehash_policyENSB_17_Hashtable_traitsILb1ELb0ELb1EEEE21_M_deallocate_bucketsEv>:
    33c0:	55                   	push   rbp
    33c1:	48 89 e5             	mov    rbp,rsp
    33c4:	48 83 ec 10          	sub    rsp,0x10
    33c8:	48 89 7d f8          	mov    QWORD PTR [rbp-0x8],rdi
    33cc:	48 8b 7d f8          	mov    rdi,QWORD PTR [rbp-0x8]
    33d0:	48 8b 37             	mov    rsi,QWORD PTR [rdi]
    33d3:	48 8b 57 08          	mov    rdx,QWORD PTR [rdi+0x8]
    33d7:	e8 b4 02 00 00       	call   3690 <_ZNSt10_HashtableINSt7__cxx1112basic_stringIcSt11char_traitsIcESaIcEEESt4pairIKS5_5TokenESaIS9_ENSt8__detail10_Select1stESt8equal_toIS5_ESt4hashIS5_ENSB_18_Mod_range_hashingENSB_20_Default_ranged_hashENSB_20_Prime_rehash_policyENSB_17_Hashtable_traitsILb1ELb0ELb1EEEE21_M_deallocate_bucketsEPPNSB_15_Hash_node_baseEm>
    33dc:	48 83 c4 10          	add    rsp,0x10
    33e0:	5d                   	pop    rbp
    33e1:	c3                   	ret
    33e2:	66 2e 0f 1f 84 00 00 	cs nop WORD PTR [rax+rax*1+0x0]
    33e9:	00 00 00 
    33ec:	0f 1f 40 00          	nop    DWORD PTR [rax+0x0]

00000000000033f0 <__clang_call_terminate>:
    33f0:	50                   	push   rax
    33f1:	e8 8a ec ff ff       	call   2080 <__cxa_begin_catch@plt>
    33f6:	e8 65 ec ff ff       	call   2060 <_ZSt9terminatev@plt>
    33fb:	0f 1f 44 00 00       	nop    DWORD PTR [rax+rax*1+0x0]

0000000000003400 <_ZNSt8__detail16_Hashtable_allocISaINS_10_Hash_nodeISt4pairIKNSt7__cxx1112basic_stringIcSt11char_traitsIcESaIcEEE5TokenELb1EEEEED2Ev>:
    3400:	55                   	push   rbp
    3401:	48 89 e5             	mov    rbp,rsp
    3404:	48 83 ec 10          	sub    rsp,0x10
    3408:	48 89 7d f8          	mov    QWORD PTR [rbp-0x8],rdi
    340c:	48 8b 7d f8          	mov    rdi,QWORD PTR [rbp-0x8]
    3410:	e8 5b 04 00 00       	call   3870 <_ZNSt8__detail21_Hashtable_ebo_helperILi0ESaINS_10_Hash_nodeISt4pairIKNSt7__cxx1112basic_stringIcSt11char_traitsIcESaIcEEE5TokenELb1EEEELb1EED2Ev>
    3415:	48 83 c4 10          	add    rsp,0x10
    3419:	5d                   	pop    rbp
    341a:	c3                   	ret
    341b:	0f 1f 44 00 00       	nop    DWORD PTR [rax+rax*1+0x0]

0000000000003420 <_ZNSt8__detail16_Hashtable_allocISaINS_10_Hash_nodeISt4pairIKNSt7__cxx1112basic_stringIcSt11char_traitsIcESaIcEEE5TokenELb1EEEEE19_M_deallocate_nodesEPSC_>:
    3420:	55                   	push   rbp
    3421:	48 89 e5             	mov    rbp,rsp
    3424:	48 83 ec 20          	sub    rsp,0x20
    3428:	48 89 7d f8          	mov    QWORD PTR [rbp-0x8],rdi
    342c:	48 89 75 f0          	mov    QWORD PTR [rbp-0x10],rsi
    3430:	48 8b 45 f8          	mov    rax,QWORD PTR [rbp-0x8]
    3434:	48 89 45 e0          	mov    QWORD PTR [rbp-0x20],rax
    3438:	48 83 7d f0 00       	cmp    QWORD PTR [rbp-0x10],0x0
    343d:	0f 84 27 00 00 00    	je     346a <_ZNSt8__detail16_Hashtable_allocISaINS_10_Hash_nodeISt4pairIKNSt7__cxx1112basic_stringIcSt11char_traitsIcESaIcEEE5TokenELb1EEEEE19_M_deallocate_nodesEPSC_+0x4a>
    3443:	48 8b 45 f0          	mov    rax,QWORD PTR [rbp-0x10]
    3447:	48 89 45 e8          	mov    QWORD PTR [rbp-0x18],rax
    344b:	48 8b 7d f0          	mov    rdi,QWORD PTR [rbp-0x10]
    344f:	e8 3c 00 00 00       	call   3490 <_ZNKSt8__detail10_Hash_nodeISt4pairIKNSt7__cxx1112basic_stringIcSt11char_traitsIcESaIcEEE5TokenELb1EE7_M_nextEv>
    3454:	48 8b 7d e0          	mov    rdi,QWORD PTR [rbp-0x20]
    3458:	48 89 45 f0          	mov    QWORD PTR [rbp-0x10],rax
    345c:	48 8b 75 e8          	mov    rsi,QWORD PTR [rbp-0x18]
    3460:	e8 4b 00 00 00       	call   34b0 <_ZNSt8__detail16_Hashtable_allocISaINS_10_Hash_nodeISt4pairIKNSt7__cxx1112basic_stringIcSt11char_traitsIcESaIcEEE5TokenELb1EEEEE18_M_deallocate_nodeEPSC_>
    3465:	e9 ce ff ff ff       	jmp    3438 <_ZNSt8__detail16_Hashtable_allocISaINS_10_Hash_nodeISt4pairIKNSt7__cxx1112basic_stringIcSt11char_traitsIcESaIcEEE5TokenELb1EEEEE19_M_deallocate_nodesEPSC_+0x18>
    346a:	48 83 c4 20          	add    rsp,0x20
    346e:	5d                   	pop    rbp
    346f:	c3                   	ret

0000000000003470 <_ZNKSt10_HashtableINSt7__cxx1112basic_stringIcSt11char_traitsIcESaIcEEESt4pairIKS5_5TokenESaIS9_ENSt8__detail10_Select1stESt8equal_toIS5_ESt4hashIS5_ENSB_18_Mod_range_hashingENSB_20_Default_ranged_hashENSB_20_Prime_rehash_policyENSB_17_Hashtable_traitsILb1ELb0ELb1EEEE8_M_beginEv>:
    3470:	55                   	push   rbp
    3471:	48 89 e5             	mov    rbp,rsp
    3474:	48 89 7d f8          	mov    QWORD PTR [rbp-0x8],rdi
    3478:	48 8b 45 f8          	mov    rax,QWORD PTR [rbp-0x8]
    347c:	48 8b 40 10          	mov    rax,QWORD PTR [rax+0x10]
    3480:	5d                   	pop    rbp
    3481:	c3                   	ret
    3482:	66 2e 0f 1f 84 00 00 	cs nop WORD PTR [rax+rax*1+0x0]
    3489:	00 00 00 
    348c:	0f 1f 40 00          	nop    DWORD PTR [rax+0x0]

0000000000003490 <_ZNKSt8__detail10_Hash_nodeISt4pairIKNSt7__cxx1112basic_stringIcSt11char_traitsIcESaIcEEE5TokenELb1EE7_M_nextEv>:
    3490:	55                   	push   rbp
    3491:	48 89 e5             	mov    rbp,rsp
    3494:	48 89 7d f8          	mov    QWORD PTR [rbp-0x8],rdi
    3498:	48 8b 45 f8          	mov    rax,QWORD PTR [rbp-0x8]
    349c:	48 8b 00             	mov    rax,QWORD PTR [rax]
    349f:	5d                   	pop    rbp
    34a0:	c3                   	ret
    34a1:	66 2e 0f 1f 84 00 00 	cs nop WORD PTR [rax+rax*1+0x0]
    34a8:	00 00 00 
    34ab:	0f 1f 44 00 00       	nop    DWORD PTR [rax+rax*1+0x0]

00000000000034b0 <_ZNSt8__detail16_Hashtable_allocISaINS_10_Hash_nodeISt4pairIKNSt7__cxx1112basic_stringIcSt11char_traitsIcESaIcEEE5TokenELb1EEEEE18_M_deallocate_nodeEPSC_>:
    34b0:	55                   	push   rbp
    34b1:	48 89 e5             	mov    rbp,rsp
    34b4:	48 83 ec 20          	sub    rsp,0x20
    34b8:	48 89 7d f8          	mov    QWORD PTR [rbp-0x8],rdi
    34bc:	48 89 75 f0          	mov    QWORD PTR [rbp-0x10],rsi
    34c0:	48 8b 7d f8          	mov    rdi,QWORD PTR [rbp-0x8]
    34c4:	48 89 7d e8          	mov    QWORD PTR [rbp-0x18],rdi
    34c8:	e8 63 00 00 00       	call   3530 <_ZNSt8__detail16_Hashtable_allocISaINS_10_Hash_nodeISt4pairIKNSt7__cxx1112basic_stringIcSt11char_traitsIcESaIcEEE5TokenELb1EEEEE17_M_node_allocatorEv>
    34cd:	48 89 45 e0          	mov    QWORD PTR [rbp-0x20],rax
    34d1:	48 8b 7d f0          	mov    rdi,QWORD PTR [rbp-0x10]
    34d5:	48 83 c7 08          	add    rdi,0x8
    34d9:	e8 72 00 00 00       	call   3550 <_ZNSt8__detail21_Hash_node_value_baseISt4pairIKNSt7__cxx1112basic_stringIcSt11char_traitsIcESaIcEEE5TokenEE9_M_valptrEv>
    34de:	48 8b 7d e0          	mov    rdi,QWORD PTR [rbp-0x20]
    34e2:	48 89 c6             	mov    rsi,rax
    34e5:	e8 16 00 00 00       	call   3500 <_ZNSt16allocator_traitsISaINSt8__detail10_Hash_nodeISt4pairIKNSt7__cxx1112basic_stringIcSt11char_traitsIcESaIcEEE5TokenELb1EEEEE7destroyISB_EEvRSD_PT_>
    34ea:	48 8b 7d e8          	mov    rdi,QWORD PTR [rbp-0x18]
    34ee:	48 8b 75 f0          	mov    rsi,QWORD PTR [rbp-0x10]
    34f2:	e8 79 00 00 00       	call   3570 <_ZNSt8__detail16_Hashtable_allocISaINS_10_Hash_nodeISt4pairIKNSt7__cxx1112basic_stringIcSt11char_traitsIcESaIcEEE5TokenELb1EEEEE22_M_deallocate_node_ptrEPSC_>
    34f7:	48 83 c4 20          	add    rsp,0x20
    34fb:	5d                   	pop    rbp
    34fc:	c3                   	ret
    34fd:	0f 1f 00             	nop    DWORD PTR [rax]

0000000000003500 <_ZNSt16allocator_traitsISaINSt8__detail10_Hash_nodeISt4pairIKNSt7__cxx1112basic_stringIcSt11char_traitsIcESaIcEEE5TokenELb1EEEEE7destroyISB_EEvRSD_PT_>:
    3500:	55                   	push   rbp
    3501:	48 89 e5             	mov    rbp,rsp
    3504:	48 83 ec 10          	sub    rsp,0x10
    3508:	48 89 7d f8          	mov    QWORD PTR [rbp-0x8],rdi
    350c:	48 89 75 f0          	mov    QWORD PTR [rbp-0x10],rsi
    3510:	48 8b 7d f8          	mov    rdi,QWORD PTR [rbp-0x8]
    3514:	48 8b 75 f0          	mov    rsi,QWORD PTR [rbp-0x10]
    3518:	e8 a3 00 00 00       	call   35c0 <_ZNSt15__new_allocatorINSt8__detail10_Hash_nodeISt4pairIKNSt7__cxx1112basic_stringIcSt11char_traitsIcESaIcEEE5TokenELb1EEEE7destroyISB_EEvPT_>
    351d:	48 83 c4 10          	add    rsp,0x10
    3521:	5d                   	pop    rbp
    3522:	c3                   	ret
    3523:	66 2e 0f 1f 84 00 00 	cs nop WORD PTR [rax+rax*1+0x0]
    352a:	00 00 00 
    352d:	0f 1f 00             	nop    DWORD PTR [rax]

0000000000003530 <_ZNSt8__detail16_Hashtable_allocISaINS_10_Hash_nodeISt4pairIKNSt7__cxx1112basic_stringIcSt11char_traitsIcESaIcEEE5TokenELb1EEEEE17_M_node_allocatorEv>:
    3530:	55                   	push   rbp
    3531:	48 89 e5             	mov    rbp,rsp
    3534:	48 83 ec 10          	sub    rsp,0x10
    3538:	48 89 7d f8          	mov    QWORD PTR [rbp-0x8],rdi
    353c:	48 8b 7d f8          	mov    rdi,QWORD PTR [rbp-0x8]
    3540:	e8 9b 00 00 00       	call   35e0 <_ZNSt8__detail21_Hashtable_ebo_helperILi0ESaINS_10_Hash_nodeISt4pairIKNSt7__cxx1112basic_stringIcSt11char_traitsIcESaIcEEE5TokenELb1EEEELb1EE6_M_getEv>
    3545:	48 83 c4 10          	add    rsp,0x10
    3549:	5d                   	pop    rbp
    354a:	c3                   	ret
    354b:	0f 1f 44 00 00       	nop    DWORD PTR [rax+rax*1+0x0]

0000000000003550 <_ZNSt8__detail21_Hash_node_value_baseISt4pairIKNSt7__cxx1112basic_stringIcSt11char_traitsIcESaIcEEE5TokenEE9_M_valptrEv>:
    3550:	55                   	push   rbp
    3551:	48 89 e5             	mov    rbp,rsp
    3554:	48 83 ec 10          	sub    rsp,0x10
    3558:	48 89 7d f8          	mov    QWORD PTR [rbp-0x8],rdi
    355c:	48 8b 7d f8          	mov    rdi,QWORD PTR [rbp-0x8]
    3560:	e8 8b 00 00 00       	call   35f0 <_ZN9__gnu_cxx16__aligned_bufferISt4pairIKNSt7__cxx1112basic_stringIcSt11char_traitsIcESaIcEEE5TokenEE6_M_ptrEv>
    3565:	48 83 c4 10          	add    rsp,0x10
    3569:	5d                   	pop    rbp
    356a:	c3                   	ret
    356b:	0f 1f 44 00 00       	nop    DWORD PTR [rax+rax*1+0x0]

0000000000003570 <_ZNSt8__detail16_Hashtable_allocISaINS_10_Hash_nodeISt4pairIKNSt7__cxx1112basic_stringIcSt11char_traitsIcESaIcEEE5TokenELb1EEEEE22_M_deallocate_node_ptrEPSC_>:
    3570:	55                   	push   rbp
    3571:	48 89 e5             	mov    rbp,rsp
    3574:	48 83 ec 20          	sub    rsp,0x20
    3578:	48 89 7d f8          	mov    QWORD PTR [rbp-0x8],rdi
    357c:	48 89 75 f0          	mov    QWORD PTR [rbp-0x10],rsi
    3580:	48 8b 45 f8          	mov    rax,QWORD PTR [rbp-0x8]
    3584:	48 89 45 e0          	mov    QWORD PTR [rbp-0x20],rax
    3588:	48 8b 7d f0          	mov    rdi,QWORD PTR [rbp-0x10]
    358c:	e8 8f 00 00 00       	call   3620 <_ZNSt19__ptr_traits_ptr_toIPNSt8__detail10_Hash_nodeISt4pairIKNSt7__cxx1112basic_stringIcSt11char_traitsIcESaIcEEE5TokenELb1EEESC_Lb0EE10pointer_toERSC_>
    3591:	48 8b 7d e0          	mov    rdi,QWORD PTR [rbp-0x20]
    3595:	48 89 45 e8          	mov    QWORD PTR [rbp-0x18],rax
    3599:	e8 92 ff ff ff       	call   3530 <_ZNSt8__detail16_Hashtable_allocISaINS_10_Hash_nodeISt4pairIKNSt7__cxx1112basic_stringIcSt11char_traitsIcESaIcEEE5TokenELb1EEEEE17_M_node_allocatorEv>
    359e:	48 89 c7             	mov    rdi,rax
    35a1:	48 8b 75 e8          	mov    rsi,QWORD PTR [rbp-0x18]
    35a5:	ba 01 00 00 00       	mov    edx,0x1
    35aa:	e8 81 00 00 00       	call   3630 <_ZNSt16allocator_traitsISaINSt8__detail10_Hash_nodeISt4pairIKNSt7__cxx1112basic_stringIcSt11char_traitsIcESaIcEEE5TokenELb1EEEEE10deallocateERSD_PSC_m>
    35af:	48 83 c4 20          	add    rsp,0x20
    35b3:	5d                   	pop    rbp
    35b4:	c3                   	ret
    35b5:	66 2e 0f 1f 84 00 00 	cs nop WORD PTR [rax+rax*1+0x0]
    35bc:	00 00 00 
    35bf:	90                   	nop

00000000000035c0 <_ZNSt15__new_allocatorINSt8__detail10_Hash_nodeISt4pairIKNSt7__cxx1112basic_stringIcSt11char_traitsIcESaIcEEE5TokenELb1EEEE7destroyISB_EEvPT_>:
    35c0:	55                   	push   rbp
    35c1:	48 89 e5             	mov    rbp,rsp
    35c4:	48 83 ec 10          	sub    rsp,0x10
    35c8:	48 89 7d f8          	mov    QWORD PTR [rbp-0x8],rdi
    35cc:	48 89 75 f0          	mov    QWORD PTR [rbp-0x10],rsi
    35d0:	48 8b 7d f0          	mov    rdi,QWORD PTR [rbp-0x10]
    35d4:	e8 c7 f7 ff ff       	call   2da0 <_ZNSt4pairIKNSt7__cxx1112basic_stringIcSt11char_traitsIcESaIcEEE5TokenED2Ev>
    35d9:	48 83 c4 10          	add    rsp,0x10
    35dd:	5d                   	pop    rbp
    35de:	c3                   	ret
    35df:	90                   	nop

00000000000035e0 <_ZNSt8__detail21_Hashtable_ebo_helperILi0ESaINS_10_Hash_nodeISt4pairIKNSt7__cxx1112basic_stringIcSt11char_traitsIcESaIcEEE5TokenELb1EEEELb1EE6_M_getEv>:
    35e0:	55                   	push   rbp
    35e1:	48 89 e5             	mov    rbp,rsp
    35e4:	48 89 7d f8          	mov    QWORD PTR [rbp-0x8],rdi
    35e8:	48 8b 45 f8          	mov    rax,QWORD PTR [rbp-0x8]
    35ec:	5d                   	pop    rbp
    35ed:	c3                   	ret
    35ee:	66 90                	xchg   ax,ax

00000000000035f0 <_ZN9__gnu_cxx16__aligned_bufferISt4pairIKNSt7__cxx1112basic_stringIcSt11char_traitsIcESaIcEEE5TokenEE6_M_ptrEv>:
    35f0:	55                   	push   rbp
    35f1:	48 89 e5             	mov    rbp,rsp
    35f4:	48 83 ec 10          	sub    rsp,0x10
    35f8:	48 89 7d f8          	mov    QWORD PTR [rbp-0x8],rdi
    35fc:	48 8b 7d f8          	mov    rdi,QWORD PTR [rbp-0x8]
    3600:	e8 0b 00 00 00       	call   3610 <_ZN9__gnu_cxx16__aligned_bufferISt4pairIKNSt7__cxx1112basic_stringIcSt11char_traitsIcESaIcEEE5TokenEE7_M_addrEv>
    3605:	48 83 c4 10          	add    rsp,0x10
    3609:	5d                   	pop    rbp
    360a:	c3                   	ret
    360b:	0f 1f 44 00 00       	nop    DWORD PTR [rax+rax*1+0x0]

0000000000003610 <_ZN9__gnu_cxx16__aligned_bufferISt4pairIKNSt7__cxx1112basic_stringIcSt11char_traitsIcESaIcEEE5TokenEE7_M_addrEv>:
    3610:	55                   	push   rbp
    3611:	48 89 e5             	mov    rbp,rsp
    3614:	48 89 7d f8          	mov    QWORD PTR [rbp-0x8],rdi
    3618:	48 8b 45 f8          	mov    rax,QWORD PTR [rbp-0x8]
    361c:	5d                   	pop    rbp
    361d:	c3                   	ret
    361e:	66 90                	xchg   ax,ax

0000000000003620 <_ZNSt19__ptr_traits_ptr_toIPNSt8__detail10_Hash_nodeISt4pairIKNSt7__cxx1112basic_stringIcSt11char_traitsIcESaIcEEE5TokenELb1EEESC_Lb0EE10pointer_toERSC_>:
    3620:	55                   	push   rbp
    3621:	48 89 e5             	mov    rbp,rsp
    3624:	48 89 7d f8          	mov    QWORD PTR [rbp-0x8],rdi
    3628:	48 8b 45 f8          	mov    rax,QWORD PTR [rbp-0x8]
    362c:	5d                   	pop    rbp
    362d:	c3                   	ret
    362e:	66 90                	xchg   ax,ax

0000000000003630 <_ZNSt16allocator_traitsISaINSt8__detail10_Hash_nodeISt4pairIKNSt7__cxx1112basic_stringIcSt11char_traitsIcESaIcEEE5TokenELb1EEEEE10deallocateERSD_PSC_m>:
    3630:	55                   	push   rbp
    3631:	48 89 e5             	mov    rbp,rsp
    3634:	48 83 ec 20          	sub    rsp,0x20
    3638:	48 89 7d f8          	mov    QWORD PTR [rbp-0x8],rdi
    363c:	48 89 75 f0          	mov    QWORD PTR [rbp-0x10],rsi
    3640:	48 89 55 e8          	mov    QWORD PTR [rbp-0x18],rdx
    3644:	48 8b 7d f8          	mov    rdi,QWORD PTR [rbp-0x8]
    3648:	48 8b 75 f0          	mov    rsi,QWORD PTR [rbp-0x10]
    364c:	48 8b 55 e8          	mov    rdx,QWORD PTR [rbp-0x18]
    3650:	e8 0b 00 00 00       	call   3660 <_ZNSt15__new_allocatorINSt8__detail10_Hash_nodeISt4pairIKNSt7__cxx1112basic_stringIcSt11char_traitsIcESaIcEEE5TokenELb1EEEE10deallocateEPSC_m>
    3655:	48 83 c4 20          	add    rsp,0x20
    3659:	5d                   	pop    rbp
    365a:	c3                   	ret
    365b:	0f 1f 44 00 00       	nop    DWORD PTR [rax+rax*1+0x0]

0000000000003660 <_ZNSt15__new_allocatorINSt8__detail10_Hash_nodeISt4pairIKNSt7__cxx1112basic_stringIcSt11char_traitsIcESaIcEEE5TokenELb1EEEE10deallocateEPSC_m>:
    3660:	55                   	push   rbp
    3661:	48 89 e5             	mov    rbp,rsp
    3664:	48 83 ec 20          	sub    rsp,0x20
    3668:	48 89 7d f8          	mov    QWORD PTR [rbp-0x8],rdi
    366c:	48 89 75 f0          	mov    QWORD PTR [rbp-0x10],rsi
    3670:	48 89 55 e8          	mov    QWORD PTR [rbp-0x18],rdx
    3674:	48 8b 7d f0          	mov    rdi,QWORD PTR [rbp-0x10]
    3678:	e8 23 eb ff ff       	call   21a0 <_ZdlPv@plt>
    367d:	48 83 c4 20          	add    rsp,0x20
    3681:	5d                   	pop    rbp
    3682:	c3                   	ret
    3683:	66 2e 0f 1f 84 00 00 	cs nop WORD PTR [rax+rax*1+0x0]
    368a:	00 00 00 
    368d:	0f 1f 00             	nop    DWORD PTR [rax]

0000000000003690 <_ZNSt10_HashtableINSt7__cxx1112basic_stringIcSt11char_traitsIcESaIcEEESt4pairIKS5_5TokenESaIS9_ENSt8__detail10_Select1stESt8equal_toIS5_ESt4hashIS5_ENSB_18_Mod_range_hashingENSB_20_Default_ranged_hashENSB_20_Prime_rehash_policyENSB_17_Hashtable_traitsILb1ELb0ELb1EEEE21_M_deallocate_bucketsEPPNSB_15_Hash_node_baseEm>:
    3690:	55                   	push   rbp
    3691:	48 89 e5             	mov    rbp,rsp
    3694:	48 83 ec 20          	sub    rsp,0x20
    3698:	48 89 7d f8          	mov    QWORD PTR [rbp-0x8],rdi
    369c:	48 89 75 f0          	mov    QWORD PTR [rbp-0x10],rsi
    36a0:	48 89 55 e8          	mov    QWORD PTR [rbp-0x18],rdx
    36a4:	48 8b 7d f8          	mov    rdi,QWORD PTR [rbp-0x8]
    36a8:	48 89 7d e0          	mov    QWORD PTR [rbp-0x20],rdi
    36ac:	48 8b 75 f0          	mov    rsi,QWORD PTR [rbp-0x10]
    36b0:	e8 2b 00 00 00       	call   36e0 <_ZNKSt10_HashtableINSt7__cxx1112basic_stringIcSt11char_traitsIcESaIcEEESt4pairIKS5_5TokenESaIS9_ENSt8__detail10_Select1stESt8equal_toIS5_ESt4hashIS5_ENSB_18_Mod_range_hashingENSB_20_Default_ranged_hashENSB_20_Prime_rehash_policyENSB_17_Hashtable_traitsILb1ELb0ELb1EEEE21_M_uses_single_bucketEPPNSB_15_Hash_node_baseE>
    36b5:	a8 01                	test   al,0x1
    36b7:	0f 85 05 00 00 00    	jne    36c2 <_ZNSt10_HashtableINSt7__cxx1112basic_stringIcSt11char_traitsIcESaIcEEESt4pairIKS5_5TokenESaIS9_ENSt8__detail10_Select1stESt8equal_toIS5_ESt4hashIS5_ENSB_18_Mod_range_hashingENSB_20_Default_ranged_hashENSB_20_Prime_rehash_policyENSB_17_Hashtable_traitsILb1ELb0ELb1EEEE21_M_deallocate_bucketsEPPNSB_15_Hash_node_baseEm+0x32>
    36bd:	e9 05 00 00 00       	jmp    36c7 <_ZNSt10_HashtableINSt7__cxx1112basic_stringIcSt11char_traitsIcESaIcEEESt4pairIKS5_5TokenESaIS9_ENSt8__detail10_Select1stESt8equal_toIS5_ESt4hashIS5_ENSB_18_Mod_range_hashingENSB_20_Default_ranged_hashENSB_20_Prime_rehash_policyENSB_17_Hashtable_traitsILb1ELb0ELb1EEEE21_M_deallocate_bucketsEPPNSB_15_Hash_node_baseEm+0x37>
    36c2:	e9 11 00 00 00       	jmp    36d8 <_ZNSt10_HashtableINSt7__cxx1112basic_stringIcSt11char_traitsIcESaIcEEESt4pairIKS5_5TokenESaIS9_ENSt8__detail10_Select1stESt8equal_toIS5_ESt4hashIS5_ENSB_18_Mod_range_hashingENSB_20_Default_ranged_hashENSB_20_Prime_rehash_policyENSB_17_Hashtable_traitsILb1ELb0ELb1EEEE21_M_deallocate_bucketsEPPNSB_15_Hash_node_baseEm+0x48>
    36c7:	48 8b 7d e0          	mov    rdi,QWORD PTR [rbp-0x20]
    36cb:	48 8b 75 f0          	mov    rsi,QWORD PTR [rbp-0x10]
    36cf:	48 8b 55 e8          	mov    rdx,QWORD PTR [rbp-0x18]
    36d3:	e8 38 00 00 00       	call   3710 <_ZNSt8__detail16_Hashtable_allocISaINS_10_Hash_nodeISt4pairIKNSt7__cxx1112basic_stringIcSt11char_traitsIcESaIcEEE5TokenELb1EEEEE21_M_deallocate_bucketsEPPNS_15_Hash_node_baseEm>
    36d8:	48 83 c4 20          	add    rsp,0x20
    36dc:	5d                   	pop    rbp
    36dd:	c3                   	ret
    36de:	66 90                	xchg   ax,ax

00000000000036e0 <_ZNKSt10_HashtableINSt7__cxx1112basic_stringIcSt11char_traitsIcESaIcEEESt4pairIKS5_5TokenESaIS9_ENSt8__detail10_Select1stESt8equal_toIS5_ESt4hashIS5_ENSB_18_Mod_range_hashingENSB_20_Default_ranged_hashENSB_20_Prime_rehash_policyENSB_17_Hashtable_traitsILb1ELb0ELb1EEEE21_M_uses_single_bucketEPPNSB_15_Hash_node_baseE>:
    36e0:	55                   	push   rbp
    36e1:	48 89 e5             	mov    rbp,rsp
    36e4:	48 89 7d f8          	mov    QWORD PTR [rbp-0x8],rdi
    36e8:	48 89 75 f0          	mov    QWORD PTR [rbp-0x10],rsi
    36ec:	48 8b 4d f8          	mov    rcx,QWORD PTR [rbp-0x8]
    36f0:	48 8b 45 f0          	mov    rax,QWORD PTR [rbp-0x10]
    36f4:	48 83 c1 30          	add    rcx,0x30
    36f8:	48 39 c8             	cmp    rax,rcx
    36fb:	0f 94 c0             	sete   al
    36fe:	24 01                	and    al,0x1
    3700:	0f b6 c0             	movzx  eax,al
    3703:	5d                   	pop    rbp
    3704:	c3                   	ret
    3705:	66 2e 0f 1f 84 00 00 	cs nop WORD PTR [rax+rax*1+0x0]
    370c:	00 00 00 
    370f:	90                   	nop

0000000000003710 <_ZNSt8__detail16_Hashtable_allocISaINS_10_Hash_nodeISt4pairIKNSt7__cxx1112basic_stringIcSt11char_traitsIcESaIcEEE5TokenELb1EEEEE21_M_deallocate_bucketsEPPNS_15_Hash_node_baseEm>:
    3710:	55                   	push   rbp
    3711:	48 89 e5             	mov    rbp,rsp
    3714:	48 83 ec 50          	sub    rsp,0x50
    3718:	48 89 7d f8          	mov    QWORD PTR [rbp-0x8],rdi
    371c:	48 89 75 f0          	mov    QWORD PTR [rbp-0x10],rsi
    3720:	48 89 55 e8          	mov    QWORD PTR [rbp-0x18],rdx
    3724:	48 8b 45 f8          	mov    rax,QWORD PTR [rbp-0x8]
    3728:	48 89 45 b8          	mov    QWORD PTR [rbp-0x48],rax
    372c:	48 8b 7d f0          	mov    rdi,QWORD PTR [rbp-0x10]
    3730:	e8 6b 00 00 00       	call   37a0 <_ZNSt19__ptr_traits_ptr_toIPPNSt8__detail15_Hash_node_baseES2_Lb0EE10pointer_toERS2_>
    3735:	48 8b 7d b8          	mov    rdi,QWORD PTR [rbp-0x48]
    3739:	48 89 45 e0          	mov    QWORD PTR [rbp-0x20],rax
    373d:	e8 ee fd ff ff       	call   3530 <_ZNSt8__detail16_Hashtable_allocISaINS_10_Hash_nodeISt4pairIKNSt7__cxx1112basic_stringIcSt11char_traitsIcESaIcEEE5TokenELb1EEEEE17_M_node_allocatorEv>
    3742:	48 89 c6             	mov    rsi,rax
    3745:	48 8d 7d d8          	lea    rdi,[rbp-0x28]
    3749:	48 89 7d c0          	mov    QWORD PTR [rbp-0x40],rdi
    374d:	e8 5e 00 00 00       	call   37b0 <_ZNSaIPNSt8__detail15_Hash_node_baseEEC2INS_10_Hash_nodeISt4pairIKNSt7__cxx1112basic_stringIcSt11char_traitsIcESaIcEEE5TokenELb1EEEEERKSaIT_E>
    3752:	48 8b 7d c0          	mov    rdi,QWORD PTR [rbp-0x40]
    3756:	48 8b 75 e0          	mov    rsi,QWORD PTR [rbp-0x20]
    375a:	48 8b 55 e8          	mov    rdx,QWORD PTR [rbp-0x18]
    375e:	e8 6d 00 00 00       	call   37d0 <_ZNSt16allocator_traitsISaIPNSt8__detail15_Hash_node_baseEEE10deallocateERS3_PS2_m>
    3763:	e9 00 00 00 00       	jmp    3768 <_ZNSt8__detail16_Hashtable_allocISaINS_10_Hash_nodeISt4pairIKNSt7__cxx1112basic_stringIcSt11char_traitsIcESaIcEEE5TokenELb1EEEEE21_M_deallocate_bucketsEPPNS_15_Hash_node_baseEm+0x58>
    3768:	48 8d 7d d8          	lea    rdi,[rbp-0x28]
    376c:	e8 8f 00 00 00       	call   3800 <_ZNSaIPNSt8__detail15_Hash_node_baseEED2Ev>
    3771:	48 83 c4 50          	add    rsp,0x50
    3775:	5d                   	pop    rbp
    3776:	c3                   	ret
    3777:	48 89 c1             	mov    rcx,rax
    377a:	89 d0                	mov    eax,edx
    377c:	48 89 4d d0          	mov    QWORD PTR [rbp-0x30],rcx
    3780:	89 45 cc             	mov    DWORD PTR [rbp-0x34],eax
    3783:	48 8d 7d d8          	lea    rdi,[rbp-0x28]
    3787:	e8 74 00 00 00       	call   3800 <_ZNSaIPNSt8__detail15_Hash_node_baseEED2Ev>
    378c:	48 8b 7d d0          	mov    rdi,QWORD PTR [rbp-0x30]
    3790:	e8 4b eb ff ff       	call   22e0 <_Unwind_Resume@plt>
    3795:	66 2e 0f 1f 84 00 00 	cs nop WORD PTR [rax+rax*1+0x0]
    379c:	00 00 00 
    379f:	90                   	nop

00000000000037a0 <_ZNSt19__ptr_traits_ptr_toIPPNSt8__detail15_Hash_node_baseES2_Lb0EE10pointer_toERS2_>:
    37a0:	55                   	push   rbp
    37a1:	48 89 e5             	mov    rbp,rsp
    37a4:	48 89 7d f8          	mov    QWORD PTR [rbp-0x8],rdi
    37a8:	48 8b 45 f8          	mov    rax,QWORD PTR [rbp-0x8]
    37ac:	5d                   	pop    rbp
    37ad:	c3                   	ret
    37ae:	66 90                	xchg   ax,ax

00000000000037b0 <_ZNSaIPNSt8__detail15_Hash_node_baseEEC2INS_10_Hash_nodeISt4pairIKNSt7__cxx1112basic_stringIcSt11char_traitsIcESaIcEEE5TokenELb1EEEEERKSaIT_E>:
    37b0:	55                   	push   rbp
    37b1:	48 89 e5             	mov    rbp,rsp
    37b4:	48 83 ec 10          	sub    rsp,0x10
    37b8:	48 89 7d f8          	mov    QWORD PTR [rbp-0x8],rdi
    37bc:	48 89 75 f0          	mov    QWORD PTR [rbp-0x10],rsi
    37c0:	48 8b 7d f8          	mov    rdi,QWORD PTR [rbp-0x8]
    37c4:	e8 57 00 00 00       	call   3820 <_ZNSt15__new_allocatorIPNSt8__detail15_Hash_node_baseEEC2Ev>
    37c9:	48 83 c4 10          	add    rsp,0x10
    37cd:	5d                   	pop    rbp
    37ce:	c3                   	ret
    37cf:	90                   	nop

00000000000037d0 <_ZNSt16allocator_traitsISaIPNSt8__detail15_Hash_node_baseEEE10deallocateERS3_PS2_m>:
    37d0:	55                   	push   rbp
    37d1:	48 89 e5             	mov    rbp,rsp
    37d4:	48 83 ec 20          	sub    rsp,0x20
    37d8:	48 89 7d f8          	mov    QWORD PTR [rbp-0x8],rdi
    37dc:	48 89 75 f0          	mov    QWORD PTR [rbp-0x10],rsi
    37e0:	48 89 55 e8          	mov    QWORD PTR [rbp-0x18],rdx
    37e4:	48 8b 7d f8          	mov    rdi,QWORD PTR [rbp-0x8]
    37e8:	48 8b 75 f0          	mov    rsi,QWORD PTR [rbp-0x10]
    37ec:	48 8b 55 e8          	mov    rdx,QWORD PTR [rbp-0x18]
    37f0:	e8 3b 00 00 00       	call   3830 <_ZNSt15__new_allocatorIPNSt8__detail15_Hash_node_baseEE10deallocateEPS2_m>
    37f5:	48 83 c4 20          	add    rsp,0x20
    37f9:	5d                   	pop    rbp
    37fa:	c3                   	ret
    37fb:	0f 1f 44 00 00       	nop    DWORD PTR [rax+rax*1+0x0]

0000000000003800 <_ZNSaIPNSt8__detail15_Hash_node_baseEED2Ev>:
    3800:	55                   	push   rbp
    3801:	48 89 e5             	mov    rbp,rsp
    3804:	48 83 ec 10          	sub    rsp,0x10
    3808:	48 89 7d f8          	mov    QWORD PTR [rbp-0x8],rdi
    380c:	48 8b 7d f8          	mov    rdi,QWORD PTR [rbp-0x8]
    3810:	e8 4b 00 00 00       	call   3860 <_ZNSt15__new_allocatorIPNSt8__detail15_Hash_node_baseEED2Ev>
    3815:	48 83 c4 10          	add    rsp,0x10
    3819:	5d                   	pop    rbp
    381a:	c3                   	ret
    381b:	0f 1f 44 00 00       	nop    DWORD PTR [rax+rax*1+0x0]

0000000000003820 <_ZNSt15__new_allocatorIPNSt8__detail15_Hash_node_baseEEC2Ev>:
    3820:	55                   	push   rbp
    3821:	48 89 e5             	mov    rbp,rsp
    3824:	48 89 7d f8          	mov    QWORD PTR [rbp-0x8],rdi
    3828:	5d                   	pop    rbp
    3829:	c3                   	ret
    382a:	66 0f 1f 44 00 00    	nop    WORD PTR [rax+rax*1+0x0]

0000000000003830 <_ZNSt15__new_allocatorIPNSt8__detail15_Hash_node_baseEE10deallocateEPS2_m>:
    3830:	55                   	push   rbp
    3831:	48 89 e5             	mov    rbp,rsp
    3834:	48 83 ec 20          	sub    rsp,0x20
    3838:	48 89 7d f8          	mov    QWORD PTR [rbp-0x8],rdi
    383c:	48 89 75 f0          	mov    QWORD PTR [rbp-0x10],rsi
    3840:	48 89 55 e8          	mov    QWORD PTR [rbp-0x18],rdx
    3844:	48 8b 7d f0          	mov    rdi,QWORD PTR [rbp-0x10]
    3848:	e8 53 e9 ff ff       	call   21a0 <_ZdlPv@plt>
    384d:	48 83 c4 20          	add    rsp,0x20
    3851:	5d                   	pop    rbp
    3852:	c3                   	ret
    3853:	66 2e 0f 1f 84 00 00 	cs nop WORD PTR [rax+rax*1+0x0]
    385a:	00 00 00 
    385d:	0f 1f 00             	nop    DWORD PTR [rax]

0000000000003860 <_ZNSt15__new_allocatorIPNSt8__detail15_Hash_node_baseEED2Ev>:
    3860:	55                   	push   rbp
    3861:	48 89 e5             	mov    rbp,rsp
    3864:	48 89 7d f8          	mov    QWORD PTR [rbp-0x8],rdi
    3868:	5d                   	pop    rbp
    3869:	c3                   	ret
    386a:	66 0f 1f 44 00 00    	nop    WORD PTR [rax+rax*1+0x0]

0000000000003870 <_ZNSt8__detail21_Hashtable_ebo_helperILi0ESaINS_10_Hash_nodeISt4pairIKNSt7__cxx1112basic_stringIcSt11char_traitsIcESaIcEEE5TokenELb1EEEELb1EED2Ev>:
    3870:	55                   	push   rbp
    3871:	48 89 e5             	mov    rbp,rsp
    3874:	48 83 ec 10          	sub    rsp,0x10
    3878:	48 89 7d f8          	mov    QWORD PTR [rbp-0x8],rdi
    387c:	48 8b 7d f8          	mov    rdi,QWORD PTR [rbp-0x8]
    3880:	e8 ab 25 00 00       	call   5e30 <_ZNSaINSt8__detail10_Hash_nodeISt4pairIKNSt7__cxx1112basic_stringIcSt11char_traitsIcESaIcEEE5TokenELb1EEEED2Ev>
    3885:	48 83 c4 10          	add    rsp,0x10
    3889:	5d                   	pop    rbp
    388a:	c3                   	ret
    388b:	0f 1f 44 00 00       	nop    DWORD PTR [rax+rax*1+0x0]

0000000000003890 <_ZNSt15__new_allocatorINSt8__detail10_Hash_nodeISt4pairIKNSt7__cxx1112basic_stringIcSt11char_traitsIcESaIcEEE5TokenELb1EEEED2Ev>:
    3890:	55                   	push   rbp
    3891:	48 89 e5             	mov    rbp,rsp
    3894:	48 89 7d f8          	mov    QWORD PTR [rbp-0x8],rdi
    3898:	5d                   	pop    rbp
    3899:	c3                   	ret
    389a:	66 0f 1f 44 00 00    	nop    WORD PTR [rax+rax*1+0x0]

00000000000038a0 <_ZNSt6vectorIcSaIcEEC2ERKS1_>:
    38a0:	55                   	push   rbp
    38a1:	48 89 e5             	mov    rbp,rsp
    38a4:	48 83 ec 60          	sub    rsp,0x60
    38a8:	48 89 7d f8          	mov    QWORD PTR [rbp-0x8],rdi
    38ac:	48 89 75 f0          	mov    QWORD PTR [rbp-0x10],rsi
    38b0:	48 8b 45 f8          	mov    rax,QWORD PTR [rbp-0x8]
    38b4:	48 89 45 b0          	mov    QWORD PTR [rbp-0x50],rax
    38b8:	48 8b 7d f0          	mov    rdi,QWORD PTR [rbp-0x10]
    38bc:	e8 cf 00 00 00       	call   3990 <_ZNKSt6vectorIcSaIcEE4sizeEv>
    38c1:	48 89 45 b8          	mov    QWORD PTR [rbp-0x48],rax
    38c5:	48 8b 7d f0          	mov    rdi,QWORD PTR [rbp-0x10]
    38c9:	e8 12 01 00 00       	call   39e0 <_ZNKSt12_Vector_baseIcSaIcEE19_M_get_Tp_allocatorEv>
    38ce:	48 89 c6             	mov    rsi,rax
    38d1:	48 8d 7d e8          	lea    rdi,[rbp-0x18]
    38d5:	48 89 7d c0          	mov    QWORD PTR [rbp-0x40],rdi
    38d9:	e8 d2 00 00 00       	call   39b0 <_ZN9__gnu_cxx14__alloc_traitsISaIcEcE17_S_select_on_copyERKS1_>
    38de:	48 8b 7d b0          	mov    rdi,QWORD PTR [rbp-0x50]
    38e2:	48 8b 75 b8          	mov    rsi,QWORD PTR [rbp-0x48]
    38e6:	48 8b 55 c0          	mov    rdx,QWORD PTR [rbp-0x40]
    38ea:	e8 01 01 00 00       	call   39f0 <_ZNSt12_Vector_baseIcSaIcEEC2EmRKS0_>
    38ef:	e9 00 00 00 00       	jmp    38f4 <_ZNSt6vectorIcSaIcEEC2ERKS1_+0x54>
    38f4:	48 8d 7d e8          	lea    rdi,[rbp-0x18]
    38f8:	e8 f3 e8 ff ff       	call   21f0 <_ZNSaIcED1Ev@plt>
    38fd:	48 8b 7d f0          	mov    rdi,QWORD PTR [rbp-0x10]
    3901:	e8 8a 01 00 00       	call   3a90 <_ZNKSt6vectorIcSaIcEE5beginEv>
    3906:	48 89 45 d0          	mov    QWORD PTR [rbp-0x30],rax
    390a:	48 8b 7d f0          	mov    rdi,QWORD PTR [rbp-0x10]
    390e:	e8 ad 01 00 00       	call   3ac0 <_ZNKSt6vectorIcSaIcEE3endEv>
    3913:	48 8b 7d b0          	mov    rdi,QWORD PTR [rbp-0x50]
    3917:	48 89 45 c8          	mov    QWORD PTR [rbp-0x38],rax
    391b:	48 8b 07             	mov    rax,QWORD PTR [rdi]
    391e:	48 89 45 a0          	mov    QWORD PTR [rbp-0x60],rax
    3922:	e8 c9 01 00 00       	call   3af0 <_ZNSt12_Vector_baseIcSaIcEE19_M_get_Tp_allocatorEv>
    3927:	48 8b 55 a0          	mov    rdx,QWORD PTR [rbp-0x60]
    392b:	48 89 c1             	mov    rcx,rax
    392e:	48 8b 7d d0          	mov    rdi,QWORD PTR [rbp-0x30]
    3932:	48 8b 75 c8          	mov    rsi,QWORD PTR [rbp-0x38]
    3936:	e8 15 01 00 00       	call   3a50 <_ZSt22__uninitialized_copy_aIN9__gnu_cxx17__normal_iteratorIPKcSt6vectorIcSaIcEEEEPccET0_T_SA_S9_RSaIT1_E>
    393b:	48 89 45 a8          	mov    QWORD PTR [rbp-0x58],rax
    393f:	e9 00 00 00 00       	jmp    3944 <_ZNSt6vectorIcSaIcEEC2ERKS1_+0xa4>
    3944:	48 8b 45 b0          	mov    rax,QWORD PTR [rbp-0x50]
    3948:	48 8b 4d a8          	mov    rcx,QWORD PTR [rbp-0x58]
    394c:	48 89 48 08          	mov    QWORD PTR [rax+0x8],rcx
    3950:	48 83 c4 60          	add    rsp,0x60
    3954:	5d                   	pop    rbp
    3955:	c3                   	ret
    3956:	48 89 c1             	mov    rcx,rax
    3959:	89 d0                	mov    eax,edx
    395b:	48 89 4d e0          	mov    QWORD PTR [rbp-0x20],rcx
    395f:	89 45 dc             	mov    DWORD PTR [rbp-0x24],eax
    3962:	48 8d 7d e8          	lea    rdi,[rbp-0x18]
    3966:	e8 85 e8 ff ff       	call   21f0 <_ZNSaIcED1Ev@plt>
    396b:	e9 15 00 00 00       	jmp    3985 <_ZNSt6vectorIcSaIcEEC2ERKS1_+0xe5>
    3970:	48 8b 7d b0          	mov    rdi,QWORD PTR [rbp-0x50]
    3974:	48 89 c1             	mov    rcx,rax
    3977:	89 d0                	mov    eax,edx
    3979:	48 89 4d e0          	mov    QWORD PTR [rbp-0x20],rcx
    397d:	89 45 dc             	mov    DWORD PTR [rbp-0x24],eax
    3980:	e8 7b 01 00 00       	call   3b00 <_ZNSt12_Vector_baseIcSaIcEED2Ev>
    3985:	48 8b 7d e0          	mov    rdi,QWORD PTR [rbp-0x20]
    3989:	e8 52 e9 ff ff       	call   22e0 <_Unwind_Resume@plt>
    398e:	66 90                	xchg   ax,ax

0000000000003990 <_ZNKSt6vectorIcSaIcEE4sizeEv>:
    3990:	55                   	push   rbp
    3991:	48 89 e5             	mov    rbp,rsp
    3994:	48 89 7d f8          	mov    QWORD PTR [rbp-0x8],rdi
    3998:	48 8b 4d f8          	mov    rcx,QWORD PTR [rbp-0x8]
    399c:	48 8b 41 08          	mov    rax,QWORD PTR [rcx+0x8]
    39a0:	48 8b 09             	mov    rcx,QWORD PTR [rcx]
    39a3:	48 29 c8             	sub    rax,rcx
    39a6:	5d                   	pop    rbp
    39a7:	c3                   	ret
    39a8:	0f 1f 84 00 00 00 00 	nop    DWORD PTR [rax+rax*1+0x0]
    39af:	00 

00000000000039b0 <_ZN9__gnu_cxx14__alloc_traitsISaIcEcE17_S_select_on_copyERKS1_>:
    39b0:	55                   	push   rbp
    39b1:	48 89 e5             	mov    rbp,rsp
    39b4:	48 83 ec 20          	sub    rsp,0x20
    39b8:	48 89 f8             	mov    rax,rdi
    39bb:	48 89 45 e8          	mov    QWORD PTR [rbp-0x18],rax
    39bf:	48 89 7d f8          	mov    QWORD PTR [rbp-0x8],rdi
    39c3:	48 89 75 f0          	mov    QWORD PTR [rbp-0x10],rsi
    39c7:	48 8b 75 f0          	mov    rsi,QWORD PTR [rbp-0x10]
    39cb:	e8 70 01 00 00       	call   3b40 <_ZNSt16allocator_traitsISaIcEE37select_on_container_copy_constructionERKS0_>
    39d0:	48 8b 45 e8          	mov    rax,QWORD PTR [rbp-0x18]
    39d4:	48 83 c4 20          	add    rsp,0x20
    39d8:	5d                   	pop    rbp
    39d9:	c3                   	ret
    39da:	66 0f 1f 44 00 00    	nop    WORD PTR [rax+rax*1+0x0]

00000000000039e0 <_ZNKSt12_Vector_baseIcSaIcEE19_M_get_Tp_allocatorEv>:
    39e0:	55                   	push   rbp
    39e1:	48 89 e5             	mov    rbp,rsp
    39e4:	48 89 7d f8          	mov    QWORD PTR [rbp-0x8],rdi
    39e8:	48 8b 45 f8          	mov    rax,QWORD PTR [rbp-0x8]
    39ec:	5d                   	pop    rbp
    39ed:	c3                   	ret
    39ee:	66 90                	xchg   ax,ax

00000000000039f0 <_ZNSt12_Vector_baseIcSaIcEEC2EmRKS0_>:
    39f0:	55                   	push   rbp
    39f1:	48 89 e5             	mov    rbp,rsp
    39f4:	48 83 ec 30          	sub    rsp,0x30
    39f8:	48 89 7d f8          	mov    QWORD PTR [rbp-0x8],rdi
    39fc:	48 89 75 f0          	mov    QWORD PTR [rbp-0x10],rsi
    3a00:	48 89 55 e8          	mov    QWORD PTR [rbp-0x18],rdx
    3a04:	48 8b 7d f8          	mov    rdi,QWORD PTR [rbp-0x8]
    3a08:	48 89 7d d0          	mov    QWORD PTR [rbp-0x30],rdi
    3a0c:	48 8b 75 e8          	mov    rsi,QWORD PTR [rbp-0x18]
    3a10:	e8 5b 01 00 00       	call   3b70 <_ZNSt12_Vector_baseIcSaIcEE12_Vector_implC2ERKS0_>
    3a15:	48 8b 7d d0          	mov    rdi,QWORD PTR [rbp-0x30]
    3a19:	48 8b 75 f0          	mov    rsi,QWORD PTR [rbp-0x10]
    3a1d:	e8 7e 01 00 00       	call   3ba0 <_ZNSt12_Vector_baseIcSaIcEE17_M_create_storageEm>
    3a22:	e9 00 00 00 00       	jmp    3a27 <_ZNSt12_Vector_baseIcSaIcEEC2EmRKS0_+0x37>
    3a27:	48 83 c4 30          	add    rsp,0x30
    3a2b:	5d                   	pop    rbp
    3a2c:	c3                   	ret
    3a2d:	48 8b 7d d0          	mov    rdi,QWORD PTR [rbp-0x30]
    3a31:	48 89 c1             	mov    rcx,rax
    3a34:	89 d0                	mov    eax,edx
    3a36:	48 89 4d e0          	mov    QWORD PTR [rbp-0x20],rcx
    3a3a:	89 45 dc             	mov    DWORD PTR [rbp-0x24],eax
    3a3d:	e8 ae 01 00 00       	call   3bf0 <_ZNSt12_Vector_baseIcSaIcEE12_Vector_implD2Ev>
    3a42:	48 8b 7d e0          	mov    rdi,QWORD PTR [rbp-0x20]
    3a46:	e8 95 e8 ff ff       	call   22e0 <_Unwind_Resume@plt>
    3a4b:	0f 1f 44 00 00       	nop    DWORD PTR [rax+rax*1+0x0]

0000000000003a50 <_ZSt22__uninitialized_copy_aIN9__gnu_cxx17__normal_iteratorIPKcSt6vectorIcSaIcEEEEPccET0_T_SA_S9_RSaIT1_E>:
    3a50:	55                   	push   rbp
    3a51:	48 89 e5             	mov    rbp,rsp
    3a54:	48 83 ec 30          	sub    rsp,0x30
    3a58:	48 89 7d f8          	mov    QWORD PTR [rbp-0x8],rdi
    3a5c:	48 89 75 f0          	mov    QWORD PTR [rbp-0x10],rsi
    3a60:	48 89 55 e8          	mov    QWORD PTR [rbp-0x18],rdx
    3a64:	48 89 4d e0          	mov    QWORD PTR [rbp-0x20],rcx
    3a68:	48 8b 45 f8          	mov    rax,QWORD PTR [rbp-0x8]
    3a6c:	48 89 45 d8          	mov    QWORD PTR [rbp-0x28],rax
    3a70:	48 8b 45 f0          	mov    rax,QWORD PTR [rbp-0x10]
    3a74:	48 89 45 d0          	mov    QWORD PTR [rbp-0x30],rax
    3a78:	48 8b 55 e8          	mov    rdx,QWORD PTR [rbp-0x18]
    3a7c:	48 8b 7d d8          	mov    rdi,QWORD PTR [rbp-0x28]
    3a80:	48 8b 75 d0          	mov    rsi,QWORD PTR [rbp-0x30]
    3a84:	e8 b7 02 00 00       	call   3d40 <_ZSt18uninitialized_copyIN9__gnu_cxx17__normal_iteratorIPKcSt6vectorIcSaIcEEEEPcET0_T_SA_S9_>
    3a89:	48 83 c4 30          	add    rsp,0x30
    3a8d:	5d                   	pop    rbp
    3a8e:	c3                   	ret
    3a8f:	90                   	nop

0000000000003a90 <_ZNKSt6vectorIcSaIcEE5beginEv>:
    3a90:	55                   	push   rbp
    3a91:	48 89 e5             	mov    rbp,rsp
    3a94:	48 83 ec 10          	sub    rsp,0x10
    3a98:	48 89 7d f0          	mov    QWORD PTR [rbp-0x10],rdi
    3a9c:	48 8b 75 f0          	mov    rsi,QWORD PTR [rbp-0x10]
    3aa0:	48 8d 7d f8          	lea    rdi,[rbp-0x8]
    3aa4:	e8 37 05 00 00       	call   3fe0 <_ZN9__gnu_cxx17__normal_iteratorIPKcSt6vectorIcSaIcEEEC2ERKS2_>
    3aa9:	48 8b 45 f8          	mov    rax,QWORD PTR [rbp-0x8]
    3aad:	48 83 c4 10          	add    rsp,0x10
    3ab1:	5d                   	pop    rbp
    3ab2:	c3                   	ret
    3ab3:	66 2e 0f 1f 84 00 00 	cs nop WORD PTR [rax+rax*1+0x0]
    3aba:	00 00 00 
    3abd:	0f 1f 00             	nop    DWORD PTR [rax]

0000000000003ac0 <_ZNKSt6vectorIcSaIcEE3endEv>:
    3ac0:	55                   	push   rbp
    3ac1:	48 89 e5             	mov    rbp,rsp
    3ac4:	48 83 ec 10          	sub    rsp,0x10
    3ac8:	48 89 7d f0          	mov    QWORD PTR [rbp-0x10],rdi
    3acc:	48 8b 75 f0          	mov    rsi,QWORD PTR [rbp-0x10]
    3ad0:	48 83 c6 08          	add    rsi,0x8
    3ad4:	48 8d 7d f8          	lea    rdi,[rbp-0x8]
    3ad8:	e8 03 05 00 00       	call   3fe0 <_ZN9__gnu_cxx17__normal_iteratorIPKcSt6vectorIcSaIcEEEC2ERKS2_>
    3add:	48 8b 45 f8          	mov    rax,QWORD PTR [rbp-0x8]
    3ae1:	48 83 c4 10          	add    rsp,0x10
    3ae5:	5d                   	pop    rbp
    3ae6:	c3                   	ret
    3ae7:	66 0f 1f 84 00 00 00 	nop    WORD PTR [rax+rax*1+0x0]
    3aee:	00 00 

0000000000003af0 <_ZNSt12_Vector_baseIcSaIcEE19_M_get_Tp_allocatorEv>:
    3af0:	55                   	push   rbp
    3af1:	48 89 e5             	mov    rbp,rsp
    3af4:	48 89 7d f8          	mov    QWORD PTR [rbp-0x8],rdi
    3af8:	48 8b 45 f8          	mov    rax,QWORD PTR [rbp-0x8]
    3afc:	5d                   	pop    rbp
    3afd:	c3                   	ret
    3afe:	66 90                	xchg   ax,ax

0000000000003b00 <_ZNSt12_Vector_baseIcSaIcEED2Ev>:
    3b00:	55                   	push   rbp
    3b01:	48 89 e5             	mov    rbp,rsp
    3b04:	48 83 ec 10          	sub    rsp,0x10
    3b08:	48 89 7d f8          	mov    QWORD PTR [rbp-0x8],rdi
    3b0c:	48 8b 7d f8          	mov    rdi,QWORD PTR [rbp-0x8]
    3b10:	48 89 7d f0          	mov    QWORD PTR [rbp-0x10],rdi
    3b14:	48 8b 37             	mov    rsi,QWORD PTR [rdi]
    3b17:	48 8b 57 10          	mov    rdx,QWORD PTR [rdi+0x10]
    3b1b:	48 29 f2             	sub    rdx,rsi
    3b1e:	e8 dd 04 00 00       	call   4000 <_ZNSt12_Vector_baseIcSaIcEE13_M_deallocateEPcm>
    3b23:	e9 00 00 00 00       	jmp    3b28 <_ZNSt12_Vector_baseIcSaIcEED2Ev+0x28>
    3b28:	48 8b 7d f0          	mov    rdi,QWORD PTR [rbp-0x10]
    3b2c:	e8 bf 00 00 00       	call   3bf0 <_ZNSt12_Vector_baseIcSaIcEE12_Vector_implD2Ev>
    3b31:	48 83 c4 10          	add    rsp,0x10
    3b35:	5d                   	pop    rbp
    3b36:	c3                   	ret
    3b37:	48 89 c7             	mov    rdi,rax
    3b3a:	e8 b1 f8 ff ff       	call   33f0 <__clang_call_terminate>
    3b3f:	90                   	nop

0000000000003b40 <_ZNSt16allocator_traitsISaIcEE37select_on_container_copy_constructionERKS0_>:
    3b40:	55                   	push   rbp
    3b41:	48 89 e5             	mov    rbp,rsp
    3b44:	48 83 ec 20          	sub    rsp,0x20
    3b48:	48 89 f8             	mov    rax,rdi
    3b4b:	48 89 45 e8          	mov    QWORD PTR [rbp-0x18],rax
    3b4f:	48 89 7d f8          	mov    QWORD PTR [rbp-0x8],rdi
    3b53:	48 89 75 f0          	mov    QWORD PTR [rbp-0x10],rsi
    3b57:	48 8b 75 f0          	mov    rsi,QWORD PTR [rbp-0x10]
    3b5b:	e8 80 e5 ff ff       	call   20e0 <_ZNSaIcEC1ERKS_@plt>
    3b60:	48 8b 45 e8          	mov    rax,QWORD PTR [rbp-0x18]
    3b64:	48 83 c4 20          	add    rsp,0x20
    3b68:	5d                   	pop    rbp
    3b69:	c3                   	ret
    3b6a:	66 0f 1f 44 00 00    	nop    WORD PTR [rax+rax*1+0x0]

0000000000003b70 <_ZNSt12_Vector_baseIcSaIcEE12_Vector_implC2ERKS0_>:
    3b70:	55                   	push   rbp
    3b71:	48 89 e5             	mov    rbp,rsp
    3b74:	48 83 ec 20          	sub    rsp,0x20
    3b78:	48 89 7d f8          	mov    QWORD PTR [rbp-0x8],rdi
    3b7c:	48 89 75 f0          	mov    QWORD PTR [rbp-0x10],rsi
    3b80:	48 8b 7d f8          	mov    rdi,QWORD PTR [rbp-0x8]
    3b84:	48 89 7d e8          	mov    QWORD PTR [rbp-0x18],rdi
    3b88:	48 8b 75 f0          	mov    rsi,QWORD PTR [rbp-0x10]
    3b8c:	e8 cf e6 ff ff       	call   2260 <_ZNSaIcEC2ERKS_@plt>
    3b91:	48 8b 7d e8          	mov    rdi,QWORD PTR [rbp-0x18]
    3b95:	e8 76 00 00 00       	call   3c10 <_ZNSt12_Vector_baseIcSaIcEE17_Vector_impl_dataC2Ev>
    3b9a:	48 83 c4 20          	add    rsp,0x20
    3b9e:	5d                   	pop    rbp
    3b9f:	c3                   	ret

0000000000003ba0 <_ZNSt12_Vector_baseIcSaIcEE17_M_create_storageEm>:
    3ba0:	55                   	push   rbp
    3ba1:	48 89 e5             	mov    rbp,rsp
    3ba4:	48 83 ec 20          	sub    rsp,0x20
    3ba8:	48 89 7d f8          	mov    QWORD PTR [rbp-0x8],rdi
    3bac:	48 89 75 f0          	mov    QWORD PTR [rbp-0x10],rsi
    3bb0:	48 8b 7d f8          	mov    rdi,QWORD PTR [rbp-0x8]
    3bb4:	48 89 7d e8          	mov    QWORD PTR [rbp-0x18],rdi
    3bb8:	48 8b 75 f0          	mov    rsi,QWORD PTR [rbp-0x10]
    3bbc:	e8 7f 00 00 00       	call   3c40 <_ZNSt12_Vector_baseIcSaIcEE11_M_allocateEm>
    3bc1:	48 89 c1             	mov    rcx,rax
    3bc4:	48 8b 45 e8          	mov    rax,QWORD PTR [rbp-0x18]
    3bc8:	48 89 08             	mov    QWORD PTR [rax],rcx
    3bcb:	48 8b 08             	mov    rcx,QWORD PTR [rax]
    3bce:	48 89 48 08          	mov    QWORD PTR [rax+0x8],rcx
    3bd2:	48 8b 08             	mov    rcx,QWORD PTR [rax]
    3bd5:	48 03 4d f0          	add    rcx,QWORD PTR [rbp-0x10]
    3bd9:	48 89 48 10          	mov    QWORD PTR [rax+0x10],rcx
    3bdd:	48 83 c4 20          	add    rsp,0x20
    3be1:	5d                   	pop    rbp
    3be2:	c3                   	ret
    3be3:	66 2e 0f 1f 84 00 00 	cs nop WORD PTR [rax+rax*1+0x0]
    3bea:	00 00 00 
    3bed:	0f 1f 00             	nop    DWORD PTR [rax]

0000000000003bf0 <_ZNSt12_Vector_baseIcSaIcEE12_Vector_implD2Ev>:
    3bf0:	55                   	push   rbp
    3bf1:	48 89 e5             	mov    rbp,rsp
    3bf4:	48 83 ec 10          	sub    rsp,0x10
    3bf8:	48 89 7d f8          	mov    QWORD PTR [rbp-0x8],rdi
    3bfc:	48 8b 7d f8          	mov    rdi,QWORD PTR [rbp-0x8]
    3c00:	e8 2b e4 ff ff       	call   2030 <_ZNSaIcED2Ev@plt>
    3c05:	48 83 c4 10          	add    rsp,0x10
    3c09:	5d                   	pop    rbp
    3c0a:	c3                   	ret
    3c0b:	0f 1f 44 00 00       	nop    DWORD PTR [rax+rax*1+0x0]

0000000000003c10 <_ZNSt12_Vector_baseIcSaIcEE17_Vector_impl_dataC2Ev>:
    3c10:	55                   	push   rbp
    3c11:	48 89 e5             	mov    rbp,rsp
    3c14:	48 89 7d f8          	mov    QWORD PTR [rbp-0x8],rdi
    3c18:	48 8b 45 f8          	mov    rax,QWORD PTR [rbp-0x8]
    3c1c:	48 c7 00 00 00 00 00 	mov    QWORD PTR [rax],0x0
    3c23:	48 c7 40 08 00 00 00 	mov    QWORD PTR [rax+0x8],0x0
    3c2a:	00 
    3c2b:	48 c7 40 10 00 00 00 	mov    QWORD PTR [rax+0x10],0x0
    3c32:	00 
    3c33:	5d                   	pop    rbp
    3c34:	c3                   	ret
    3c35:	66 2e 0f 1f 84 00 00 	cs nop WORD PTR [rax+rax*1+0x0]
    3c3c:	00 00 00 
    3c3f:	90                   	nop

0000000000003c40 <_ZNSt12_Vector_baseIcSaIcEE11_M_allocateEm>:
    3c40:	55                   	push   rbp
    3c41:	48 89 e5             	mov    rbp,rsp
    3c44:	48 83 ec 20          	sub    rsp,0x20
    3c48:	48 89 7d f8          	mov    QWORD PTR [rbp-0x8],rdi
    3c4c:	48 89 75 f0          	mov    QWORD PTR [rbp-0x10],rsi
    3c50:	48 8b 45 f8          	mov    rax,QWORD PTR [rbp-0x8]
    3c54:	48 89 45 e8          	mov    QWORD PTR [rbp-0x18],rax
    3c58:	48 83 7d f0 00       	cmp    QWORD PTR [rbp-0x10],0x0
    3c5d:	0f 84 16 00 00 00    	je     3c79 <_ZNSt12_Vector_baseIcSaIcEE11_M_allocateEm+0x39>
    3c63:	48 8b 7d e8          	mov    rdi,QWORD PTR [rbp-0x18]
    3c67:	48 8b 75 f0          	mov    rsi,QWORD PTR [rbp-0x10]
    3c6b:	e8 20 00 00 00       	call   3c90 <_ZNSt16allocator_traitsISaIcEE8allocateERS0_m>
    3c70:	48 89 45 e0          	mov    QWORD PTR [rbp-0x20],rax
    3c74:	e9 0b 00 00 00       	jmp    3c84 <_ZNSt12_Vector_baseIcSaIcEE11_M_allocateEm+0x44>
    3c79:	31 c0                	xor    eax,eax
    3c7b:	48 89 45 e0          	mov    QWORD PTR [rbp-0x20],rax
    3c7f:	e9 00 00 00 00       	jmp    3c84 <_ZNSt12_Vector_baseIcSaIcEE11_M_allocateEm+0x44>
    3c84:	48 8b 45 e0          	mov    rax,QWORD PTR [rbp-0x20]
    3c88:	48 83 c4 20          	add    rsp,0x20
    3c8c:	5d                   	pop    rbp
    3c8d:	c3                   	ret
    3c8e:	66 90                	xchg   ax,ax

0000000000003c90 <_ZNSt16allocator_traitsISaIcEE8allocateERS0_m>:
    3c90:	55                   	push   rbp
    3c91:	48 89 e5             	mov    rbp,rsp
    3c94:	48 83 ec 10          	sub    rsp,0x10
    3c98:	48 89 7d f8          	mov    QWORD PTR [rbp-0x8],rdi
    3c9c:	48 89 75 f0          	mov    QWORD PTR [rbp-0x10],rsi
    3ca0:	48 8b 7d f8          	mov    rdi,QWORD PTR [rbp-0x8]
    3ca4:	48 8b 75 f0          	mov    rsi,QWORD PTR [rbp-0x10]
    3ca8:	31 c0                	xor    eax,eax
    3caa:	89 c2                	mov    edx,eax
    3cac:	e8 0f 00 00 00       	call   3cc0 <_ZNSt15__new_allocatorIcE8allocateEmPKv>
    3cb1:	48 83 c4 10          	add    rsp,0x10
    3cb5:	5d                   	pop    rbp
    3cb6:	c3                   	ret
    3cb7:	66 0f 1f 84 00 00 00 	nop    WORD PTR [rax+rax*1+0x0]
    3cbe:	00 00 

0000000000003cc0 <_ZNSt15__new_allocatorIcE8allocateEmPKv>:
    3cc0:	55                   	push   rbp
    3cc1:	48 89 e5             	mov    rbp,rsp
    3cc4:	48 83 ec 20          	sub    rsp,0x20
    3cc8:	48 89 7d f8          	mov    QWORD PTR [rbp-0x8],rdi
    3ccc:	48 89 75 f0          	mov    QWORD PTR [rbp-0x10],rsi
    3cd0:	48 89 55 e8          	mov    QWORD PTR [rbp-0x18],rdx
    3cd4:	48 8b 7d f8          	mov    rdi,QWORD PTR [rbp-0x8]
    3cd8:	48 8b 45 f0          	mov    rax,QWORD PTR [rbp-0x10]
    3cdc:	48 89 45 e0          	mov    QWORD PTR [rbp-0x20],rax
    3ce0:	e8 3b 00 00 00       	call   3d20 <_ZNKSt15__new_allocatorIcE11_M_max_sizeEv>
    3ce5:	48 89 c1             	mov    rcx,rax
    3ce8:	48 8b 45 e0          	mov    rax,QWORD PTR [rbp-0x20]
    3cec:	48 39 c8             	cmp    rax,rcx
    3cef:	0f 86 15 00 00 00    	jbe    3d0a <_ZNSt15__new_allocatorIcE8allocateEmPKv+0x4a>
    3cf5:	48 83 7d f0 ff       	cmp    QWORD PTR [rbp-0x10],0xffffffffffffffff
    3cfa:	0f 86 05 00 00 00    	jbe    3d05 <_ZNSt15__new_allocatorIcE8allocateEmPKv+0x45>
    3d00:	e8 4b e4 ff ff       	call   2150 <_ZSt28__throw_bad_array_new_lengthv@plt>
    3d05:	e8 66 e3 ff ff       	call   2070 <_ZSt17__throw_bad_allocv@plt>
    3d0a:	48 8b 7d f0          	mov    rdi,QWORD PTR [rbp-0x10]
    3d0e:	48 c1 e7 00          	shl    rdi,0x0
    3d12:	e8 a9 e4 ff ff       	call   21c0 <_Znwm@plt>
    3d17:	48 83 c4 20          	add    rsp,0x20
    3d1b:	5d                   	pop    rbp
    3d1c:	c3                   	ret
    3d1d:	0f 1f 00             	nop    DWORD PTR [rax]

0000000000003d20 <_ZNKSt15__new_allocatorIcE11_M_max_sizeEv>:
    3d20:	55                   	push   rbp
    3d21:	48 89 e5             	mov    rbp,rsp
    3d24:	48 89 7d f8          	mov    QWORD PTR [rbp-0x8],rdi
    3d28:	48 b8 ff ff ff ff ff 	movabs rax,0x7fffffffffffffff
    3d2f:	ff ff 7f 
    3d32:	5d                   	pop    rbp
    3d33:	c3                   	ret
    3d34:	66 2e 0f 1f 84 00 00 	cs nop WORD PTR [rax+rax*1+0x0]
    3d3b:	00 00 00 
    3d3e:	66 90                	xchg   ax,ax

0000000000003d40 <_ZSt18uninitialized_copyIN9__gnu_cxx17__normal_iteratorIPKcSt6vectorIcSaIcEEEEPcET0_T_SA_S9_>:
    3d40:	55                   	push   rbp
    3d41:	48 89 e5             	mov    rbp,rsp
    3d44:	48 83 ec 30          	sub    rsp,0x30
    3d48:	48 89 7d f8          	mov    QWORD PTR [rbp-0x8],rdi
    3d4c:	48 89 75 f0          	mov    QWORD PTR [rbp-0x10],rsi
    3d50:	48 89 55 e8          	mov    QWORD PTR [rbp-0x18],rdx
    3d54:	c6 45 e7 01          	mov    BYTE PTR [rbp-0x19],0x1
    3d58:	c6 45 e6 01          	mov    BYTE PTR [rbp-0x1a],0x1
    3d5c:	48 8b 45 f8          	mov    rax,QWORD PTR [rbp-0x8]
    3d60:	48 89 45 d8          	mov    QWORD PTR [rbp-0x28],rax
    3d64:	48 8b 45 f0          	mov    rax,QWORD PTR [rbp-0x10]
    3d68:	48 89 45 d0          	mov    QWORD PTR [rbp-0x30],rax
    3d6c:	48 8b 55 e8          	mov    rdx,QWORD PTR [rbp-0x18]
    3d70:	48 8b 7d d8          	mov    rdi,QWORD PTR [rbp-0x28]
    3d74:	48 8b 75 d0          	mov    rsi,QWORD PTR [rbp-0x30]
    3d78:	e8 13 00 00 00       	call   3d90 <_ZNSt20__uninitialized_copyILb1EE13__uninit_copyIN9__gnu_cxx17__normal_iteratorIPKcSt6vectorIcSaIcEEEEPcEET0_T_SC_SB_>
    3d7d:	48 83 c4 30          	add    rsp,0x30
    3d81:	5d                   	pop    rbp
    3d82:	c3                   	ret
    3d83:	66 2e 0f 1f 84 00 00 	cs nop WORD PTR [rax+rax*1+0x0]
    3d8a:	00 00 00 
    3d8d:	0f 1f 00             	nop    DWORD PTR [rax]

0000000000003d90 <_ZNSt20__uninitialized_copyILb1EE13__uninit_copyIN9__gnu_cxx17__normal_iteratorIPKcSt6vectorIcSaIcEEEEPcEET0_T_SC_SB_>:
    3d90:	55                   	push   rbp
    3d91:	48 89 e5             	mov    rbp,rsp
    3d94:	48 83 ec 30          	sub    rsp,0x30
    3d98:	48 89 7d f8          	mov    QWORD PTR [rbp-0x8],rdi
    3d9c:	48 89 75 f0          	mov    QWORD PTR [rbp-0x10],rsi
    3da0:	48 89 55 e8          	mov    QWORD PTR [rbp-0x18],rdx
    3da4:	48 8b 45 f8          	mov    rax,QWORD PTR [rbp-0x8]
    3da8:	48 89 45 e0          	mov    QWORD PTR [rbp-0x20],rax
    3dac:	48 8b 45 f0          	mov    rax,QWORD PTR [rbp-0x10]
    3db0:	48 89 45 d8          	mov    QWORD PTR [rbp-0x28],rax
    3db4:	48 8b 55 e8          	mov    rdx,QWORD PTR [rbp-0x18]
    3db8:	48 8b 7d e0          	mov    rdi,QWORD PTR [rbp-0x20]
    3dbc:	48 8b 75 d8          	mov    rsi,QWORD PTR [rbp-0x28]
    3dc0:	e8 0b 00 00 00       	call   3dd0 <_ZSt4copyIN9__gnu_cxx17__normal_iteratorIPKcSt6vectorIcSaIcEEEEPcET0_T_SA_S9_>
    3dc5:	48 83 c4 30          	add    rsp,0x30
    3dc9:	5d                   	pop    rbp
    3dca:	c3                   	ret
    3dcb:	0f 1f 44 00 00       	nop    DWORD PTR [rax+rax*1+0x0]

0000000000003dd0 <_ZSt4copyIN9__gnu_cxx17__normal_iteratorIPKcSt6vectorIcSaIcEEEEPcET0_T_SA_S9_>:
    3dd0:	55                   	push   rbp
    3dd1:	48 89 e5             	mov    rbp,rsp
    3dd4:	48 83 ec 40          	sub    rsp,0x40
    3dd8:	48 89 7d f8          	mov    QWORD PTR [rbp-0x8],rdi
    3ddc:	48 89 75 f0          	mov    QWORD PTR [rbp-0x10],rsi
    3de0:	48 89 55 e8          	mov    QWORD PTR [rbp-0x18],rdx
    3de4:	48 8b 45 f8          	mov    rax,QWORD PTR [rbp-0x8]
    3de8:	48 89 45 d8          	mov    QWORD PTR [rbp-0x28],rax
    3dec:	48 8b 7d d8          	mov    rdi,QWORD PTR [rbp-0x28]
    3df0:	e8 ab 00 00 00       	call   3ea0 <_ZSt12__miter_baseIN9__gnu_cxx17__normal_iteratorIPKcSt6vectorIcSaIcEEEEET_S8_>
    3df5:	48 89 45 e0          	mov    QWORD PTR [rbp-0x20],rax
    3df9:	48 8b 45 f0          	mov    rax,QWORD PTR [rbp-0x10]
    3dfd:	48 89 45 c8          	mov    QWORD PTR [rbp-0x38],rax
    3e01:	48 8b 7d c8          	mov    rdi,QWORD PTR [rbp-0x38]
    3e05:	e8 96 00 00 00       	call   3ea0 <_ZSt12__miter_baseIN9__gnu_cxx17__normal_iteratorIPKcSt6vectorIcSaIcEEEEET_S8_>
    3e0a:	48 89 45 d0          	mov    QWORD PTR [rbp-0x30],rax
    3e0e:	48 8b 55 e8          	mov    rdx,QWORD PTR [rbp-0x18]
    3e12:	48 8b 7d e0          	mov    rdi,QWORD PTR [rbp-0x20]
    3e16:	48 8b 75 d0          	mov    rsi,QWORD PTR [rbp-0x30]
    3e1a:	e8 11 00 00 00       	call   3e30 <_ZSt13__copy_move_aILb0EN9__gnu_cxx17__normal_iteratorIPKcSt6vectorIcSaIcEEEEPcET1_T0_SA_S9_>
    3e1f:	48 83 c4 40          	add    rsp,0x40
    3e23:	5d                   	pop    rbp
    3e24:	c3                   	ret
    3e25:	66 2e 0f 1f 84 00 00 	cs nop WORD PTR [rax+rax*1+0x0]
    3e2c:	00 00 00 
    3e2f:	90                   	nop

0000000000003e30 <_ZSt13__copy_move_aILb0EN9__gnu_cxx17__normal_iteratorIPKcSt6vectorIcSaIcEEEEPcET1_T0_SA_S9_>:
    3e30:	55                   	push   rbp
    3e31:	48 89 e5             	mov    rbp,rsp
    3e34:	48 83 ec 40          	sub    rsp,0x40
    3e38:	48 89 7d f8          	mov    QWORD PTR [rbp-0x8],rdi
    3e3c:	48 89 75 f0          	mov    QWORD PTR [rbp-0x10],rsi
    3e40:	48 89 55 e8          	mov    QWORD PTR [rbp-0x18],rdx
    3e44:	48 8b 45 f8          	mov    rax,QWORD PTR [rbp-0x8]
    3e48:	48 89 45 e0          	mov    QWORD PTR [rbp-0x20],rax
    3e4c:	48 8b 7d e0          	mov    rdi,QWORD PTR [rbp-0x20]
    3e50:	e8 bb 00 00 00       	call   3f10 <_ZSt12__niter_baseIPKcSt6vectorIcSaIcEEET_N9__gnu_cxx17__normal_iteratorIS5_T0_EE>
    3e55:	48 89 45 c8          	mov    QWORD PTR [rbp-0x38],rax
    3e59:	48 8b 45 f0          	mov    rax,QWORD PTR [rbp-0x10]
    3e5d:	48 89 45 d8          	mov    QWORD PTR [rbp-0x28],rax
    3e61:	48 8b 7d d8          	mov    rdi,QWORD PTR [rbp-0x28]
    3e65:	e8 a6 00 00 00       	call   3f10 <_ZSt12__niter_baseIPKcSt6vectorIcSaIcEEET_N9__gnu_cxx17__normal_iteratorIS5_T0_EE>
    3e6a:	48 89 45 d0          	mov    QWORD PTR [rbp-0x30],rax
    3e6e:	48 8b 7d e8          	mov    rdi,QWORD PTR [rbp-0x18]
    3e72:	e8 b9 00 00 00       	call   3f30 <_ZSt12__niter_baseIPcET_S1_>
    3e77:	48 8b 7d c8          	mov    rdi,QWORD PTR [rbp-0x38]
    3e7b:	48 8b 75 d0          	mov    rsi,QWORD PTR [rbp-0x30]
    3e7f:	48 89 c2             	mov    rdx,rax
    3e82:	e8 59 00 00 00       	call   3ee0 <_ZSt14__copy_move_a1ILb0EPKcPcET1_T0_S4_S3_>
    3e87:	48 89 c6             	mov    rsi,rax
    3e8a:	48 8d 7d e8          	lea    rdi,[rbp-0x18]
    3e8e:	e8 2d 00 00 00       	call   3ec0 <_ZSt12__niter_wrapIPcET_RKS1_S1_>
    3e93:	48 83 c4 40          	add    rsp,0x40
    3e97:	5d                   	pop    rbp
    3e98:	c3                   	ret
    3e99:	0f 1f 80 00 00 00 00 	nop    DWORD PTR [rax+0x0]

0000000000003ea0 <_ZSt12__miter_baseIN9__gnu_cxx17__normal_iteratorIPKcSt6vectorIcSaIcEEEEET_S8_>:
    3ea0:	55                   	push   rbp
    3ea1:	48 89 e5             	mov    rbp,rsp
    3ea4:	48 89 7d f0          	mov    QWORD PTR [rbp-0x10],rdi
    3ea8:	48 8b 45 f0          	mov    rax,QWORD PTR [rbp-0x10]
    3eac:	48 89 45 f8          	mov    QWORD PTR [rbp-0x8],rax
    3eb0:	48 8b 45 f8          	mov    rax,QWORD PTR [rbp-0x8]
    3eb4:	5d                   	pop    rbp
    3eb5:	c3                   	ret
    3eb6:	66 2e 0f 1f 84 00 00 	cs nop WORD PTR [rax+rax*1+0x0]
    3ebd:	00 00 00 

0000000000003ec0 <_ZSt12__niter_wrapIPcET_RKS1_S1_>:
    3ec0:	55                   	push   rbp
    3ec1:	48 89 e5             	mov    rbp,rsp
    3ec4:	48 89 7d f8          	mov    QWORD PTR [rbp-0x8],rdi
    3ec8:	48 89 75 f0          	mov    QWORD PTR [rbp-0x10],rsi
    3ecc:	48 8b 45 f0          	mov    rax,QWORD PTR [rbp-0x10]
    3ed0:	5d                   	pop    rbp
    3ed1:	c3                   	ret
    3ed2:	66 2e 0f 1f 84 00 00 	cs nop WORD PTR [rax+rax*1+0x0]
    3ed9:	00 00 00 
    3edc:	0f 1f 40 00          	nop    DWORD PTR [rax+0x0]

0000000000003ee0 <_ZSt14__copy_move_a1ILb0EPKcPcET1_T0_S4_S3_>:
    3ee0:	55                   	push   rbp
    3ee1:	48 89 e5             	mov    rbp,rsp
    3ee4:	48 83 ec 20          	sub    rsp,0x20
    3ee8:	48 89 7d f8          	mov    QWORD PTR [rbp-0x8],rdi
    3eec:	48 89 75 f0          	mov    QWORD PTR [rbp-0x10],rsi
    3ef0:	48 89 55 e8          	mov    QWORD PTR [rbp-0x18],rdx
    3ef4:	48 8b 7d f8          	mov    rdi,QWORD PTR [rbp-0x8]
    3ef8:	48 8b 75 f0          	mov    rsi,QWORD PTR [rbp-0x10]
    3efc:	48 8b 55 e8          	mov    rdx,QWORD PTR [rbp-0x18]
    3f00:	e8 3b 00 00 00       	call   3f40 <_ZSt14__copy_move_a2ILb0EPKcPcET1_T0_S4_S3_>
    3f05:	48 83 c4 20          	add    rsp,0x20
    3f09:	5d                   	pop    rbp
    3f0a:	c3                   	ret
    3f0b:	0f 1f 44 00 00       	nop    DWORD PTR [rax+rax*1+0x0]

0000000000003f10 <_ZSt12__niter_baseIPKcSt6vectorIcSaIcEEET_N9__gnu_cxx17__normal_iteratorIS5_T0_EE>:
    3f10:	55                   	push   rbp
    3f11:	48 89 e5             	mov    rbp,rsp
    3f14:	48 83 ec 10          	sub    rsp,0x10
    3f18:	48 89 7d f8          	mov    QWORD PTR [rbp-0x8],rdi
    3f1c:	48 8d 7d f8          	lea    rdi,[rbp-0x8]
    3f20:	e8 ab 00 00 00       	call   3fd0 <_ZNK9__gnu_cxx17__normal_iteratorIPKcSt6vectorIcSaIcEEE4baseEv>
    3f25:	48 8b 00             	mov    rax,QWORD PTR [rax]
    3f28:	48 83 c4 10          	add    rsp,0x10
    3f2c:	5d                   	pop    rbp
    3f2d:	c3                   	ret
    3f2e:	66 90                	xchg   ax,ax

0000000000003f30 <_ZSt12__niter_baseIPcET_S1_>:
    3f30:	55                   	push   rbp
    3f31:	48 89 e5             	mov    rbp,rsp
    3f34:	48 89 7d f8          	mov    QWORD PTR [rbp-0x8],rdi
    3f38:	48 8b 45 f8          	mov    rax,QWORD PTR [rbp-0x8]
    3f3c:	5d                   	pop    rbp
    3f3d:	c3                   	ret
    3f3e:	66 90                	xchg   ax,ax

0000000000003f40 <_ZSt14__copy_move_a2ILb0EPKcPcET1_T0_S4_S3_>:
    3f40:	55                   	push   rbp
    3f41:	48 89 e5             	mov    rbp,rsp
    3f44:	48 83 ec 20          	sub    rsp,0x20
    3f48:	48 89 7d f8          	mov    QWORD PTR [rbp-0x8],rdi
    3f4c:	48 89 75 f0          	mov    QWORD PTR [rbp-0x10],rsi
    3f50:	48 89 55 e8          	mov    QWORD PTR [rbp-0x18],rdx
    3f54:	48 8b 7d f8          	mov    rdi,QWORD PTR [rbp-0x8]
    3f58:	48 8b 75 f0          	mov    rsi,QWORD PTR [rbp-0x10]
    3f5c:	48 8b 55 e8          	mov    rdx,QWORD PTR [rbp-0x18]
    3f60:	e8 0b 00 00 00       	call   3f70 <_ZNSt11__copy_moveILb0ELb1ESt26random_access_iterator_tagE8__copy_mIcEEPT_PKS3_S6_S4_>
    3f65:	48 83 c4 20          	add    rsp,0x20
    3f69:	5d                   	pop    rbp
    3f6a:	c3                   	ret
    3f6b:	0f 1f 44 00 00       	nop    DWORD PTR [rax+rax*1+0x0]

0000000000003f70 <_ZNSt11__copy_moveILb0ELb1ESt26random_access_iterator_tagE8__copy_mIcEEPT_PKS3_S6_S4_>:
    3f70:	55                   	push   rbp
    3f71:	48 89 e5             	mov    rbp,rsp
    3f74:	48 83 ec 20          	sub    rsp,0x20
    3f78:	48 89 7d f8          	mov    QWORD PTR [rbp-0x8],rdi
    3f7c:	48 89 75 f0          	mov    QWORD PTR [rbp-0x10],rsi
    3f80:	48 89 55 e8          	mov    QWORD PTR [rbp-0x18],rdx
    3f84:	48 8b 45 f0          	mov    rax,QWORD PTR [rbp-0x10]
    3f88:	48 8b 4d f8          	mov    rcx,QWORD PTR [rbp-0x8]
    3f8c:	48 29 c8             	sub    rax,rcx
    3f8f:	48 89 45 e0          	mov    QWORD PTR [rbp-0x20],rax
    3f93:	48 83 7d e0 00       	cmp    QWORD PTR [rbp-0x20],0x0
    3f98:	0f 84 15 00 00 00    	je     3fb3 <_ZNSt11__copy_moveILb0ELb1ESt26random_access_iterator_tagE8__copy_mIcEEPT_PKS3_S6_S4_+0x43>
    3f9e:	48 8b 7d e8          	mov    rdi,QWORD PTR [rbp-0x18]
    3fa2:	48 8b 75 f8          	mov    rsi,QWORD PTR [rbp-0x8]
    3fa6:	48 8b 55 e0          	mov    rdx,QWORD PTR [rbp-0x20]
    3faa:	48 c1 e2 00          	shl    rdx,0x0
    3fae:	e8 ed e2 ff ff       	call   22a0 <memmove@plt>
    3fb3:	48 8b 45 e8          	mov    rax,QWORD PTR [rbp-0x18]
    3fb7:	48 03 45 e0          	add    rax,QWORD PTR [rbp-0x20]
    3fbb:	48 83 c4 20          	add    rsp,0x20
    3fbf:	5d                   	pop    rbp
    3fc0:	c3                   	ret
    3fc1:	66 2e 0f 1f 84 00 00 	cs nop WORD PTR [rax+rax*1+0x0]
    3fc8:	00 00 00 
    3fcb:	0f 1f 44 00 00       	nop    DWORD PTR [rax+rax*1+0x0]

0000000000003fd0 <_ZNK9__gnu_cxx17__normal_iteratorIPKcSt6vectorIcSaIcEEE4baseEv>:
    3fd0:	55                   	push   rbp
    3fd1:	48 89 e5             	mov    rbp,rsp
    3fd4:	48 89 7d f8          	mov    QWORD PTR [rbp-0x8],rdi
    3fd8:	48 8b 45 f8          	mov    rax,QWORD PTR [rbp-0x8]
    3fdc:	5d                   	pop    rbp
    3fdd:	c3                   	ret
    3fde:	66 90                	xchg   ax,ax

0000000000003fe0 <_ZN9__gnu_cxx17__normal_iteratorIPKcSt6vectorIcSaIcEEEC2ERKS2_>:
    3fe0:	55                   	push   rbp
    3fe1:	48 89 e5             	mov    rbp,rsp
    3fe4:	48 89 7d f8          	mov    QWORD PTR [rbp-0x8],rdi
    3fe8:	48 89 75 f0          	mov    QWORD PTR [rbp-0x10],rsi
    3fec:	48 8b 45 f8          	mov    rax,QWORD PTR [rbp-0x8]
    3ff0:	48 8b 4d f0          	mov    rcx,QWORD PTR [rbp-0x10]
    3ff4:	48 8b 09             	mov    rcx,QWORD PTR [rcx]
    3ff7:	48 89 08             	mov    QWORD PTR [rax],rcx
    3ffa:	5d                   	pop    rbp
    3ffb:	c3                   	ret
    3ffc:	0f 1f 40 00          	nop    DWORD PTR [rax+0x0]

0000000000004000 <_ZNSt12_Vector_baseIcSaIcEE13_M_deallocateEPcm>:
    4000:	55                   	push   rbp
    4001:	48 89 e5             	mov    rbp,rsp
    4004:	48 83 ec 20          	sub    rsp,0x20
    4008:	48 89 7d f8          	mov    QWORD PTR [rbp-0x8],rdi
    400c:	48 89 75 f0          	mov    QWORD PTR [rbp-0x10],rsi
    4010:	48 89 55 e8          	mov    QWORD PTR [rbp-0x18],rdx
    4014:	48 8b 45 f8          	mov    rax,QWORD PTR [rbp-0x8]
    4018:	48 89 45 e0          	mov    QWORD PTR [rbp-0x20],rax
    401c:	48 83 7d f0 00       	cmp    QWORD PTR [rbp-0x10],0x0
    4021:	0f 84 11 00 00 00    	je     4038 <_ZNSt12_Vector_baseIcSaIcEE13_M_deallocateEPcm+0x38>
    4027:	48 8b 7d e0          	mov    rdi,QWORD PTR [rbp-0x20]
    402b:	48 8b 75 f0          	mov    rsi,QWORD PTR [rbp-0x10]
    402f:	48 8b 55 e8          	mov    rdx,QWORD PTR [rbp-0x18]
    4033:	e8 08 00 00 00       	call   4040 <_ZNSt16allocator_traitsISaIcEE10deallocateERS0_Pcm>
    4038:	48 83 c4 20          	add    rsp,0x20
    403c:	5d                   	pop    rbp
    403d:	c3                   	ret
    403e:	66 90                	xchg   ax,ax

0000000000004040 <_ZNSt16allocator_traitsISaIcEE10deallocateERS0_Pcm>:
    4040:	55                   	push   rbp
    4041:	48 89 e5             	mov    rbp,rsp
    4044:	48 83 ec 20          	sub    rsp,0x20
    4048:	48 89 7d f8          	mov    QWORD PTR [rbp-0x8],rdi
    404c:	48 89 75 f0          	mov    QWORD PTR [rbp-0x10],rsi
    4050:	48 89 55 e8          	mov    QWORD PTR [rbp-0x18],rdx
    4054:	48 8b 7d f8          	mov    rdi,QWORD PTR [rbp-0x8]
    4058:	48 8b 75 f0          	mov    rsi,QWORD PTR [rbp-0x10]
    405c:	48 8b 55 e8          	mov    rdx,QWORD PTR [rbp-0x18]
    4060:	e8 0b 00 00 00       	call   4070 <_ZNSt15__new_allocatorIcE10deallocateEPcm>
    4065:	48 83 c4 20          	add    rsp,0x20
    4069:	5d                   	pop    rbp
    406a:	c3                   	ret
    406b:	0f 1f 44 00 00       	nop    DWORD PTR [rax+rax*1+0x0]

0000000000004070 <_ZNSt15__new_allocatorIcE10deallocateEPcm>:
    4070:	55                   	push   rbp
    4071:	48 89 e5             	mov    rbp,rsp
    4074:	48 83 ec 20          	sub    rsp,0x20
    4078:	48 89 7d f8          	mov    QWORD PTR [rbp-0x8],rdi
    407c:	48 89 75 f0          	mov    QWORD PTR [rbp-0x10],rsi
    4080:	48 89 55 e8          	mov    QWORD PTR [rbp-0x18],rdx
    4084:	48 8b 7d f0          	mov    rdi,QWORD PTR [rbp-0x10]
    4088:	e8 13 e1 ff ff       	call   21a0 <_ZdlPv@plt>
    408d:	48 83 c4 20          	add    rsp,0x20
    4091:	5d                   	pop    rbp
    4092:	c3                   	ret
    4093:	66 2e 0f 1f 84 00 00 	cs nop WORD PTR [rax+rax*1+0x0]
    409a:	00 00 00 
    409d:	0f 1f 00             	nop    DWORD PTR [rax]

00000000000040a0 <_ZNSt6vectorIcSaIcEEixEm>:
    40a0:	55                   	push   rbp
    40a1:	48 89 e5             	mov    rbp,rsp
    40a4:	48 89 7d f8          	mov    QWORD PTR [rbp-0x8],rdi
    40a8:	48 89 75 f0          	mov    QWORD PTR [rbp-0x10],rsi
    40ac:	48 8b 45 f8          	mov    rax,QWORD PTR [rbp-0x8]
    40b0:	48 8b 00             	mov    rax,QWORD PTR [rax]
    40b3:	48 03 45 f0          	add    rax,QWORD PTR [rbp-0x10]
    40b7:	5d                   	pop    rbp
    40b8:	c3                   	ret
    40b9:	0f 1f 80 00 00 00 00 	nop    DWORD PTR [rax+0x0]

00000000000040c0 <_ZN5lexer5Lexer15skip_whitespaceEv>:
    40c0:	55                   	push   rbp
    40c1:	48 89 e5             	mov    rbp,rsp
    40c4:	48 83 ec 20          	sub    rsp,0x20
    40c8:	48 89 7d f8          	mov    QWORD PTR [rbp-0x8],rdi
    40cc:	48 8b 45 f8          	mov    rax,QWORD PTR [rbp-0x8]
    40d0:	48 89 45 e8          	mov    QWORD PTR [rbp-0x18],rax
    40d4:	8a 40 28             	mov    al,BYTE PTR [rax+0x28]
    40d7:	88 45 f7             	mov    BYTE PTR [rbp-0x9],al
    40da:	0f be 45 f7          	movsx  eax,BYTE PTR [rbp-0x9]
    40de:	83 f8 20             	cmp    eax,0x20
    40e1:	0f 84 27 00 00 00    	je     410e <_ZN5lexer5Lexer15skip_whitespaceEv+0x4e>
    40e7:	0f be 45 f7          	movsx  eax,BYTE PTR [rbp-0x9]
    40eb:	83 f8 09             	cmp    eax,0x9
    40ee:	0f 84 1a 00 00 00    	je     410e <_ZN5lexer5Lexer15skip_whitespaceEv+0x4e>
    40f4:	0f be 45 f7          	movsx  eax,BYTE PTR [rbp-0x9]
    40f8:	83 f8 0a             	cmp    eax,0xa
    40fb:	0f 84 0d 00 00 00    	je     410e <_ZN5lexer5Lexer15skip_whitespaceEv+0x4e>
    4101:	0f be 45 f7          	movsx  eax,BYTE PTR [rbp-0x9]
    4105:	83 f8 0d             	cmp    eax,0xd
    4108:	0f 85 09 00 00 00    	jne    4117 <_ZN5lexer5Lexer15skip_whitespaceEv+0x57>
    410e:	48 8b 7d e8          	mov    rdi,QWORD PTR [rbp-0x18]
    4112:	e8 39 ee ff ff       	call   2f50 <_ZN5lexer5Lexer9read_charEv>
    4117:	48 83 c4 20          	add    rsp,0x20
    411b:	5d                   	pop    rbp
    411c:	c3                   	ret
    411d:	0f 1f 00             	nop    DWORD PTR [rax]

0000000000004120 <_ZN5lexer5Lexer9is_letterEc>:
    4120:	55                   	push   rbp
    4121:	48 89 e5             	mov    rbp,rsp
    4124:	40 88 f8             	mov    al,dil
    4127:	88 45 ff             	mov    BYTE PTR [rbp-0x1],al
    412a:	0f be 4d ff          	movsx  ecx,BYTE PTR [rbp-0x1]
    412e:	b8 61 00 00 00       	mov    eax,0x61
    4133:	39 c8                	cmp    eax,ecx
    4135:	0f 8f 12 00 00 00    	jg     414d <_ZN5lexer5Lexer9is_letterEc+0x2d>
    413b:	0f be 4d ff          	movsx  ecx,BYTE PTR [rbp-0x1]
    413f:	b0 01                	mov    al,0x1
    4141:	83 f9 7a             	cmp    ecx,0x7a
    4144:	88 45 fe             	mov    BYTE PTR [rbp-0x2],al
    4147:	0f 8e 30 00 00 00    	jle    417d <_ZN5lexer5Lexer9is_letterEc+0x5d>
    414d:	0f be 4d ff          	movsx  ecx,BYTE PTR [rbp-0x1]
    4151:	b8 41 00 00 00       	mov    eax,0x41
    4156:	39 c8                	cmp    eax,ecx
    4158:	0f 8f 12 00 00 00    	jg     4170 <_ZN5lexer5Lexer9is_letterEc+0x50>
    415e:	0f be 4d ff          	movsx  ecx,BYTE PTR [rbp-0x1]
    4162:	b0 01                	mov    al,0x1
    4164:	83 f9 5a             	cmp    ecx,0x5a
    4167:	88 45 fe             	mov    BYTE PTR [rbp-0x2],al
    416a:	0f 8e 0d 00 00 00    	jle    417d <_ZN5lexer5Lexer9is_letterEc+0x5d>
    4170:	0f be 45 ff          	movsx  eax,BYTE PTR [rbp-0x1]
    4174:	83 f8 5f             	cmp    eax,0x5f
    4177:	0f 94 c0             	sete   al
    417a:	88 45 fe             	mov    BYTE PTR [rbp-0x2],al
    417d:	8a 45 fe             	mov    al,BYTE PTR [rbp-0x2]
    4180:	24 01                	and    al,0x1
    4182:	0f b6 c0             	movzx  eax,al
    4185:	5d                   	pop    rbp
    4186:	c3                   	ret
    4187:	66 0f 1f 84 00 00 00 	nop    WORD PTR [rax+rax*1+0x0]
    418e:	00 00 

0000000000004190 <_ZZN5lexer5Lexer10next_tokenEvENKUlvE_clEv>:
    4190:	55                   	push   rbp
    4191:	48 89 e5             	mov    rbp,rsp
    4194:	48 81 ec 80 00 00 00 	sub    rsp,0x80
    419b:	48 89 7d 98          	mov    QWORD PTR [rbp-0x68],rdi
    419f:	48 89 f8             	mov    rax,rdi
    41a2:	48 89 45 a0          	mov    QWORD PTR [rbp-0x60],rax
    41a6:	48 89 7d f8          	mov    QWORD PTR [rbp-0x8],rdi
    41aa:	48 89 75 f0          	mov    QWORD PTR [rbp-0x10],rsi
    41ae:	48 8b 45 f0          	mov    rax,QWORD PTR [rbp-0x10]
    41b2:	48 8b 00             	mov    rax,QWORD PTR [rax]
    41b5:	48 89 45 a8          	mov    QWORD PTR [rbp-0x58],rax
    41b9:	48 8b 40 18          	mov    rax,QWORD PTR [rax+0x18]
    41bd:	48 89 45 e8          	mov    QWORD PTR [rbp-0x18],rax
    41c1:	48 8b 7d a8          	mov    rdi,QWORD PTR [rbp-0x58]
    41c5:	48 8b 47 18          	mov    rax,QWORD PTR [rdi+0x18]
    41c9:	48 89 45 88          	mov    QWORD PTR [rbp-0x78],rax
    41cd:	e8 be f7 ff ff       	call   3990 <_ZNKSt6vectorIcSaIcEE4sizeEv>
    41d2:	48 8b 4d 88          	mov    rcx,QWORD PTR [rbp-0x78]
    41d6:	48 89 c2             	mov    rdx,rax
    41d9:	31 c0                	xor    eax,eax
    41db:	48 39 d1             	cmp    rcx,rdx
    41de:	88 45 97             	mov    BYTE PTR [rbp-0x69],al
    41e1:	0f 83 10 00 00 00    	jae    41f7 <_ZZN5lexer5Lexer10next_tokenEvENKUlvE_clEv+0x67>
    41e7:	48 8b 45 a8          	mov    rax,QWORD PTR [rbp-0x58]
    41eb:	0f be 78 28          	movsx  edi,BYTE PTR [rax+0x28]
    41ef:	e8 2c ff ff ff       	call   4120 <_ZN5lexer5Lexer9is_letterEc>
    41f4:	88 45 97             	mov    BYTE PTR [rbp-0x69],al
    41f7:	8a 45 97             	mov    al,BYTE PTR [rbp-0x69]
    41fa:	a8 01                	test   al,0x1
    41fc:	0f 85 05 00 00 00    	jne    4207 <_ZZN5lexer5Lexer10next_tokenEvENKUlvE_clEv+0x77>
    4202:	e9 0e 00 00 00       	jmp    4215 <_ZZN5lexer5Lexer10next_tokenEvENKUlvE_clEv+0x85>
    4207:	48 8b 7d a8          	mov    rdi,QWORD PTR [rbp-0x58]
    420b:	e8 40 ed ff ff       	call   2f50 <_ZN5lexer5Lexer9read_charEv>
    4210:	e9 ac ff ff ff       	jmp    41c1 <_ZZN5lexer5Lexer10next_tokenEvENKUlvE_clEv+0x31>
    4215:	48 8b 7d a8          	mov    rdi,QWORD PTR [rbp-0x58]
    4219:	e8 72 03 00 00       	call   4590 <_ZNSt6vectorIcSaIcEE5beginEv>
    421e:	48 89 45 d8          	mov    QWORD PTR [rbp-0x28],rax
    4222:	48 8b 75 e8          	mov    rsi,QWORD PTR [rbp-0x18]
    4226:	48 8d 7d d8          	lea    rdi,[rbp-0x28]
    422a:	e8 91 03 00 00       	call   45c0 <_ZNK9__gnu_cxx17__normal_iteratorIPcSt6vectorIcSaIcEEEplEl>
    422f:	48 8b 7d a8          	mov    rdi,QWORD PTR [rbp-0x58]
    4233:	48 89 45 e0          	mov    QWORD PTR [rbp-0x20],rax
    4237:	e8 54 03 00 00       	call   4590 <_ZNSt6vectorIcSaIcEE5beginEv>
    423c:	48 89 c1             	mov    rcx,rax
    423f:	48 8b 45 a8          	mov    rax,QWORD PTR [rbp-0x58]
    4243:	48 89 4d c8          	mov    QWORD PTR [rbp-0x38],rcx
    4247:	48 8b 70 18          	mov    rsi,QWORD PTR [rax+0x18]
    424b:	48 8d 7d c8          	lea    rdi,[rbp-0x38]
    424f:	e8 6c 03 00 00       	call   45c0 <_ZNK9__gnu_cxx17__normal_iteratorIPcSt6vectorIcSaIcEEEplEl>
    4254:	48 89 45 d0          	mov    QWORD PTR [rbp-0x30],rax
    4258:	48 8d 7d c0          	lea    rdi,[rbp-0x40]
    425c:	48 89 7d 80          	mov    QWORD PTR [rbp-0x80],rdi
    4260:	e8 8b e0 ff ff       	call   22f0 <_ZNSaIcEC1Ev@plt>
    4265:	48 8b 7d 98          	mov    rdi,QWORD PTR [rbp-0x68]
    4269:	48 8b 4d 80          	mov    rcx,QWORD PTR [rbp-0x80]
    426d:	48 8b 75 e0          	mov    rsi,QWORD PTR [rbp-0x20]
    4271:	48 8b 55 d0          	mov    rdx,QWORD PTR [rbp-0x30]
    4275:	e8 86 03 00 00       	call   4600 <_ZNSt6vectorIcSaIcEEC2IN9__gnu_cxx17__normal_iteratorIPcS1_EEvEET_S7_RKS0_>
    427a:	e9 00 00 00 00       	jmp    427f <_ZZN5lexer5Lexer10next_tokenEvENKUlvE_clEv+0xef>
    427f:	48 8d 7d c0          	lea    rdi,[rbp-0x40]
    4283:	e8 68 df ff ff       	call   21f0 <_ZNSaIcED1Ev@plt>
    4288:	48 8b 45 a0          	mov    rax,QWORD PTR [rbp-0x60]
    428c:	48 81 c4 80 00 00 00 	add    rsp,0x80
    4293:	5d                   	pop    rbp
    4294:	c3                   	ret
    4295:	48 89 c1             	mov    rcx,rax
    4298:	89 d0                	mov    eax,edx
    429a:	48 89 4d b8          	mov    QWORD PTR [rbp-0x48],rcx
    429e:	89 45 b4             	mov    DWORD PTR [rbp-0x4c],eax
    42a1:	48 8d 7d c0          	lea    rdi,[rbp-0x40]
    42a5:	e8 46 df ff ff       	call   21f0 <_ZNSaIcED1Ev@plt>
    42aa:	48 8b 7d b8          	mov    rdi,QWORD PTR [rbp-0x48]
    42ae:	e8 2d e0 ff ff       	call   22e0 <_Unwind_Resume@plt>
    42b3:	66 2e 0f 1f 84 00 00 	cs nop WORD PTR [rax+rax*1+0x0]
    42ba:	00 00 00 
    42bd:	0f 1f 00             	nop    DWORD PTR [rax]

00000000000042c0 <_Z17get_keyword_tokenRKSt6vectorIcSaIcEE>:
    42c0:	55                   	push   rbp
    42c1:	48 89 e5             	mov    rbp,rsp
    42c4:	48 81 ec 80 00 00 00 	sub    rsp,0x80
    42cb:	48 89 7d f8          	mov    QWORD PTR [rbp-0x8],rdi
    42cf:	48 8b 7d f8          	mov    rdi,QWORD PTR [rbp-0x8]
    42d3:	e8 b8 f7 ff ff       	call   3a90 <_ZNKSt6vectorIcSaIcEE5beginEv>
    42d8:	48 89 45 d0          	mov    QWORD PTR [rbp-0x30],rax
    42dc:	48 8b 7d f8          	mov    rdi,QWORD PTR [rbp-0x8]
    42e0:	e8 db f7 ff ff       	call   3ac0 <_ZNKSt6vectorIcSaIcEE3endEv>
    42e5:	48 89 45 c8          	mov    QWORD PTR [rbp-0x38],rax
    42e9:	48 8d 7d c0          	lea    rdi,[rbp-0x40]
    42ed:	48 89 7d 98          	mov    QWORD PTR [rbp-0x68],rdi
    42f1:	e8 fa df ff ff       	call   22f0 <_ZNSaIcEC1Ev@plt>
    42f6:	48 8b 4d 98          	mov    rcx,QWORD PTR [rbp-0x68]
    42fa:	48 8b 75 d0          	mov    rsi,QWORD PTR [rbp-0x30]
    42fe:	48 8b 55 c8          	mov    rdx,QWORD PTR [rbp-0x38]
    4302:	48 8d 7d d8          	lea    rdi,[rbp-0x28]
    4306:	e8 f5 08 00 00       	call   4c00 <_ZNSt7__cxx1112basic_stringIcSt11char_traitsIcESaIcEEC2IN9__gnu_cxx17__normal_iteratorIPKcSt6vectorIcS3_EEEvEET_SD_RKS3_>
    430b:	e9 00 00 00 00       	jmp    4310 <_Z17get_keyword_tokenRKSt6vectorIcSaIcEE+0x50>
    4310:	48 8d 7d c0          	lea    rdi,[rbp-0x40]
    4314:	e8 d7 de ff ff       	call   21f0 <_ZNSaIcED1Ev@plt>
    4319:	48 8d 3d 90 7e 00 00 	lea    rdi,[rip+0x7e90]        # c1b0 <_ZL10keywordMapB5cxx11>
    4320:	48 8d 75 d8          	lea    rsi,[rbp-0x28]
    4324:	e8 77 09 00 00       	call   4ca0 <_ZNKSt13unordered_mapINSt7__cxx1112basic_stringIcSt11char_traitsIcESaIcEEE5TokenSt4hashIS5_ESt8equal_toIS5_ESaISt4pairIKS5_S6_EEE4findERSC_>
    4329:	48 89 45 90          	mov    QWORD PTR [rbp-0x70],rax
    432d:	e9 00 00 00 00       	jmp    4332 <_Z17get_keyword_tokenRKSt6vectorIcSaIcEE+0x72>
    4332:	48 8b 45 90          	mov    rax,QWORD PTR [rbp-0x70]
    4336:	48 89 45 a8          	mov    QWORD PTR [rbp-0x58],rax
    433a:	48 8d 3d 6f 7e 00 00 	lea    rdi,[rip+0x7e6f]        # c1b0 <_ZL10keywordMapB5cxx11>
    4341:	e8 ba 09 00 00       	call   4d00 <_ZNKSt13unordered_mapINSt7__cxx1112basic_stringIcSt11char_traitsIcESaIcEEE5TokenSt4hashIS5_ESt8equal_toIS5_ESaISt4pairIKS5_S6_EEE3endEv>
    4346:	48 89 45 a0          	mov    QWORD PTR [rbp-0x60],rax
    434a:	48 8d 7d a8          	lea    rdi,[rbp-0x58]
    434e:	48 8d 75 a0          	lea    rsi,[rbp-0x60]
    4352:	e8 79 09 00 00       	call   4cd0 <_ZNSt8__detailneERKNS_19_Node_iterator_baseISt4pairIKNSt7__cxx1112basic_stringIcSt11char_traitsIcESaIcEEE5TokenELb1EEESD_>
    4357:	a8 01                	test   al,0x1
    4359:	0f 85 05 00 00 00    	jne    4364 <_Z17get_keyword_tokenRKSt6vectorIcSaIcEE+0xa4>
    435f:	e9 4f 00 00 00       	jmp    43b3 <_Z17get_keyword_tokenRKSt6vectorIcSaIcEE+0xf3>
    4364:	48 8d 7d a8          	lea    rdi,[rbp-0x58]
    4368:	e8 c3 09 00 00       	call   4d30 <_ZNKSt8__detail20_Node_const_iteratorISt4pairIKNSt7__cxx1112basic_stringIcSt11char_traitsIcESaIcEEE5TokenELb0ELb1EEptEv>
    436d:	8b 40 20             	mov    eax,DWORD PTR [rax+0x20]
    4370:	89 45 8c             	mov    DWORD PTR [rbp-0x74],eax
    4373:	48 8d 7d d8          	lea    rdi,[rbp-0x28]
    4377:	e8 84 dd ff ff       	call   2100 <_ZNSt7__cxx1112basic_stringIcSt11char_traitsIcESaIcEED1Ev@plt>
    437c:	8b 45 8c             	mov    eax,DWORD PTR [rbp-0x74]
    437f:	48 81 c4 80 00 00 00 	add    rsp,0x80
    4386:	5d                   	pop    rbp
    4387:	c3                   	ret
    4388:	48 89 c1             	mov    rcx,rax
    438b:	89 d0                	mov    eax,edx
    438d:	48 89 4d b8          	mov    QWORD PTR [rbp-0x48],rcx
    4391:	89 45 b4             	mov    DWORD PTR [rbp-0x4c],eax
    4394:	48 8d 7d c0          	lea    rdi,[rbp-0x40]
    4398:	e8 53 de ff ff       	call   21f0 <_ZNSaIcED1Ev@plt>
    439d:	e9 70 00 00 00       	jmp    4412 <_Z17get_keyword_tokenRKSt6vectorIcSaIcEE+0x152>
    43a2:	48 89 c1             	mov    rcx,rax
    43a5:	89 d0                	mov    eax,edx
    43a7:	48 89 4d b8          	mov    QWORD PTR [rbp-0x48],rcx
    43ab:	89 45 b4             	mov    DWORD PTR [rbp-0x4c],eax
    43ae:	e9 56 00 00 00       	jmp    4409 <_Z17get_keyword_tokenRKSt6vectorIcSaIcEE+0x149>
    43b3:	bf 10 00 00 00       	mov    edi,0x10
    43b8:	e8 f3 dc ff ff       	call   20b0 <__cxa_allocate_exception@plt>
    43bd:	48 89 c7             	mov    rdi,rax
    43c0:	48 89 f8             	mov    rax,rdi
    43c3:	48 89 45 80          	mov    QWORD PTR [rbp-0x80],rax
    43c7:	48 8d 35 32 3e 00 00 	lea    rsi,[rip+0x3e32]        # 8200 <_IO_stdin_used+0x200>
    43ce:	e8 3d df ff ff       	call   2310 <_ZNSt16invalid_argumentC1EPKc@plt>
    43d3:	e9 00 00 00 00       	jmp    43d8 <_Z17get_keyword_tokenRKSt6vectorIcSaIcEE+0x118>
    43d8:	48 8b 7d 80          	mov    rdi,QWORD PTR [rbp-0x80]
    43dc:	48 8b 35 e5 7b 00 00 	mov    rsi,QWORD PTR [rip+0x7be5]        # bfc8 <_ZTISt16invalid_argument@GLIBCXX_3.4>
    43e3:	48 8b 15 ce 7b 00 00 	mov    rdx,QWORD PTR [rip+0x7bce]        # bfb8 <_ZNSt16invalid_argumentD1Ev@GLIBCXX_3.4>
    43ea:	e8 d1 de ff ff       	call   22c0 <__cxa_throw@plt>
    43ef:	e9 27 00 00 00       	jmp    441b <_Z17get_keyword_tokenRKSt6vectorIcSaIcEE+0x15b>
    43f4:	48 8b 7d 80          	mov    rdi,QWORD PTR [rbp-0x80]
    43f8:	48 89 c1             	mov    rcx,rax
    43fb:	89 d0                	mov    eax,edx
    43fd:	48 89 4d b8          	mov    QWORD PTR [rbp-0x48],rcx
    4401:	89 45 b4             	mov    DWORD PTR [rbp-0x4c],eax
    4404:	e8 37 dd ff ff       	call   2140 <__cxa_free_exception@plt>
    4409:	48 8d 7d d8          	lea    rdi,[rbp-0x28]
    440d:	e8 ee dc ff ff       	call   2100 <_ZNSt7__cxx1112basic_stringIcSt11char_traitsIcESaIcEED1Ev@plt>
    4412:	48 8b 7d b8          	mov    rdi,QWORD PTR [rbp-0x48]
    4416:	e8 c5 de ff ff       	call   22e0 <_Unwind_Resume@plt>
    441b:	0f 1f 44 00 00       	nop    DWORD PTR [rax+rax*1+0x0]

0000000000004420 <_ZN5lexer5Lexer8is_digitEc>:
    4420:	55                   	push   rbp
    4421:	48 89 e5             	mov    rbp,rsp
    4424:	40 88 f8             	mov    al,dil
    4427:	88 45 ff             	mov    BYTE PTR [rbp-0x1],al
    442a:	0f be 55 ff          	movsx  edx,BYTE PTR [rbp-0x1]
    442e:	31 c0                	xor    eax,eax
    4430:	b9 30 00 00 00       	mov    ecx,0x30
    4435:	39 d1                	cmp    ecx,edx
    4437:	88 45 fe             	mov    BYTE PTR [rbp-0x2],al
    443a:	0f 8f 0d 00 00 00    	jg     444d <_ZN5lexer5Lexer8is_digitEc+0x2d>
    4440:	0f be 45 ff          	movsx  eax,BYTE PTR [rbp-0x1]
    4444:	83 f8 39             	cmp    eax,0x39
    4447:	0f 9e c0             	setle  al
    444a:	88 45 fe             	mov    BYTE PTR [rbp-0x2],al
    444d:	8a 45 fe             	mov    al,BYTE PTR [rbp-0x2]
    4450:	24 01                	and    al,0x1
    4452:	0f b6 c0             	movzx  eax,al
    4455:	5d                   	pop    rbp
    4456:	c3                   	ret
    4457:	66 0f 1f 84 00 00 00 	nop    WORD PTR [rax+rax*1+0x0]
    445e:	00 00 

0000000000004460 <_ZZN5lexer5Lexer10next_tokenEvENKUlvE0_clEv>:
    4460:	55                   	push   rbp
    4461:	48 89 e5             	mov    rbp,rsp
    4464:	48 81 ec 80 00 00 00 	sub    rsp,0x80
    446b:	48 89 7d 98          	mov    QWORD PTR [rbp-0x68],rdi
    446f:	48 89 f8             	mov    rax,rdi
    4472:	48 89 45 a0          	mov    QWORD PTR [rbp-0x60],rax
    4476:	48 89 7d f8          	mov    QWORD PTR [rbp-0x8],rdi
    447a:	48 89 75 f0          	mov    QWORD PTR [rbp-0x10],rsi
    447e:	48 8b 45 f0          	mov    rax,QWORD PTR [rbp-0x10]
    4482:	48 8b 00             	mov    rax,QWORD PTR [rax]
    4485:	48 89 45 a8          	mov    QWORD PTR [rbp-0x58],rax
    4489:	48 8b 40 18          	mov    rax,QWORD PTR [rax+0x18]
    448d:	48 89 45 e8          	mov    QWORD PTR [rbp-0x18],rax
    4491:	48 8b 7d a8          	mov    rdi,QWORD PTR [rbp-0x58]
    4495:	48 8b 47 18          	mov    rax,QWORD PTR [rdi+0x18]
    4499:	48 89 45 88          	mov    QWORD PTR [rbp-0x78],rax
    449d:	e8 ee f4 ff ff       	call   3990 <_ZNKSt6vectorIcSaIcEE4sizeEv>
    44a2:	48 8b 4d 88          	mov    rcx,QWORD PTR [rbp-0x78]
    44a6:	48 89 c2             	mov    rdx,rax
    44a9:	31 c0                	xor    eax,eax
    44ab:	48 39 d1             	cmp    rcx,rdx
    44ae:	88 45 97             	mov    BYTE PTR [rbp-0x69],al
    44b1:	0f 83 10 00 00 00    	jae    44c7 <_ZZN5lexer5Lexer10next_tokenEvENKUlvE0_clEv+0x67>
    44b7:	48 8b 45 a8          	mov    rax,QWORD PTR [rbp-0x58]
    44bb:	0f be 78 28          	movsx  edi,BYTE PTR [rax+0x28]
    44bf:	e8 5c ff ff ff       	call   4420 <_ZN5lexer5Lexer8is_digitEc>
    44c4:	88 45 97             	mov    BYTE PTR [rbp-0x69],al
    44c7:	8a 45 97             	mov    al,BYTE PTR [rbp-0x69]
    44ca:	a8 01                	test   al,0x1
    44cc:	0f 85 05 00 00 00    	jne    44d7 <_ZZN5lexer5Lexer10next_tokenEvENKUlvE0_clEv+0x77>
    44d2:	e9 0e 00 00 00       	jmp    44e5 <_ZZN5lexer5Lexer10next_tokenEvENKUlvE0_clEv+0x85>
    44d7:	48 8b 7d a8          	mov    rdi,QWORD PTR [rbp-0x58]
    44db:	e8 70 ea ff ff       	call   2f50 <_ZN5lexer5Lexer9read_charEv>
    44e0:	e9 ac ff ff ff       	jmp    4491 <_ZZN5lexer5Lexer10next_tokenEvENKUlvE0_clEv+0x31>
    44e5:	48 8b 7d a8          	mov    rdi,QWORD PTR [rbp-0x58]
    44e9:	e8 a2 00 00 00       	call   4590 <_ZNSt6vectorIcSaIcEE5beginEv>
    44ee:	48 89 45 d8          	mov    QWORD PTR [rbp-0x28],rax
    44f2:	48 8b 75 e8          	mov    rsi,QWORD PTR [rbp-0x18]
    44f6:	48 8d 7d d8          	lea    rdi,[rbp-0x28]
    44fa:	e8 c1 00 00 00       	call   45c0 <_ZNK9__gnu_cxx17__normal_iteratorIPcSt6vectorIcSaIcEEEplEl>
    44ff:	48 8b 7d a8          	mov    rdi,QWORD PTR [rbp-0x58]
    4503:	48 89 45 e0          	mov    QWORD PTR [rbp-0x20],rax
    4507:	e8 84 00 00 00       	call   4590 <_ZNSt6vectorIcSaIcEE5beginEv>
    450c:	48 89 c1             	mov    rcx,rax
    450f:	48 8b 45 a8          	mov    rax,QWORD PTR [rbp-0x58]
    4513:	48 89 4d c8          	mov    QWORD PTR [rbp-0x38],rcx
    4517:	48 8b 70 18          	mov    rsi,QWORD PTR [rax+0x18]
    451b:	48 8d 7d c8          	lea    rdi,[rbp-0x38]
    451f:	e8 9c 00 00 00       	call   45c0 <_ZNK9__gnu_cxx17__normal_iteratorIPcSt6vectorIcSaIcEEEplEl>
    4524:	48 89 45 d0          	mov    QWORD PTR [rbp-0x30],rax
    4528:	48 8d 7d c0          	lea    rdi,[rbp-0x40]
    452c:	48 89 7d 80          	mov    QWORD PTR [rbp-0x80],rdi
    4530:	e8 bb dd ff ff       	call   22f0 <_ZNSaIcEC1Ev@plt>
    4535:	48 8b 7d 98          	mov    rdi,QWORD PTR [rbp-0x68]
    4539:	48 8b 4d 80          	mov    rcx,QWORD PTR [rbp-0x80]
    453d:	48 8b 75 e0          	mov    rsi,QWORD PTR [rbp-0x20]
    4541:	48 8b 55 d0          	mov    rdx,QWORD PTR [rbp-0x30]
    4545:	e8 b6 00 00 00       	call   4600 <_ZNSt6vectorIcSaIcEEC2IN9__gnu_cxx17__normal_iteratorIPcS1_EEvEET_S7_RKS0_>
    454a:	e9 00 00 00 00       	jmp    454f <_ZZN5lexer5Lexer10next_tokenEvENKUlvE0_clEv+0xef>
    454f:	48 8d 7d c0          	lea    rdi,[rbp-0x40]
    4553:	e8 98 dc ff ff       	call   21f0 <_ZNSaIcED1Ev@plt>
    4558:	48 8b 45 a0          	mov    rax,QWORD PTR [rbp-0x60]
    455c:	48 81 c4 80 00 00 00 	add    rsp,0x80
    4563:	5d                   	pop    rbp
    4564:	c3                   	ret
    4565:	48 89 c1             	mov    rcx,rax
    4568:	89 d0                	mov    eax,edx
    456a:	48 89 4d b8          	mov    QWORD PTR [rbp-0x48],rcx
    456e:	89 45 b4             	mov    DWORD PTR [rbp-0x4c],eax
    4571:	48 8d 7d c0          	lea    rdi,[rbp-0x40]
    4575:	e8 76 dc ff ff       	call   21f0 <_ZNSaIcED1Ev@plt>
    457a:	48 8b 7d b8          	mov    rdi,QWORD PTR [rbp-0x48]
    457e:	e8 5d dd ff ff       	call   22e0 <_Unwind_Resume@plt>
    4583:	66 2e 0f 1f 84 00 00 	cs nop WORD PTR [rax+rax*1+0x0]
    458a:	00 00 00 
    458d:	0f 1f 00             	nop    DWORD PTR [rax]

0000000000004590 <_ZNSt6vectorIcSaIcEE5beginEv>:
    4590:	55                   	push   rbp
    4591:	48 89 e5             	mov    rbp,rsp
    4594:	48 83 ec 10          	sub    rsp,0x10
    4598:	48 89 7d f0          	mov    QWORD PTR [rbp-0x10],rdi
    459c:	48 8b 75 f0          	mov    rsi,QWORD PTR [rbp-0x10]
    45a0:	48 8d 7d f8          	lea    rdi,[rbp-0x8]
    45a4:	e8 e7 00 00 00       	call   4690 <_ZN9__gnu_cxx17__normal_iteratorIPcSt6vectorIcSaIcEEEC2ERKS1_>
    45a9:	48 8b 45 f8          	mov    rax,QWORD PTR [rbp-0x8]
    45ad:	48 83 c4 10          	add    rsp,0x10
    45b1:	5d                   	pop    rbp
    45b2:	c3                   	ret
    45b3:	66 2e 0f 1f 84 00 00 	cs nop WORD PTR [rax+rax*1+0x0]
    45ba:	00 00 00 
    45bd:	0f 1f 00             	nop    DWORD PTR [rax]

00000000000045c0 <_ZNK9__gnu_cxx17__normal_iteratorIPcSt6vectorIcSaIcEEEplEl>:
    45c0:	55                   	push   rbp
    45c1:	48 89 e5             	mov    rbp,rsp
    45c4:	48 83 ec 20          	sub    rsp,0x20
    45c8:	48 89 7d f0          	mov    QWORD PTR [rbp-0x10],rdi
    45cc:	48 89 75 e8          	mov    QWORD PTR [rbp-0x18],rsi
    45d0:	48 8b 45 f0          	mov    rax,QWORD PTR [rbp-0x10]
    45d4:	48 8b 00             	mov    rax,QWORD PTR [rax]
    45d7:	48 03 45 e8          	add    rax,QWORD PTR [rbp-0x18]
    45db:	48 89 45 e0          	mov    QWORD PTR [rbp-0x20],rax
    45df:	48 8d 7d f8          	lea    rdi,[rbp-0x8]
    45e3:	48 8d 75 e0          	lea    rsi,[rbp-0x20]
    45e7:	e8 a4 00 00 00       	call   4690 <_ZN9__gnu_cxx17__normal_iteratorIPcSt6vectorIcSaIcEEEC2ERKS1_>
    45ec:	48 8b 45 f8          	mov    rax,QWORD PTR [rbp-0x8]
    45f0:	48 83 c4 20          	add    rsp,0x20
    45f4:	5d                   	pop    rbp
    45f5:	c3                   	ret
    45f6:	66 2e 0f 1f 84 00 00 	cs nop WORD PTR [rax+rax*1+0x0]
    45fd:	00 00 00 

0000000000004600 <_ZNSt6vectorIcSaIcEEC2IN9__gnu_cxx17__normal_iteratorIPcS1_EEvEET_S7_RKS0_>:
    4600:	55                   	push   rbp
    4601:	48 89 e5             	mov    rbp,rsp
    4604:	48 83 ec 60          	sub    rsp,0x60
    4608:	48 89 75 f8          	mov    QWORD PTR [rbp-0x8],rsi
    460c:	48 89 55 f0          	mov    QWORD PTR [rbp-0x10],rdx
    4610:	48 89 7d e8          	mov    QWORD PTR [rbp-0x18],rdi
    4614:	48 89 4d e0          	mov    QWORD PTR [rbp-0x20],rcx
    4618:	48 8b 7d e8          	mov    rdi,QWORD PTR [rbp-0x18]
    461c:	48 89 7d a8          	mov    QWORD PTR [rbp-0x58],rdi
    4620:	48 8b 75 e0          	mov    rsi,QWORD PTR [rbp-0x20]
    4624:	e8 87 00 00 00       	call   46b0 <_ZNSt12_Vector_baseIcSaIcEEC2ERKS0_>
    4629:	48 8b 45 f8          	mov    rax,QWORD PTR [rbp-0x8]
    462d:	48 89 45 d8          	mov    QWORD PTR [rbp-0x28],rax
    4631:	48 8b 45 f0          	mov    rax,QWORD PTR [rbp-0x10]
    4635:	48 89 45 d0          	mov    QWORD PTR [rbp-0x30],rax
    4639:	48 8d 7d f8          	lea    rdi,[rbp-0x8]
    463d:	e8 5e 01 00 00       	call   47a0 <_ZSt19__iterator_categoryIN9__gnu_cxx17__normal_iteratorIPcSt6vectorIcSaIcEEEEENSt15iterator_traitsIT_E17iterator_categoryERKS8_>
    4642:	e9 00 00 00 00       	jmp    4647 <_ZNSt6vectorIcSaIcEEC2IN9__gnu_cxx17__normal_iteratorIPcS1_EEvEET_S7_RKS0_+0x47>
    4647:	48 8b 7d a8          	mov    rdi,QWORD PTR [rbp-0x58]
    464b:	48 8b 75 d8          	mov    rsi,QWORD PTR [rbp-0x28]
    464f:	48 8b 55 d0          	mov    rdx,QWORD PTR [rbp-0x30]
    4653:	e8 88 00 00 00       	call   46e0 <_ZNSt6vectorIcSaIcEE19_M_range_initializeIN9__gnu_cxx17__normal_iteratorIPcS1_EEEEvT_S7_St20forward_iterator_tag>
    4658:	e9 00 00 00 00       	jmp    465d <_ZNSt6vectorIcSaIcEEC2IN9__gnu_cxx17__normal_iteratorIPcS1_EEvEET_S7_RKS0_+0x5d>
    465d:	48 83 c4 60          	add    rsp,0x60
    4661:	5d                   	pop    rbp
    4662:	c3                   	ret
    4663:	48 8b 7d a8          	mov    rdi,QWORD PTR [rbp-0x58]
    4667:	48 89 c1             	mov    rcx,rax
    466a:	89 d0                	mov    eax,edx
    466c:	48 89 4d b8          	mov    QWORD PTR [rbp-0x48],rcx
    4670:	89 45 b4             	mov    DWORD PTR [rbp-0x4c],eax
    4673:	e8 88 f4 ff ff       	call   3b00 <_ZNSt12_Vector_baseIcSaIcEED2Ev>
    4678:	48 8b 7d b8          	mov    rdi,QWORD PTR [rbp-0x48]
    467c:	e8 5f dc ff ff       	call   22e0 <_Unwind_Resume@plt>
    4681:	66 2e 0f 1f 84 00 00 	cs nop WORD PTR [rax+rax*1+0x0]
    4688:	00 00 00 
    468b:	0f 1f 44 00 00       	nop    DWORD PTR [rax+rax*1+0x0]

0000000000004690 <_ZN9__gnu_cxx17__normal_iteratorIPcSt6vectorIcSaIcEEEC2ERKS1_>:
    4690:	55                   	push   rbp
    4691:	48 89 e5             	mov    rbp,rsp
    4694:	48 89 7d f8          	mov    QWORD PTR [rbp-0x8],rdi
    4698:	48 89 75 f0          	mov    QWORD PTR [rbp-0x10],rsi
    469c:	48 8b 45 f8          	mov    rax,QWORD PTR [rbp-0x8]
    46a0:	48 8b 4d f0          	mov    rcx,QWORD PTR [rbp-0x10]
    46a4:	48 8b 09             	mov    rcx,QWORD PTR [rcx]
    46a7:	48 89 08             	mov    QWORD PTR [rax],rcx
    46aa:	5d                   	pop    rbp
    46ab:	c3                   	ret
    46ac:	0f 1f 40 00          	nop    DWORD PTR [rax+0x0]

00000000000046b0 <_ZNSt12_Vector_baseIcSaIcEEC2ERKS0_>:
    46b0:	55                   	push   rbp
    46b1:	48 89 e5             	mov    rbp,rsp
    46b4:	48 83 ec 10          	sub    rsp,0x10
    46b8:	48 89 7d f8          	mov    QWORD PTR [rbp-0x8],rdi
    46bc:	48 89 75 f0          	mov    QWORD PTR [rbp-0x10],rsi
    46c0:	48 8b 7d f8          	mov    rdi,QWORD PTR [rbp-0x8]
    46c4:	48 8b 75 f0          	mov    rsi,QWORD PTR [rbp-0x10]
    46c8:	e8 a3 f4 ff ff       	call   3b70 <_ZNSt12_Vector_baseIcSaIcEE12_Vector_implC2ERKS0_>
    46cd:	48 83 c4 10          	add    rsp,0x10
    46d1:	5d                   	pop    rbp
    46d2:	c3                   	ret
    46d3:	66 2e 0f 1f 84 00 00 	cs nop WORD PTR [rax+rax*1+0x0]
    46da:	00 00 00 
    46dd:	0f 1f 00             	nop    DWORD PTR [rax]

00000000000046e0 <_ZNSt6vectorIcSaIcEE19_M_range_initializeIN9__gnu_cxx17__normal_iteratorIPcS1_EEEEvT_S7_St20forward_iterator_tag>:
    46e0:	55                   	push   rbp
    46e1:	48 89 e5             	mov    rbp,rsp
    46e4:	48 83 ec 60          	sub    rsp,0x60
    46e8:	48 89 75 f8          	mov    QWORD PTR [rbp-0x8],rsi
    46ec:	48 89 55 f0          	mov    QWORD PTR [rbp-0x10],rdx
    46f0:	48 89 7d e0          	mov    QWORD PTR [rbp-0x20],rdi
    46f4:	48 8b 45 e0          	mov    rax,QWORD PTR [rbp-0x20]
    46f8:	48 89 45 b0          	mov    QWORD PTR [rbp-0x50],rax
    46fc:	48 8b 45 f8          	mov    rax,QWORD PTR [rbp-0x8]
    4700:	48 89 45 d0          	mov    QWORD PTR [rbp-0x30],rax
    4704:	48 8b 45 f0          	mov    rax,QWORD PTR [rbp-0x10]
    4708:	48 89 45 c8          	mov    QWORD PTR [rbp-0x38],rax
    470c:	48 8b 7d d0          	mov    rdi,QWORD PTR [rbp-0x30]
    4710:	48 8b 75 c8          	mov    rsi,QWORD PTR [rbp-0x38]
    4714:	e8 97 00 00 00       	call   47b0 <_ZSt8distanceIN9__gnu_cxx17__normal_iteratorIPcSt6vectorIcSaIcEEEEENSt15iterator_traitsIT_E15difference_typeES8_S8_>
    4719:	48 8b 7d b0          	mov    rdi,QWORD PTR [rbp-0x50]
    471d:	48 89 45 d8          	mov    QWORD PTR [rbp-0x28],rax
    4721:	48 8b 45 d8          	mov    rax,QWORD PTR [rbp-0x28]
    4725:	48 89 45 a0          	mov    QWORD PTR [rbp-0x60],rax
    4729:	e8 c2 f3 ff ff       	call   3af0 <_ZNSt12_Vector_baseIcSaIcEE19_M_get_Tp_allocatorEv>
    472e:	48 8b 7d a0          	mov    rdi,QWORD PTR [rbp-0x60]
    4732:	48 89 c6             	mov    rsi,rax
    4735:	e8 b6 00 00 00       	call   47f0 <_ZNSt6vectorIcSaIcEE17_S_check_init_lenEmRKS0_>
    473a:	48 8b 7d b0          	mov    rdi,QWORD PTR [rbp-0x50]
    473e:	48 89 c6             	mov    rsi,rax
    4741:	e8 fa f4 ff ff       	call   3c40 <_ZNSt12_Vector_baseIcSaIcEE11_M_allocateEm>
    4746:	48 8b 7d b0          	mov    rdi,QWORD PTR [rbp-0x50]
    474a:	48 89 07             	mov    QWORD PTR [rdi],rax
    474d:	48 8b 07             	mov    rax,QWORD PTR [rdi]
    4750:	48 03 45 d8          	add    rax,QWORD PTR [rbp-0x28]
    4754:	48 89 47 10          	mov    QWORD PTR [rdi+0x10],rax
    4758:	48 8b 45 f8          	mov    rax,QWORD PTR [rbp-0x8]
    475c:	48 89 45 c0          	mov    QWORD PTR [rbp-0x40],rax
    4760:	48 8b 45 f0          	mov    rax,QWORD PTR [rbp-0x10]
    4764:	48 89 45 b8          	mov    QWORD PTR [rbp-0x48],rax
    4768:	48 8b 07             	mov    rax,QWORD PTR [rdi]
    476b:	48 89 45 a8          	mov    QWORD PTR [rbp-0x58],rax
    476f:	e8 7c f3 ff ff       	call   3af0 <_ZNSt12_Vector_baseIcSaIcEE19_M_get_Tp_allocatorEv>
    4774:	48 8b 55 a8          	mov    rdx,QWORD PTR [rbp-0x58]
    4778:	48 89 c1             	mov    rcx,rax
    477b:	48 8b 7d c0          	mov    rdi,QWORD PTR [rbp-0x40]
    477f:	48 8b 75 b8          	mov    rsi,QWORD PTR [rbp-0x48]
    4783:	e8 d8 00 00 00       	call   4860 <_ZSt22__uninitialized_copy_aIN9__gnu_cxx17__normal_iteratorIPcSt6vectorIcSaIcEEEES2_cET0_T_S8_S7_RSaIT1_E>
    4788:	48 89 c1             	mov    rcx,rax
    478b:	48 8b 45 b0          	mov    rax,QWORD PTR [rbp-0x50]
    478f:	48 89 48 08          	mov    QWORD PTR [rax+0x8],rcx
    4793:	48 83 c4 60          	add    rsp,0x60
    4797:	5d                   	pop    rbp
    4798:	c3                   	ret
    4799:	0f 1f 80 00 00 00 00 	nop    DWORD PTR [rax+0x0]

00000000000047a0 <_ZSt19__iterator_categoryIN9__gnu_cxx17__normal_iteratorIPcSt6vectorIcSaIcEEEEENSt15iterator_traitsIT_E17iterator_categoryERKS8_>:
    47a0:	55                   	push   rbp
    47a1:	48 89 e5             	mov    rbp,rsp
    47a4:	48 89 7d f8          	mov    QWORD PTR [rbp-0x8],rdi
    47a8:	5d                   	pop    rbp
    47a9:	c3                   	ret
    47aa:	66 0f 1f 44 00 00    	nop    WORD PTR [rax+rax*1+0x0]

00000000000047b0 <_ZSt8distanceIN9__gnu_cxx17__normal_iteratorIPcSt6vectorIcSaIcEEEEENSt15iterator_traitsIT_E15difference_typeES8_S8_>:
    47b0:	55                   	push   rbp
    47b1:	48 89 e5             	mov    rbp,rsp
    47b4:	48 83 ec 30          	sub    rsp,0x30
    47b8:	48 89 7d f8          	mov    QWORD PTR [rbp-0x8],rdi
    47bc:	48 89 75 f0          	mov    QWORD PTR [rbp-0x10],rsi
    47c0:	48 8b 45 f8          	mov    rax,QWORD PTR [rbp-0x8]
    47c4:	48 89 45 e8          	mov    QWORD PTR [rbp-0x18],rax
    47c8:	48 8b 45 f0          	mov    rax,QWORD PTR [rbp-0x10]
    47cc:	48 89 45 e0          	mov    QWORD PTR [rbp-0x20],rax
    47d0:	48 8d 7d f8          	lea    rdi,[rbp-0x8]
    47d4:	e8 c7 ff ff ff       	call   47a0 <_ZSt19__iterator_categoryIN9__gnu_cxx17__normal_iteratorIPcSt6vectorIcSaIcEEEEENSt15iterator_traitsIT_E17iterator_categoryERKS8_>
    47d9:	48 8b 7d e8          	mov    rdi,QWORD PTR [rbp-0x18]
    47dd:	48 8b 75 e0          	mov    rsi,QWORD PTR [rbp-0x20]
    47e1:	e8 ba 00 00 00       	call   48a0 <_ZSt10__distanceIN9__gnu_cxx17__normal_iteratorIPcSt6vectorIcSaIcEEEEENSt15iterator_traitsIT_E15difference_typeES8_S8_St26random_access_iterator_tag>
    47e6:	48 83 c4 30          	add    rsp,0x30
    47ea:	5d                   	pop    rbp
    47eb:	c3                   	ret
    47ec:	0f 1f 40 00          	nop    DWORD PTR [rax+0x0]

00000000000047f0 <_ZNSt6vectorIcSaIcEE17_S_check_init_lenEmRKS0_>:
    47f0:	55                   	push   rbp
    47f1:	48 89 e5             	mov    rbp,rsp
    47f4:	48 83 ec 30          	sub    rsp,0x30
    47f8:	48 89 7d f8          	mov    QWORD PTR [rbp-0x8],rdi
    47fc:	48 89 75 f0          	mov    QWORD PTR [rbp-0x10],rsi
    4800:	48 8b 45 f8          	mov    rax,QWORD PTR [rbp-0x8]
    4804:	48 89 45 e0          	mov    QWORD PTR [rbp-0x20],rax
    4808:	48 8b 75 f0          	mov    rsi,QWORD PTR [rbp-0x10]
    480c:	48 8d 7d e8          	lea    rdi,[rbp-0x18]
    4810:	e8 cb d8 ff ff       	call   20e0 <_ZNSaIcEC1ERKS_@plt>
    4815:	48 8d 7d e8          	lea    rdi,[rbp-0x18]
    4819:	e8 02 01 00 00       	call   4920 <_ZNSt6vectorIcSaIcEE11_S_max_sizeERKS0_>
    481e:	48 89 45 d8          	mov    QWORD PTR [rbp-0x28],rax
    4822:	48 8d 7d e8          	lea    rdi,[rbp-0x18]
    4826:	e8 c5 d9 ff ff       	call   21f0 <_ZNSaIcED1Ev@plt>
    482b:	48 8b 4d d8          	mov    rcx,QWORD PTR [rbp-0x28]
    482f:	48 8b 45 e0          	mov    rax,QWORD PTR [rbp-0x20]
    4833:	48 39 c8             	cmp    rax,rcx
    4836:	0f 86 0c 00 00 00    	jbe    4848 <_ZNSt6vectorIcSaIcEE17_S_check_init_lenEmRKS0_+0x58>
    483c:	48 8d 3d 8c 39 00 00 	lea    rdi,[rip+0x398c]        # 81cf <_IO_stdin_used+0x1cf>
    4843:	e8 78 d8 ff ff       	call   20c0 <_ZSt20__throw_length_errorPKc@plt>
    4848:	48 8b 45 f8          	mov    rax,QWORD PTR [rbp-0x8]
    484c:	48 83 c4 30          	add    rsp,0x30
    4850:	5d                   	pop    rbp
    4851:	c3                   	ret
    4852:	66 2e 0f 1f 84 00 00 	cs nop WORD PTR [rax+rax*1+0x0]
    4859:	00 00 00 
    485c:	0f 1f 40 00          	nop    DWORD PTR [rax+0x0]

0000000000004860 <_ZSt22__uninitialized_copy_aIN9__gnu_cxx17__normal_iteratorIPcSt6vectorIcSaIcEEEES2_cET0_T_S8_S7_RSaIT1_E>:
    4860:	55                   	push   rbp
    4861:	48 89 e5             	mov    rbp,rsp
    4864:	48 83 ec 30          	sub    rsp,0x30
    4868:	48 89 7d f8          	mov    QWORD PTR [rbp-0x8],rdi
    486c:	48 89 75 f0          	mov    QWORD PTR [rbp-0x10],rsi
    4870:	48 89 55 e8          	mov    QWORD PTR [rbp-0x18],rdx
    4874:	48 89 4d e0          	mov    QWORD PTR [rbp-0x20],rcx
    4878:	48 8b 45 f8          	mov    rax,QWORD PTR [rbp-0x8]
    487c:	48 89 45 d8          	mov    QWORD PTR [rbp-0x28],rax
    4880:	48 8b 45 f0          	mov    rax,QWORD PTR [rbp-0x10]
    4884:	48 89 45 d0          	mov    QWORD PTR [rbp-0x30],rax
    4888:	48 8b 55 e8          	mov    rdx,QWORD PTR [rbp-0x18]
    488c:	48 8b 7d d8          	mov    rdi,QWORD PTR [rbp-0x28]
    4890:	48 8b 75 d0          	mov    rsi,QWORD PTR [rbp-0x30]
    4894:	e8 67 01 00 00       	call   4a00 <_ZSt18uninitialized_copyIN9__gnu_cxx17__normal_iteratorIPcSt6vectorIcSaIcEEEES2_ET0_T_S8_S7_>
    4899:	48 83 c4 30          	add    rsp,0x30
    489d:	5d                   	pop    rbp
    489e:	c3                   	ret
    489f:	90                   	nop

00000000000048a0 <_ZSt10__distanceIN9__gnu_cxx17__normal_iteratorIPcSt6vectorIcSaIcEEEEENSt15iterator_traitsIT_E15difference_typeES8_S8_St26random_access_iterator_tag>:
    48a0:	55                   	push   rbp
    48a1:	48 89 e5             	mov    rbp,rsp
    48a4:	48 83 ec 20          	sub    rsp,0x20
    48a8:	48 89 7d f8          	mov    QWORD PTR [rbp-0x8],rdi
    48ac:	48 89 75 f0          	mov    QWORD PTR [rbp-0x10],rsi
    48b0:	48 8d 7d f0          	lea    rdi,[rbp-0x10]
    48b4:	48 8d 75 f8          	lea    rsi,[rbp-0x8]
    48b8:	e8 13 00 00 00       	call   48d0 <_ZN9__gnu_cxxmiIPcSt6vectorIcSaIcEEEENS_17__normal_iteratorIT_T0_E15difference_typeERKS8_SB_>
    48bd:	48 83 c4 20          	add    rsp,0x20
    48c1:	5d                   	pop    rbp
    48c2:	c3                   	ret
    48c3:	66 2e 0f 1f 84 00 00 	cs nop WORD PTR [rax+rax*1+0x0]
    48ca:	00 00 00 
    48cd:	0f 1f 00             	nop    DWORD PTR [rax]

00000000000048d0 <_ZN9__gnu_cxxmiIPcSt6vectorIcSaIcEEEENS_17__normal_iteratorIT_T0_E15difference_typeERKS8_SB_>:
    48d0:	55                   	push   rbp
    48d1:	48 89 e5             	mov    rbp,rsp
    48d4:	48 83 ec 20          	sub    rsp,0x20
    48d8:	48 89 7d f8          	mov    QWORD PTR [rbp-0x8],rdi
    48dc:	48 89 75 f0          	mov    QWORD PTR [rbp-0x10],rsi
    48e0:	48 8b 7d f8          	mov    rdi,QWORD PTR [rbp-0x8]
    48e4:	e8 27 00 00 00       	call   4910 <_ZNK9__gnu_cxx17__normal_iteratorIPcSt6vectorIcSaIcEEE4baseEv>
    48e9:	48 8b 00             	mov    rax,QWORD PTR [rax]
    48ec:	48 89 45 e8          	mov    QWORD PTR [rbp-0x18],rax
    48f0:	48 8b 7d f0          	mov    rdi,QWORD PTR [rbp-0x10]
    48f4:	e8 17 00 00 00       	call   4910 <_ZNK9__gnu_cxx17__normal_iteratorIPcSt6vectorIcSaIcEEE4baseEv>
    48f9:	48 89 c1             	mov    rcx,rax
    48fc:	48 8b 45 e8          	mov    rax,QWORD PTR [rbp-0x18]
    4900:	48 8b 09             	mov    rcx,QWORD PTR [rcx]
    4903:	48 29 c8             	sub    rax,rcx
    4906:	48 83 c4 20          	add    rsp,0x20
    490a:	5d                   	pop    rbp
    490b:	c3                   	ret
    490c:	0f 1f 40 00          	nop    DWORD PTR [rax+0x0]

0000000000004910 <_ZNK9__gnu_cxx17__normal_iteratorIPcSt6vectorIcSaIcEEE4baseEv>:
    4910:	55                   	push   rbp
    4911:	48 89 e5             	mov    rbp,rsp
    4914:	48 89 7d f8          	mov    QWORD PTR [rbp-0x8],rdi
    4918:	48 8b 45 f8          	mov    rax,QWORD PTR [rbp-0x8]
    491c:	5d                   	pop    rbp
    491d:	c3                   	ret
    491e:	66 90                	xchg   ax,ax

0000000000004920 <_ZNSt6vectorIcSaIcEE11_S_max_sizeERKS0_>:
    4920:	55                   	push   rbp
    4921:	48 89 e5             	mov    rbp,rsp
    4924:	48 83 ec 20          	sub    rsp,0x20
    4928:	48 89 7d f8          	mov    QWORD PTR [rbp-0x8],rdi
    492c:	48 b8 ff ff ff ff ff 	movabs rax,0x7fffffffffffffff
    4933:	ff ff 7f 
    4936:	48 89 45 f0          	mov    QWORD PTR [rbp-0x10],rax
    493a:	48 8b 7d f8          	mov    rdi,QWORD PTR [rbp-0x8]
    493e:	e8 3d 00 00 00       	call   4980 <_ZNSt16allocator_traitsISaIcEE8max_sizeERKS0_>
    4943:	48 89 45 e8          	mov    QWORD PTR [rbp-0x18],rax
    4947:	48 8d 7d f0          	lea    rdi,[rbp-0x10]
    494b:	48 8d 75 e8          	lea    rsi,[rbp-0x18]
    494f:	e8 4c 00 00 00       	call   49a0 <_ZSt3minImERKT_S2_S2_>
    4954:	48 89 45 e0          	mov    QWORD PTR [rbp-0x20],rax
    4958:	e9 00 00 00 00       	jmp    495d <_ZNSt6vectorIcSaIcEE11_S_max_sizeERKS0_+0x3d>
    495d:	48 8b 45 e0          	mov    rax,QWORD PTR [rbp-0x20]
    4961:	48 8b 00             	mov    rax,QWORD PTR [rax]
    4964:	48 83 c4 20          	add    rsp,0x20
    4968:	5d                   	pop    rbp
    4969:	c3                   	ret
    496a:	48 89 c7             	mov    rdi,rax
    496d:	e8 7e ea ff ff       	call   33f0 <__clang_call_terminate>
    4972:	66 2e 0f 1f 84 00 00 	cs nop WORD PTR [rax+rax*1+0x0]
    4979:	00 00 00 
    497c:	0f 1f 40 00          	nop    DWORD PTR [rax+0x0]

0000000000004980 <_ZNSt16allocator_traitsISaIcEE8max_sizeERKS0_>:
    4980:	55                   	push   rbp
    4981:	48 89 e5             	mov    rbp,rsp
    4984:	48 83 ec 10          	sub    rsp,0x10
    4988:	48 89 7d f8          	mov    QWORD PTR [rbp-0x8],rdi
    498c:	48 8b 7d f8          	mov    rdi,QWORD PTR [rbp-0x8]
    4990:	e8 4b 00 00 00       	call   49e0 <_ZNKSt15__new_allocatorIcE8max_sizeEv>
    4995:	48 83 c4 10          	add    rsp,0x10
    4999:	5d                   	pop    rbp
    499a:	c3                   	ret
    499b:	0f 1f 44 00 00       	nop    DWORD PTR [rax+rax*1+0x0]

00000000000049a0 <_ZSt3minImERKT_S2_S2_>:
    49a0:	55                   	push   rbp
    49a1:	48 89 e5             	mov    rbp,rsp
    49a4:	48 89 7d f0          	mov    QWORD PTR [rbp-0x10],rdi
    49a8:	48 89 75 e8          	mov    QWORD PTR [rbp-0x18],rsi
    49ac:	48 8b 45 e8          	mov    rax,QWORD PTR [rbp-0x18]
    49b0:	48 8b 00             	mov    rax,QWORD PTR [rax]
    49b3:	48 8b 4d f0          	mov    rcx,QWORD PTR [rbp-0x10]
    49b7:	48 3b 01             	cmp    rax,QWORD PTR [rcx]
    49ba:	0f 83 0d 00 00 00    	jae    49cd <_ZSt3minImERKT_S2_S2_+0x2d>
    49c0:	48 8b 45 e8          	mov    rax,QWORD PTR [rbp-0x18]
    49c4:	48 89 45 f8          	mov    QWORD PTR [rbp-0x8],rax
    49c8:	e9 08 00 00 00       	jmp    49d5 <_ZSt3minImERKT_S2_S2_+0x35>
    49cd:	48 8b 45 f0          	mov    rax,QWORD PTR [rbp-0x10]
    49d1:	48 89 45 f8          	mov    QWORD PTR [rbp-0x8],rax
    49d5:	48 8b 45 f8          	mov    rax,QWORD PTR [rbp-0x8]
    49d9:	5d                   	pop    rbp
    49da:	c3                   	ret
    49db:	0f 1f 44 00 00       	nop    DWORD PTR [rax+rax*1+0x0]

00000000000049e0 <_ZNKSt15__new_allocatorIcE8max_sizeEv>:
    49e0:	55                   	push   rbp
    49e1:	48 89 e5             	mov    rbp,rsp
    49e4:	48 83 ec 10          	sub    rsp,0x10
    49e8:	48 89 7d f8          	mov    QWORD PTR [rbp-0x8],rdi
    49ec:	48 8b 7d f8          	mov    rdi,QWORD PTR [rbp-0x8]
    49f0:	e8 2b f3 ff ff       	call   3d20 <_ZNKSt15__new_allocatorIcE11_M_max_sizeEv>
    49f5:	48 83 c4 10          	add    rsp,0x10
    49f9:	5d                   	pop    rbp
    49fa:	c3                   	ret
    49fb:	0f 1f 44 00 00       	nop    DWORD PTR [rax+rax*1+0x0]

0000000000004a00 <_ZSt18uninitialized_copyIN9__gnu_cxx17__normal_iteratorIPcSt6vectorIcSaIcEEEES2_ET0_T_S8_S7_>:
    4a00:	55                   	push   rbp
    4a01:	48 89 e5             	mov    rbp,rsp
    4a04:	48 83 ec 30          	sub    rsp,0x30
    4a08:	48 89 7d f8          	mov    QWORD PTR [rbp-0x8],rdi
    4a0c:	48 89 75 f0          	mov    QWORD PTR [rbp-0x10],rsi
    4a10:	48 89 55 e8          	mov    QWORD PTR [rbp-0x18],rdx
    4a14:	c6 45 e7 01          	mov    BYTE PTR [rbp-0x19],0x1
    4a18:	c6 45 e6 01          	mov    BYTE PTR [rbp-0x1a],0x1
    4a1c:	48 8b 45 f8          	mov    rax,QWORD PTR [rbp-0x8]
    4a20:	48 89 45 d8          	mov    QWORD PTR [rbp-0x28],rax
    4a24:	48 8b 45 f0          	mov    rax,QWORD PTR [rbp-0x10]
    4a28:	48 89 45 d0          	mov    QWORD PTR [rbp-0x30],rax
    4a2c:	48 8b 55 e8          	mov    rdx,QWORD PTR [rbp-0x18]
    4a30:	48 8b 7d d8          	mov    rdi,QWORD PTR [rbp-0x28]
    4a34:	48 8b 75 d0          	mov    rsi,QWORD PTR [rbp-0x30]
    4a38:	e8 13 00 00 00       	call   4a50 <_ZNSt20__uninitialized_copyILb1EE13__uninit_copyIN9__gnu_cxx17__normal_iteratorIPcSt6vectorIcSaIcEEEES4_EET0_T_SA_S9_>
    4a3d:	48 83 c4 30          	add    rsp,0x30
    4a41:	5d                   	pop    rbp
    4a42:	c3                   	ret
    4a43:	66 2e 0f 1f 84 00 00 	cs nop WORD PTR [rax+rax*1+0x0]
    4a4a:	00 00 00 
    4a4d:	0f 1f 00             	nop    DWORD PTR [rax]

0000000000004a50 <_ZNSt20__uninitialized_copyILb1EE13__uninit_copyIN9__gnu_cxx17__normal_iteratorIPcSt6vectorIcSaIcEEEES4_EET0_T_SA_S9_>:
    4a50:	55                   	push   rbp
    4a51:	48 89 e5             	mov    rbp,rsp
    4a54:	48 83 ec 30          	sub    rsp,0x30
    4a58:	48 89 7d f8          	mov    QWORD PTR [rbp-0x8],rdi
    4a5c:	48 89 75 f0          	mov    QWORD PTR [rbp-0x10],rsi
    4a60:	48 89 55 e8          	mov    QWORD PTR [rbp-0x18],rdx
    4a64:	48 8b 45 f8          	mov    rax,QWORD PTR [rbp-0x8]
    4a68:	48 89 45 e0          	mov    QWORD PTR [rbp-0x20],rax
    4a6c:	48 8b 45 f0          	mov    rax,QWORD PTR [rbp-0x10]
    4a70:	48 89 45 d8          	mov    QWORD PTR [rbp-0x28],rax
    4a74:	48 8b 55 e8          	mov    rdx,QWORD PTR [rbp-0x18]
    4a78:	48 8b 7d e0          	mov    rdi,QWORD PTR [rbp-0x20]
    4a7c:	48 8b 75 d8          	mov    rsi,QWORD PTR [rbp-0x28]
    4a80:	e8 0b 00 00 00       	call   4a90 <_ZSt4copyIN9__gnu_cxx17__normal_iteratorIPcSt6vectorIcSaIcEEEES2_ET0_T_S8_S7_>
    4a85:	48 83 c4 30          	add    rsp,0x30
    4a89:	5d                   	pop    rbp
    4a8a:	c3                   	ret
    4a8b:	0f 1f 44 00 00       	nop    DWORD PTR [rax+rax*1+0x0]

0000000000004a90 <_ZSt4copyIN9__gnu_cxx17__normal_iteratorIPcSt6vectorIcSaIcEEEES2_ET0_T_S8_S7_>:
    4a90:	55                   	push   rbp
    4a91:	48 89 e5             	mov    rbp,rsp
    4a94:	48 83 ec 40          	sub    rsp,0x40
    4a98:	48 89 7d f8          	mov    QWORD PTR [rbp-0x8],rdi
    4a9c:	48 89 75 f0          	mov    QWORD PTR [rbp-0x10],rsi
    4aa0:	48 89 55 e8          	mov    QWORD PTR [rbp-0x18],rdx
    4aa4:	48 8b 45 f8          	mov    rax,QWORD PTR [rbp-0x8]
    4aa8:	48 89 45 d8          	mov    QWORD PTR [rbp-0x28],rax
    4aac:	48 8b 7d d8          	mov    rdi,QWORD PTR [rbp-0x28]
    4ab0:	e8 ab 00 00 00       	call   4b60 <_ZSt12__miter_baseIN9__gnu_cxx17__normal_iteratorIPcSt6vectorIcSaIcEEEEET_S7_>
    4ab5:	48 89 45 e0          	mov    QWORD PTR [rbp-0x20],rax
    4ab9:	48 8b 45 f0          	mov    rax,QWORD PTR [rbp-0x10]
    4abd:	48 89 45 c8          	mov    QWORD PTR [rbp-0x38],rax
    4ac1:	48 8b 7d c8          	mov    rdi,QWORD PTR [rbp-0x38]
    4ac5:	e8 96 00 00 00       	call   4b60 <_ZSt12__miter_baseIN9__gnu_cxx17__normal_iteratorIPcSt6vectorIcSaIcEEEEET_S7_>
    4aca:	48 89 45 d0          	mov    QWORD PTR [rbp-0x30],rax
    4ace:	48 8b 55 e8          	mov    rdx,QWORD PTR [rbp-0x18]
    4ad2:	48 8b 7d e0          	mov    rdi,QWORD PTR [rbp-0x20]
    4ad6:	48 8b 75 d0          	mov    rsi,QWORD PTR [rbp-0x30]
    4ada:	e8 11 00 00 00       	call   4af0 <_ZSt13__copy_move_aILb0EN9__gnu_cxx17__normal_iteratorIPcSt6vectorIcSaIcEEEES2_ET1_T0_S8_S7_>
    4adf:	48 83 c4 40          	add    rsp,0x40
    4ae3:	5d                   	pop    rbp
    4ae4:	c3                   	ret
    4ae5:	66 2e 0f 1f 84 00 00 	cs nop WORD PTR [rax+rax*1+0x0]
    4aec:	00 00 00 
    4aef:	90                   	nop

0000000000004af0 <_ZSt13__copy_move_aILb0EN9__gnu_cxx17__normal_iteratorIPcSt6vectorIcSaIcEEEES2_ET1_T0_S8_S7_>:
    4af0:	55                   	push   rbp
    4af1:	48 89 e5             	mov    rbp,rsp
    4af4:	48 83 ec 40          	sub    rsp,0x40
    4af8:	48 89 7d f8          	mov    QWORD PTR [rbp-0x8],rdi
    4afc:	48 89 75 f0          	mov    QWORD PTR [rbp-0x10],rsi
    4b00:	48 89 55 e8          	mov    QWORD PTR [rbp-0x18],rdx
    4b04:	48 8b 45 f8          	mov    rax,QWORD PTR [rbp-0x8]
    4b08:	48 89 45 e0          	mov    QWORD PTR [rbp-0x20],rax
    4b0c:	48 8b 7d e0          	mov    rdi,QWORD PTR [rbp-0x20]
    4b10:	e8 9b 00 00 00       	call   4bb0 <_ZSt12__niter_baseIPcSt6vectorIcSaIcEEET_N9__gnu_cxx17__normal_iteratorIS4_T0_EE>
    4b15:	48 89 45 c8          	mov    QWORD PTR [rbp-0x38],rax
    4b19:	48 8b 45 f0          	mov    rax,QWORD PTR [rbp-0x10]
    4b1d:	48 89 45 d8          	mov    QWORD PTR [rbp-0x28],rax
    4b21:	48 8b 7d d8          	mov    rdi,QWORD PTR [rbp-0x28]
    4b25:	e8 86 00 00 00       	call   4bb0 <_ZSt12__niter_baseIPcSt6vectorIcSaIcEEET_N9__gnu_cxx17__normal_iteratorIS4_T0_EE>
    4b2a:	48 89 45 d0          	mov    QWORD PTR [rbp-0x30],rax
    4b2e:	48 8b 7d e8          	mov    rdi,QWORD PTR [rbp-0x18]
    4b32:	e8 f9 f3 ff ff       	call   3f30 <_ZSt12__niter_baseIPcET_S1_>
    4b37:	48 8b 7d c8          	mov    rdi,QWORD PTR [rbp-0x38]
    4b3b:	48 8b 75 d0          	mov    rsi,QWORD PTR [rbp-0x30]
    4b3f:	48 89 c2             	mov    rdx,rax
    4b42:	e8 39 00 00 00       	call   4b80 <_ZSt14__copy_move_a1ILb0EPcS0_ET1_T0_S2_S1_>
    4b47:	48 89 c6             	mov    rsi,rax
    4b4a:	48 8d 7d e8          	lea    rdi,[rbp-0x18]
    4b4e:	e8 6d f3 ff ff       	call   3ec0 <_ZSt12__niter_wrapIPcET_RKS1_S1_>
    4b53:	48 83 c4 40          	add    rsp,0x40
    4b57:	5d                   	pop    rbp
    4b58:	c3                   	ret
    4b59:	0f 1f 80 00 00 00 00 	nop    DWORD PTR [rax+0x0]

0000000000004b60 <_ZSt12__miter_baseIN9__gnu_cxx17__normal_iteratorIPcSt6vectorIcSaIcEEEEET_S7_>:
    4b60:	55                   	push   rbp
    4b61:	48 89 e5             	mov    rbp,rsp
    4b64:	48 89 7d f0          	mov    QWORD PTR [rbp-0x10],rdi
    4b68:	48 8b 45 f0          	mov    rax,QWORD PTR [rbp-0x10]
    4b6c:	48 89 45 f8          	mov    QWORD PTR [rbp-0x8],rax
    4b70:	48 8b 45 f8          	mov    rax,QWORD PTR [rbp-0x8]
    4b74:	5d                   	pop    rbp
    4b75:	c3                   	ret
    4b76:	66 2e 0f 1f 84 00 00 	cs nop WORD PTR [rax+rax*1+0x0]
    4b7d:	00 00 00 

0000000000004b80 <_ZSt14__copy_move_a1ILb0EPcS0_ET1_T0_S2_S1_>:
    4b80:	55                   	push   rbp
    4b81:	48 89 e5             	mov    rbp,rsp
    4b84:	48 83 ec 20          	sub    rsp,0x20
    4b88:	48 89 7d f8          	mov    QWORD PTR [rbp-0x8],rdi
    4b8c:	48 89 75 f0          	mov    QWORD PTR [rbp-0x10],rsi
    4b90:	48 89 55 e8          	mov    QWORD PTR [rbp-0x18],rdx
    4b94:	48 8b 7d f8          	mov    rdi,QWORD PTR [rbp-0x8]
    4b98:	48 8b 75 f0          	mov    rsi,QWORD PTR [rbp-0x10]
    4b9c:	48 8b 55 e8          	mov    rdx,QWORD PTR [rbp-0x18]
    4ba0:	e8 2b 00 00 00       	call   4bd0 <_ZSt14__copy_move_a2ILb0EPcS0_ET1_T0_S2_S1_>
    4ba5:	48 83 c4 20          	add    rsp,0x20
    4ba9:	5d                   	pop    rbp
    4baa:	c3                   	ret
    4bab:	0f 1f 44 00 00       	nop    DWORD PTR [rax+rax*1+0x0]

0000000000004bb0 <_ZSt12__niter_baseIPcSt6vectorIcSaIcEEET_N9__gnu_cxx17__normal_iteratorIS4_T0_EE>:
    4bb0:	55                   	push   rbp
    4bb1:	48 89 e5             	mov    rbp,rsp
    4bb4:	48 83 ec 10          	sub    rsp,0x10
    4bb8:	48 89 7d f8          	mov    QWORD PTR [rbp-0x8],rdi
    4bbc:	48 8d 7d f8          	lea    rdi,[rbp-0x8]
    4bc0:	e8 4b fd ff ff       	call   4910 <_ZNK9__gnu_cxx17__normal_iteratorIPcSt6vectorIcSaIcEEE4baseEv>
    4bc5:	48 8b 00             	mov    rax,QWORD PTR [rax]
    4bc8:	48 83 c4 10          	add    rsp,0x10
    4bcc:	5d                   	pop    rbp
    4bcd:	c3                   	ret
    4bce:	66 90                	xchg   ax,ax

0000000000004bd0 <_ZSt14__copy_move_a2ILb0EPcS0_ET1_T0_S2_S1_>:
    4bd0:	55                   	push   rbp
    4bd1:	48 89 e5             	mov    rbp,rsp
    4bd4:	48 83 ec 20          	sub    rsp,0x20
    4bd8:	48 89 7d f8          	mov    QWORD PTR [rbp-0x8],rdi
    4bdc:	48 89 75 f0          	mov    QWORD PTR [rbp-0x10],rsi
    4be0:	48 89 55 e8          	mov    QWORD PTR [rbp-0x18],rdx
    4be4:	48 8b 7d f8          	mov    rdi,QWORD PTR [rbp-0x8]
    4be8:	48 8b 75 f0          	mov    rsi,QWORD PTR [rbp-0x10]
    4bec:	48 8b 55 e8          	mov    rdx,QWORD PTR [rbp-0x18]
    4bf0:	e8 7b f3 ff ff       	call   3f70 <_ZNSt11__copy_moveILb0ELb1ESt26random_access_iterator_tagE8__copy_mIcEEPT_PKS3_S6_S4_>
    4bf5:	48 83 c4 20          	add    rsp,0x20
    4bf9:	5d                   	pop    rbp
    4bfa:	c3                   	ret
    4bfb:	0f 1f 44 00 00       	nop    DWORD PTR [rax+rax*1+0x0]

0000000000004c00 <_ZNSt7__cxx1112basic_stringIcSt11char_traitsIcESaIcEEC2IN9__gnu_cxx17__normal_iteratorIPKcSt6vectorIcS3_EEEvEET_SD_RKS3_>:
    4c00:	55                   	push   rbp
    4c01:	48 89 e5             	mov    rbp,rsp
    4c04:	48 83 ec 60          	sub    rsp,0x60
    4c08:	48 89 75 f8          	mov    QWORD PTR [rbp-0x8],rsi
    4c0c:	48 89 55 f0          	mov    QWORD PTR [rbp-0x10],rdx
    4c10:	48 89 7d e8          	mov    QWORD PTR [rbp-0x18],rdi
    4c14:	48 89 4d e0          	mov    QWORD PTR [rbp-0x20],rcx
    4c18:	48 8b 7d e8          	mov    rdi,QWORD PTR [rbp-0x18]
    4c1c:	48 89 7d a8          	mov    QWORD PTR [rbp-0x58],rdi
    4c20:	48 89 f8             	mov    rax,rdi
    4c23:	48 89 45 a0          	mov    QWORD PTR [rbp-0x60],rax
    4c27:	e8 34 d5 ff ff       	call   2160 <_ZNSt7__cxx1112basic_stringIcSt11char_traitsIcESaIcEE13_M_local_dataEv@plt>
    4c2c:	48 8b 7d a8          	mov    rdi,QWORD PTR [rbp-0x58]
    4c30:	48 89 c6             	mov    rsi,rax
    4c33:	48 8b 55 e0          	mov    rdx,QWORD PTR [rbp-0x20]
    4c37:	e8 a4 d5 ff ff       	call   21e0 <_ZNSt7__cxx1112basic_stringIcSt11char_traitsIcESaIcEE12_Alloc_hiderC1EPcRKS3_@plt>
    4c3c:	48 8b 45 a8          	mov    rax,QWORD PTR [rbp-0x58]
    4c40:	48 c7 40 08 00 00 00 	mov    QWORD PTR [rax+0x8],0x0
    4c47:	00 
    4c48:	48 8b 45 f8          	mov    rax,QWORD PTR [rbp-0x8]
    4c4c:	48 89 45 d8          	mov    QWORD PTR [rbp-0x28],rax
    4c50:	48 8b 45 f0          	mov    rax,QWORD PTR [rbp-0x10]
    4c54:	48 89 45 d0          	mov    QWORD PTR [rbp-0x30],rax
    4c58:	48 8d 7d f8          	lea    rdi,[rbp-0x8]
    4c5c:	e8 2f 02 00 00       	call   4e90 <_ZSt19__iterator_categoryIN9__gnu_cxx17__normal_iteratorIPKcSt6vectorIcSaIcEEEEENSt15iterator_traitsIT_E17iterator_categoryERKS9_>
    4c61:	e9 00 00 00 00       	jmp    4c66 <_ZNSt7__cxx1112basic_stringIcSt11char_traitsIcESaIcEEC2IN9__gnu_cxx17__normal_iteratorIPKcSt6vectorIcS3_EEEvEET_SD_RKS3_+0x66>
    4c66:	48 8b 7d a0          	mov    rdi,QWORD PTR [rbp-0x60]
    4c6a:	48 8b 75 d8          	mov    rsi,QWORD PTR [rbp-0x28]
    4c6e:	48 8b 55 d0          	mov    rdx,QWORD PTR [rbp-0x30]
    4c72:	e8 e9 00 00 00       	call   4d60 <_ZNSt7__cxx1112basic_stringIcSt11char_traitsIcESaIcEE12_M_constructIN9__gnu_cxx17__normal_iteratorIPKcSt6vectorIcS3_EEEEEvT_SD_St20forward_iterator_tag>
    4c77:	e9 00 00 00 00       	jmp    4c7c <_ZNSt7__cxx1112basic_stringIcSt11char_traitsIcESaIcEEC2IN9__gnu_cxx17__normal_iteratorIPKcSt6vectorIcS3_EEEvEET_SD_RKS3_+0x7c>
    4c7c:	48 83 c4 60          	add    rsp,0x60
    4c80:	5d                   	pop    rbp
    4c81:	c3                   	ret
    4c82:	48 8b 7d a8          	mov    rdi,QWORD PTR [rbp-0x58]
    4c86:	48 89 c1             	mov    rcx,rax
    4c89:	89 d0                	mov    eax,edx
    4c8b:	48 89 4d b8          	mov    QWORD PTR [rbp-0x48],rcx
    4c8f:	89 45 b4             	mov    DWORD PTR [rbp-0x4c],eax
    4c92:	e8 09 02 00 00       	call   4ea0 <_ZNSt7__cxx1112basic_stringIcSt11char_traitsIcESaIcEE12_Alloc_hiderD2Ev>
    4c97:	48 8b 7d b8          	mov    rdi,QWORD PTR [rbp-0x48]
    4c9b:	e8 40 d6 ff ff       	call   22e0 <_Unwind_Resume@plt>

0000000000004ca0 <_ZNKSt13unordered_mapINSt7__cxx1112basic_stringIcSt11char_traitsIcESaIcEEE5TokenSt4hashIS5_ESt8equal_toIS5_ESaISt4pairIKS5_S6_EEE4findERSC_>:
    4ca0:	55                   	push   rbp
    4ca1:	48 89 e5             	mov    rbp,rsp
    4ca4:	48 83 ec 20          	sub    rsp,0x20
    4ca8:	48 89 7d f0          	mov    QWORD PTR [rbp-0x10],rdi
    4cac:	48 89 75 e8          	mov    QWORD PTR [rbp-0x18],rsi
    4cb0:	48 8b 7d f0          	mov    rdi,QWORD PTR [rbp-0x10]
    4cb4:	48 8b 75 e8          	mov    rsi,QWORD PTR [rbp-0x18]
    4cb8:	e8 43 04 00 00       	call   5100 <_ZNKSt10_HashtableINSt7__cxx1112basic_stringIcSt11char_traitsIcESaIcEEESt4pairIKS5_5TokenESaIS9_ENSt8__detail10_Select1stESt8equal_toIS5_ESt4hashIS5_ENSB_18_Mod_range_hashingENSB_20_Default_ranged_hashENSB_20_Prime_rehash_policyENSB_17_Hashtable_traitsILb1ELb0ELb1EEEE4findERS7_>
    4cbd:	48 89 45 f8          	mov    QWORD PTR [rbp-0x8],rax
    4cc1:	48 8b 45 f8          	mov    rax,QWORD PTR [rbp-0x8]
    4cc5:	48 83 c4 20          	add    rsp,0x20
    4cc9:	5d                   	pop    rbp
    4cca:	c3                   	ret
    4ccb:	0f 1f 44 00 00       	nop    DWORD PTR [rax+rax*1+0x0]

0000000000004cd0 <_ZNSt8__detailneERKNS_19_Node_iterator_baseISt4pairIKNSt7__cxx1112basic_stringIcSt11char_traitsIcESaIcEEE5TokenELb1EEESD_>:
    4cd0:	55                   	push   rbp
    4cd1:	48 89 e5             	mov    rbp,rsp
    4cd4:	48 89 7d f8          	mov    QWORD PTR [rbp-0x8],rdi
    4cd8:	48 89 75 f0          	mov    QWORD PTR [rbp-0x10],rsi
    4cdc:	48 8b 45 f8          	mov    rax,QWORD PTR [rbp-0x8]
    4ce0:	48 8b 00             	mov    rax,QWORD PTR [rax]
    4ce3:	48 8b 4d f0          	mov    rcx,QWORD PTR [rbp-0x10]
    4ce7:	48 3b 01             	cmp    rax,QWORD PTR [rcx]
    4cea:	0f 95 c0             	setne  al
    4ced:	24 01                	and    al,0x1
    4cef:	0f b6 c0             	movzx  eax,al
    4cf2:	5d                   	pop    rbp
    4cf3:	c3                   	ret
    4cf4:	66 2e 0f 1f 84 00 00 	cs nop WORD PTR [rax+rax*1+0x0]
    4cfb:	00 00 00 
    4cfe:	66 90                	xchg   ax,ax

0000000000004d00 <_ZNKSt13unordered_mapINSt7__cxx1112basic_stringIcSt11char_traitsIcESaIcEEE5TokenSt4hashIS5_ESt8equal_toIS5_ESaISt4pairIKS5_S6_EEE3endEv>:
    4d00:	55                   	push   rbp
    4d01:	48 89 e5             	mov    rbp,rsp
    4d04:	48 83 ec 10          	sub    rsp,0x10
    4d08:	48 89 7d f0          	mov    QWORD PTR [rbp-0x10],rdi
    4d0c:	48 8b 7d f0          	mov    rdi,QWORD PTR [rbp-0x10]
    4d10:	e8 5b 05 00 00       	call   5270 <_ZNKSt10_HashtableINSt7__cxx1112basic_stringIcSt11char_traitsIcESaIcEEESt4pairIKS5_5TokenESaIS9_ENSt8__detail10_Select1stESt8equal_toIS5_ESt4hashIS5_ENSB_18_Mod_range_hashingENSB_20_Default_ranged_hashENSB_20_Prime_rehash_policyENSB_17_Hashtable_traitsILb1ELb0ELb1EEEE3endEv>
    4d15:	48 89 45 f8          	mov    QWORD PTR [rbp-0x8],rax
    4d19:	48 8b 45 f8          	mov    rax,QWORD PTR [rbp-0x8]
    4d1d:	48 83 c4 10          	add    rsp,0x10
    4d21:	5d                   	pop    rbp
    4d22:	c3                   	ret
    4d23:	66 2e 0f 1f 84 00 00 	cs nop WORD PTR [rax+rax*1+0x0]
    4d2a:	00 00 00 
    4d2d:	0f 1f 00             	nop    DWORD PTR [rax]

0000000000004d30 <_ZNKSt8__detail20_Node_const_iteratorISt4pairIKNSt7__cxx1112basic_stringIcSt11char_traitsIcESaIcEEE5TokenELb0ELb1EEptEv>:
    4d30:	55                   	push   rbp
    4d31:	48 89 e5             	mov    rbp,rsp
    4d34:	48 83 ec 10          	sub    rsp,0x10
    4d38:	48 89 7d f8          	mov    QWORD PTR [rbp-0x8],rdi
    4d3c:	48 8b 45 f8          	mov    rax,QWORD PTR [rbp-0x8]
    4d40:	48 8b 38             	mov    rdi,QWORD PTR [rax]
    4d43:	48 83 c7 08          	add    rdi,0x8
    4d47:	e8 04 e8 ff ff       	call   3550 <_ZNSt8__detail21_Hash_node_value_baseISt4pairIKNSt7__cxx1112basic_stringIcSt11char_traitsIcESaIcEEE5TokenEE9_M_valptrEv>
    4d4c:	48 83 c4 10          	add    rsp,0x10
    4d50:	5d                   	pop    rbp
    4d51:	c3                   	ret
    4d52:	66 2e 0f 1f 84 00 00 	cs nop WORD PTR [rax+rax*1+0x0]
    4d59:	00 00 00 
    4d5c:	0f 1f 40 00          	nop    DWORD PTR [rax+0x0]

0000000000004d60 <_ZNSt7__cxx1112basic_stringIcSt11char_traitsIcESaIcEE12_M_constructIN9__gnu_cxx17__normal_iteratorIPKcSt6vectorIcS3_EEEEEvT_SD_St20forward_iterator_tag>:
    4d60:	55                   	push   rbp
    4d61:	48 89 e5             	mov    rbp,rsp
    4d64:	48 81 ec 80 00 00 00 	sub    rsp,0x80
    4d6b:	48 89 75 f0          	mov    QWORD PTR [rbp-0x10],rsi
    4d6f:	48 89 55 e8          	mov    QWORD PTR [rbp-0x18],rdx
    4d73:	48 89 7d d8          	mov    QWORD PTR [rbp-0x28],rdi
    4d77:	48 8b 45 d8          	mov    rax,QWORD PTR [rbp-0x28]
    4d7b:	48 89 45 90          	mov    QWORD PTR [rbp-0x70],rax
    4d7f:	48 8b 45 f0          	mov    rax,QWORD PTR [rbp-0x10]
    4d83:	48 89 45 c8          	mov    QWORD PTR [rbp-0x38],rax
    4d87:	48 8b 45 e8          	mov    rax,QWORD PTR [rbp-0x18]
    4d8b:	48 89 45 c0          	mov    QWORD PTR [rbp-0x40],rax
    4d8f:	48 8b 7d c8          	mov    rdi,QWORD PTR [rbp-0x38]
    4d93:	48 8b 75 c0          	mov    rsi,QWORD PTR [rbp-0x40]
    4d97:	e8 24 01 00 00       	call   4ec0 <_ZSt8distanceIN9__gnu_cxx17__normal_iteratorIPKcSt6vectorIcSaIcEEEEENSt15iterator_traitsIT_E15difference_typeES9_S9_>
    4d9c:	48 89 45 d0          	mov    QWORD PTR [rbp-0x30],rax
    4da0:	48 83 7d d0 0f       	cmp    QWORD PTR [rbp-0x30],0xf
    4da5:	0f 86 2f 00 00 00    	jbe    4dda <_ZNSt7__cxx1112basic_stringIcSt11char_traitsIcESaIcEE12_M_constructIN9__gnu_cxx17__normal_iteratorIPKcSt6vectorIcS3_EEEEEvT_SD_St20forward_iterator_tag+0x7a>
    4dab:	48 8b 7d 90          	mov    rdi,QWORD PTR [rbp-0x70]
    4daf:	48 8d 75 d0          	lea    rsi,[rbp-0x30]
    4db3:	31 c0                	xor    eax,eax
    4db5:	89 c2                	mov    edx,eax
    4db7:	e8 44 d5 ff ff       	call   2300 <_ZNSt7__cxx1112basic_stringIcSt11char_traitsIcESaIcEE9_M_createERmm@plt>
    4dbc:	48 8b 7d 90          	mov    rdi,QWORD PTR [rbp-0x70]
    4dc0:	48 89 c6             	mov    rsi,rax
    4dc3:	e8 a8 d3 ff ff       	call   2170 <_ZNSt7__cxx1112basic_stringIcSt11char_traitsIcESaIcEE7_M_dataEPc@plt>
    4dc8:	48 8b 7d 90          	mov    rdi,QWORD PTR [rbp-0x70]
    4dcc:	48 8b 75 d0          	mov    rsi,QWORD PTR [rbp-0x30]
    4dd0:	e8 4b d5 ff ff       	call   2320 <_ZNSt7__cxx1112basic_stringIcSt11char_traitsIcESaIcEE11_M_capacityEm@plt>
    4dd5:	e9 23 00 00 00       	jmp    4dfd <_ZNSt7__cxx1112basic_stringIcSt11char_traitsIcESaIcEE12_M_constructIN9__gnu_cxx17__normal_iteratorIPKcSt6vectorIcS3_EEEEEvT_SD_St20forward_iterator_tag+0x9d>
    4dda:	48 8b 45 90          	mov    rax,QWORD PTR [rbp-0x70]
    4dde:	48 89 45 f8          	mov    QWORD PTR [rbp-0x8],rax
    4de2:	48 8b 7d f8          	mov    rdi,QWORD PTR [rbp-0x8]
    4de6:	e8 75 d3 ff ff       	call   2160 <_ZNSt7__cxx1112basic_stringIcSt11char_traitsIcESaIcEE13_M_local_dataEv@plt>
    4deb:	e9 08 00 00 00       	jmp    4df8 <_ZNSt7__cxx1112basic_stringIcSt11char_traitsIcESaIcEE12_M_constructIN9__gnu_cxx17__normal_iteratorIPKcSt6vectorIcS3_EEEEEvT_SD_St20forward_iterator_tag+0x98>
    4df0:	48 89 c7             	mov    rdi,rax
    4df3:	e8 f8 e5 ff ff       	call   33f0 <__clang_call_terminate>
    4df8:	e9 00 00 00 00       	jmp    4dfd <_ZNSt7__cxx1112basic_stringIcSt11char_traitsIcESaIcEE12_M_constructIN9__gnu_cxx17__normal_iteratorIPKcSt6vectorIcS3_EEEEEvT_SD_St20forward_iterator_tag+0x9d>
    4dfd:	48 8b 75 90          	mov    rsi,QWORD PTR [rbp-0x70]
    4e01:	48 8d 7d b8          	lea    rdi,[rbp-0x48]
    4e05:	e8 f6 00 00 00       	call   4f00 <_ZZNSt7__cxx1112basic_stringIcSt11char_traitsIcESaIcEE12_M_constructIN9__gnu_cxx17__normal_iteratorIPKcSt6vectorIcS3_EEEEEvT_SD_St20forward_iterator_tagEN6_GuardC2EPS4_>
    4e0a:	48 8b 7d 90          	mov    rdi,QWORD PTR [rbp-0x70]
    4e0e:	e8 ed d3 ff ff       	call   2200 <_ZNKSt7__cxx1112basic_stringIcSt11char_traitsIcESaIcEE7_M_dataEv@plt>
    4e13:	48 89 45 88          	mov    QWORD PTR [rbp-0x78],rax
    4e17:	e9 00 00 00 00       	jmp    4e1c <_ZNSt7__cxx1112basic_stringIcSt11char_traitsIcESaIcEE12_M_constructIN9__gnu_cxx17__normal_iteratorIPKcSt6vectorIcS3_EEEEEvT_SD_St20forward_iterator_tag+0xbc>
    4e1c:	48 8b 7d 88          	mov    rdi,QWORD PTR [rbp-0x78]
    4e20:	48 8b 45 f0          	mov    rax,QWORD PTR [rbp-0x10]
    4e24:	48 89 45 a0          	mov    QWORD PTR [rbp-0x60],rax
    4e28:	48 8b 45 e8          	mov    rax,QWORD PTR [rbp-0x18]
    4e2c:	48 89 45 98          	mov    QWORD PTR [rbp-0x68],rax
    4e30:	48 8b 75 a0          	mov    rsi,QWORD PTR [rbp-0x60]
    4e34:	48 8b 55 98          	mov    rdx,QWORD PTR [rbp-0x68]
    4e38:	e8 e3 00 00 00       	call   4f20 <_ZNSt7__cxx1112basic_stringIcSt11char_traitsIcESaIcEE13_S_copy_charsIN9__gnu_cxx17__normal_iteratorIPKcSt6vectorIcS3_EEEEEvPcT_SE_>
    4e3d:	e9 00 00 00 00       	jmp    4e42 <_ZNSt7__cxx1112basic_stringIcSt11char_traitsIcESaIcEE12_M_constructIN9__gnu_cxx17__normal_iteratorIPKcSt6vectorIcS3_EEEEEvT_SD_St20forward_iterator_tag+0xe2>
    4e42:	48 8b 7d 90          	mov    rdi,QWORD PTR [rbp-0x70]
    4e46:	48 c7 45 b8 00 00 00 	mov    QWORD PTR [rbp-0x48],0x0
    4e4d:	00 
    4e4e:	48 8b 75 d0          	mov    rsi,QWORD PTR [rbp-0x30]
    4e52:	e8 b9 d2 ff ff       	call   2110 <_ZNSt7__cxx1112basic_stringIcSt11char_traitsIcESaIcEE13_M_set_lengthEm@plt>
    4e57:	e9 00 00 00 00       	jmp    4e5c <_ZNSt7__cxx1112basic_stringIcSt11char_traitsIcESaIcEE12_M_constructIN9__gnu_cxx17__normal_iteratorIPKcSt6vectorIcS3_EEEEEvT_SD_St20forward_iterator_tag+0xfc>
    4e5c:	48 8d 7d b8          	lea    rdi,[rbp-0x48]
    4e60:	e8 2b 01 00 00       	call   4f90 <_ZZNSt7__cxx1112basic_stringIcSt11char_traitsIcESaIcEE12_M_constructIN9__gnu_cxx17__normal_iteratorIPKcSt6vectorIcS3_EEEEEvT_SD_St20forward_iterator_tagEN6_GuardD2Ev>
    4e65:	48 81 c4 80 00 00 00 	add    rsp,0x80
    4e6c:	5d                   	pop    rbp
    4e6d:	c3                   	ret
    4e6e:	48 89 c1             	mov    rcx,rax
    4e71:	89 d0                	mov    eax,edx
    4e73:	48 89 4d b0          	mov    QWORD PTR [rbp-0x50],rcx
    4e77:	89 45 ac             	mov    DWORD PTR [rbp-0x54],eax
    4e7a:	48 8d 7d b8          	lea    rdi,[rbp-0x48]
    4e7e:	e8 0d 01 00 00       	call   4f90 <_ZZNSt7__cxx1112basic_stringIcSt11char_traitsIcESaIcEE12_M_constructIN9__gnu_cxx17__normal_iteratorIPKcSt6vectorIcS3_EEEEEvT_SD_St20forward_iterator_tagEN6_GuardD2Ev>
    4e83:	48 8b 7d b0          	mov    rdi,QWORD PTR [rbp-0x50]
    4e87:	e8 54 d4 ff ff       	call   22e0 <_Unwind_Resume@plt>
    4e8c:	0f 1f 40 00          	nop    DWORD PTR [rax+0x0]

0000000000004e90 <_ZSt19__iterator_categoryIN9__gnu_cxx17__normal_iteratorIPKcSt6vectorIcSaIcEEEEENSt15iterator_traitsIT_E17iterator_categoryERKS9_>:
    4e90:	55                   	push   rbp
    4e91:	48 89 e5             	mov    rbp,rsp
    4e94:	48 89 7d f8          	mov    QWORD PTR [rbp-0x8],rdi
    4e98:	5d                   	pop    rbp
    4e99:	c3                   	ret
    4e9a:	66 0f 1f 44 00 00    	nop    WORD PTR [rax+rax*1+0x0]

0000000000004ea0 <_ZNSt7__cxx1112basic_stringIcSt11char_traitsIcESaIcEE12_Alloc_hiderD2Ev>:
    4ea0:	55                   	push   rbp
    4ea1:	48 89 e5             	mov    rbp,rsp
    4ea4:	48 83 ec 10          	sub    rsp,0x10
    4ea8:	48 89 7d f8          	mov    QWORD PTR [rbp-0x8],rdi
    4eac:	48 8b 7d f8          	mov    rdi,QWORD PTR [rbp-0x8]
    4eb0:	e8 7b d1 ff ff       	call   2030 <_ZNSaIcED2Ev@plt>
    4eb5:	48 83 c4 10          	add    rsp,0x10
    4eb9:	5d                   	pop    rbp
    4eba:	c3                   	ret
    4ebb:	0f 1f 44 00 00       	nop    DWORD PTR [rax+rax*1+0x0]

0000000000004ec0 <_ZSt8distanceIN9__gnu_cxx17__normal_iteratorIPKcSt6vectorIcSaIcEEEEENSt15iterator_traitsIT_E15difference_typeES9_S9_>:
    4ec0:	55                   	push   rbp
    4ec1:	48 89 e5             	mov    rbp,rsp
    4ec4:	48 83 ec 30          	sub    rsp,0x30
    4ec8:	48 89 7d f8          	mov    QWORD PTR [rbp-0x8],rdi
    4ecc:	48 89 75 f0          	mov    QWORD PTR [rbp-0x10],rsi
    4ed0:	48 8b 45 f8          	mov    rax,QWORD PTR [rbp-0x8]
    4ed4:	48 89 45 e8          	mov    QWORD PTR [rbp-0x18],rax
    4ed8:	48 8b 45 f0          	mov    rax,QWORD PTR [rbp-0x10]
    4edc:	48 89 45 e0          	mov    QWORD PTR [rbp-0x20],rax
    4ee0:	48 8d 7d f8          	lea    rdi,[rbp-0x8]
    4ee4:	e8 a7 ff ff ff       	call   4e90 <_ZSt19__iterator_categoryIN9__gnu_cxx17__normal_iteratorIPKcSt6vectorIcSaIcEEEEENSt15iterator_traitsIT_E17iterator_categoryERKS9_>
    4ee9:	48 8b 7d e8          	mov    rdi,QWORD PTR [rbp-0x18]
    4eed:	48 8b 75 e0          	mov    rsi,QWORD PTR [rbp-0x20]
    4ef1:	e8 ea 00 00 00       	call   4fe0 <_ZSt10__distanceIN9__gnu_cxx17__normal_iteratorIPKcSt6vectorIcSaIcEEEEENSt15iterator_traitsIT_E15difference_typeES9_S9_St26random_access_iterator_tag>
    4ef6:	48 83 c4 30          	add    rsp,0x30
    4efa:	5d                   	pop    rbp
    4efb:	c3                   	ret
    4efc:	0f 1f 40 00          	nop    DWORD PTR [rax+0x0]

0000000000004f00 <_ZZNSt7__cxx1112basic_stringIcSt11char_traitsIcESaIcEE12_M_constructIN9__gnu_cxx17__normal_iteratorIPKcSt6vectorIcS3_EEEEEvT_SD_St20forward_iterator_tagEN6_GuardC2EPS4_>:
    4f00:	55                   	push   rbp
    4f01:	48 89 e5             	mov    rbp,rsp
    4f04:	48 89 7d f8          	mov    QWORD PTR [rbp-0x8],rdi
    4f08:	48 89 75 f0          	mov    QWORD PTR [rbp-0x10],rsi
    4f0c:	48 8b 45 f8          	mov    rax,QWORD PTR [rbp-0x8]
    4f10:	48 8b 4d f0          	mov    rcx,QWORD PTR [rbp-0x10]
    4f14:	48 89 08             	mov    QWORD PTR [rax],rcx
    4f17:	5d                   	pop    rbp
    4f18:	c3                   	ret
    4f19:	0f 1f 80 00 00 00 00 	nop    DWORD PTR [rax+0x0]

0000000000004f20 <_ZNSt7__cxx1112basic_stringIcSt11char_traitsIcESaIcEE13_S_copy_charsIN9__gnu_cxx17__normal_iteratorIPKcSt6vectorIcS3_EEEEEvPcT_SE_>:
    4f20:	55                   	push   rbp
    4f21:	48 89 e5             	mov    rbp,rsp
    4f24:	48 83 ec 20          	sub    rsp,0x20
    4f28:	48 89 75 f8          	mov    QWORD PTR [rbp-0x8],rsi
    4f2c:	48 89 55 f0          	mov    QWORD PTR [rbp-0x10],rdx
    4f30:	48 89 7d e8          	mov    QWORD PTR [rbp-0x18],rdi
    4f34:	48 8d 7d f8          	lea    rdi,[rbp-0x8]
    4f38:	48 8d 75 f0          	lea    rsi,[rbp-0x10]
    4f3c:	e8 0f 01 00 00       	call   5050 <_ZN9__gnu_cxxneIPKcSt6vectorIcSaIcEEEEbRKNS_17__normal_iteratorIT_T0_EESB_>
    4f41:	a8 01                	test   al,0x1
    4f43:	0f 85 05 00 00 00    	jne    4f4e <_ZNSt7__cxx1112basic_stringIcSt11char_traitsIcESaIcEE13_S_copy_charsIN9__gnu_cxx17__normal_iteratorIPKcSt6vectorIcS3_EEEEEvPcT_SE_+0x2e>
    4f49:	e9 37 00 00 00       	jmp    4f85 <_ZNSt7__cxx1112basic_stringIcSt11char_traitsIcESaIcEE13_S_copy_charsIN9__gnu_cxx17__normal_iteratorIPKcSt6vectorIcS3_EEEEEvPcT_SE_+0x65>
    4f4e:	48 8b 45 e8          	mov    rax,QWORD PTR [rbp-0x18]
    4f52:	48 89 45 e0          	mov    QWORD PTR [rbp-0x20],rax
    4f56:	48 8d 7d f8          	lea    rdi,[rbp-0x8]
    4f5a:	e8 61 01 00 00       	call   50c0 <_ZNK9__gnu_cxx17__normal_iteratorIPKcSt6vectorIcSaIcEEEdeEv>
    4f5f:	48 8b 7d e0          	mov    rdi,QWORD PTR [rbp-0x20]
    4f63:	48 89 c6             	mov    rsi,rax
    4f66:	e8 35 01 00 00       	call   50a0 <_ZNSt11char_traitsIcE6assignERcRKc>
    4f6b:	48 8d 7d f8          	lea    rdi,[rbp-0x8]
    4f6f:	e8 6c 01 00 00       	call   50e0 <_ZN9__gnu_cxx17__normal_iteratorIPKcSt6vectorIcSaIcEEEppEv>
    4f74:	48 8b 45 e8          	mov    rax,QWORD PTR [rbp-0x18]
    4f78:	48 83 c0 01          	add    rax,0x1
    4f7c:	48 89 45 e8          	mov    QWORD PTR [rbp-0x18],rax
    4f80:	e9 af ff ff ff       	jmp    4f34 <_ZNSt7__cxx1112basic_stringIcSt11char_traitsIcESaIcEE13_S_copy_charsIN9__gnu_cxx17__normal_iteratorIPKcSt6vectorIcS3_EEEEEvPcT_SE_+0x14>
    4f85:	48 83 c4 20          	add    rsp,0x20
    4f89:	5d                   	pop    rbp
    4f8a:	c3                   	ret
    4f8b:	0f 1f 44 00 00       	nop    DWORD PTR [rax+rax*1+0x0]

0000000000004f90 <_ZZNSt7__cxx1112basic_stringIcSt11char_traitsIcESaIcEE12_M_constructIN9__gnu_cxx17__normal_iteratorIPKcSt6vectorIcS3_EEEEEvT_SD_St20forward_iterator_tagEN6_GuardD2Ev>:
    4f90:	55                   	push   rbp
    4f91:	48 89 e5             	mov    rbp,rsp
    4f94:	48 83 ec 10          	sub    rsp,0x10
    4f98:	48 89 7d f8          	mov    QWORD PTR [rbp-0x8],rdi
    4f9c:	48 8b 45 f8          	mov    rax,QWORD PTR [rbp-0x8]
    4fa0:	48 89 45 f0          	mov    QWORD PTR [rbp-0x10],rax
    4fa4:	48 83 38 00          	cmp    QWORD PTR [rax],0x0
    4fa8:	0f 84 16 00 00 00    	je     4fc4 <_ZZNSt7__cxx1112basic_stringIcSt11char_traitsIcESaIcEE12_M_constructIN9__gnu_cxx17__normal_iteratorIPKcSt6vectorIcS3_EEEEEvT_SD_St20forward_iterator_tagEN6_GuardD2Ev+0x34>
    4fae:	48 8b 45 f0          	mov    rax,QWORD PTR [rbp-0x10]
    4fb2:	48 8b 38             	mov    rdi,QWORD PTR [rax]
    4fb5:	e8 66 d2 ff ff       	call   2220 <_ZNSt7__cxx1112basic_stringIcSt11char_traitsIcESaIcEE10_M_disposeEv@plt>
    4fba:	e9 00 00 00 00       	jmp    4fbf <_ZZNSt7__cxx1112basic_stringIcSt11char_traitsIcESaIcEE12_M_constructIN9__gnu_cxx17__normal_iteratorIPKcSt6vectorIcS3_EEEEEvT_SD_St20forward_iterator_tagEN6_GuardD2Ev+0x2f>
    4fbf:	e9 00 00 00 00       	jmp    4fc4 <_ZZNSt7__cxx1112basic_stringIcSt11char_traitsIcESaIcEE12_M_constructIN9__gnu_cxx17__normal_iteratorIPKcSt6vectorIcS3_EEEEEvT_SD_St20forward_iterator_tagEN6_GuardD2Ev+0x34>
    4fc4:	48 83 c4 10          	add    rsp,0x10
    4fc8:	5d                   	pop    rbp
    4fc9:	c3                   	ret
    4fca:	48 89 c7             	mov    rdi,rax
    4fcd:	e8 1e e4 ff ff       	call   33f0 <__clang_call_terminate>
    4fd2:	66 2e 0f 1f 84 00 00 	cs nop WORD PTR [rax+rax*1+0x0]
    4fd9:	00 00 00 
    4fdc:	0f 1f 40 00          	nop    DWORD PTR [rax+0x0]

0000000000004fe0 <_ZSt10__distanceIN9__gnu_cxx17__normal_iteratorIPKcSt6vectorIcSaIcEEEEENSt15iterator_traitsIT_E15difference_typeES9_S9_St26random_access_iterator_tag>:
    4fe0:	55                   	push   rbp
    4fe1:	48 89 e5             	mov    rbp,rsp
    4fe4:	48 83 ec 20          	sub    rsp,0x20
    4fe8:	48 89 7d f8          	mov    QWORD PTR [rbp-0x8],rdi
    4fec:	48 89 75 f0          	mov    QWORD PTR [rbp-0x10],rsi
    4ff0:	48 8d 7d f0          	lea    rdi,[rbp-0x10]
    4ff4:	48 8d 75 f8          	lea    rsi,[rbp-0x8]
    4ff8:	e8 13 00 00 00       	call   5010 <_ZN9__gnu_cxxmiIPKcSt6vectorIcSaIcEEEENS_17__normal_iteratorIT_T0_E15difference_typeERKS9_SC_>
    4ffd:	48 83 c4 20          	add    rsp,0x20
    5001:	5d                   	pop    rbp
    5002:	c3                   	ret
    5003:	66 2e 0f 1f 84 00 00 	cs nop WORD PTR [rax+rax*1+0x0]
    500a:	00 00 00 
    500d:	0f 1f 00             	nop    DWORD PTR [rax]

0000000000005010 <_ZN9__gnu_cxxmiIPKcSt6vectorIcSaIcEEEENS_17__normal_iteratorIT_T0_E15difference_typeERKS9_SC_>:
    5010:	55                   	push   rbp
    5011:	48 89 e5             	mov    rbp,rsp
    5014:	48 83 ec 20          	sub    rsp,0x20
    5018:	48 89 7d f8          	mov    QWORD PTR [rbp-0x8],rdi
    501c:	48 89 75 f0          	mov    QWORD PTR [rbp-0x10],rsi
    5020:	48 8b 7d f8          	mov    rdi,QWORD PTR [rbp-0x8]
    5024:	e8 a7 ef ff ff       	call   3fd0 <_ZNK9__gnu_cxx17__normal_iteratorIPKcSt6vectorIcSaIcEEE4baseEv>
    5029:	48 8b 00             	mov    rax,QWORD PTR [rax]
    502c:	48 89 45 e8          	mov    QWORD PTR [rbp-0x18],rax
    5030:	48 8b 7d f0          	mov    rdi,QWORD PTR [rbp-0x10]
    5034:	e8 97 ef ff ff       	call   3fd0 <_ZNK9__gnu_cxx17__normal_iteratorIPKcSt6vectorIcSaIcEEE4baseEv>
    5039:	48 89 c1             	mov    rcx,rax
    503c:	48 8b 45 e8          	mov    rax,QWORD PTR [rbp-0x18]
    5040:	48 8b 09             	mov    rcx,QWORD PTR [rcx]
    5043:	48 29 c8             	sub    rax,rcx
    5046:	48 83 c4 20          	add    rsp,0x20
    504a:	5d                   	pop    rbp
    504b:	c3                   	ret
    504c:	0f 1f 40 00          	nop    DWORD PTR [rax+0x0]

0000000000005050 <_ZN9__gnu_cxxneIPKcSt6vectorIcSaIcEEEEbRKNS_17__normal_iteratorIT_T0_EESB_>:
    5050:	55                   	push   rbp
    5051:	48 89 e5             	mov    rbp,rsp
    5054:	48 83 ec 20          	sub    rsp,0x20
    5058:	48 89 7d f8          	mov    QWORD PTR [rbp-0x8],rdi
    505c:	48 89 75 f0          	mov    QWORD PTR [rbp-0x10],rsi
    5060:	48 8b 7d f8          	mov    rdi,QWORD PTR [rbp-0x8]
    5064:	e8 67 ef ff ff       	call   3fd0 <_ZNK9__gnu_cxx17__normal_iteratorIPKcSt6vectorIcSaIcEEE4baseEv>
    5069:	48 8b 00             	mov    rax,QWORD PTR [rax]
    506c:	48 89 45 e8          	mov    QWORD PTR [rbp-0x18],rax
    5070:	48 8b 7d f0          	mov    rdi,QWORD PTR [rbp-0x10]
    5074:	e8 57 ef ff ff       	call   3fd0 <_ZNK9__gnu_cxx17__normal_iteratorIPKcSt6vectorIcSaIcEEE4baseEv>
    5079:	48 89 c1             	mov    rcx,rax
    507c:	48 8b 45 e8          	mov    rax,QWORD PTR [rbp-0x18]
    5080:	48 3b 01             	cmp    rax,QWORD PTR [rcx]
    5083:	0f 95 c0             	setne  al
    5086:	24 01                	and    al,0x1
    5088:	0f b6 c0             	movzx  eax,al
    508b:	48 83 c4 20          	add    rsp,0x20
    508f:	5d                   	pop    rbp
    5090:	c3                   	ret
    5091:	66 2e 0f 1f 84 00 00 	cs nop WORD PTR [rax+rax*1+0x0]
    5098:	00 00 00 
    509b:	0f 1f 44 00 00       	nop    DWORD PTR [rax+rax*1+0x0]

00000000000050a0 <_ZNSt11char_traitsIcE6assignERcRKc>:
    50a0:	55                   	push   rbp
    50a1:	48 89 e5             	mov    rbp,rsp
    50a4:	48 89 7d f8          	mov    QWORD PTR [rbp-0x8],rdi
    50a8:	48 89 75 f0          	mov    QWORD PTR [rbp-0x10],rsi
    50ac:	48 8b 45 f0          	mov    rax,QWORD PTR [rbp-0x10]
    50b0:	8a 08                	mov    cl,BYTE PTR [rax]
    50b2:	48 8b 45 f8          	mov    rax,QWORD PTR [rbp-0x8]
    50b6:	88 08                	mov    BYTE PTR [rax],cl
    50b8:	5d                   	pop    rbp
    50b9:	c3                   	ret
    50ba:	66 0f 1f 44 00 00    	nop    WORD PTR [rax+rax*1+0x0]

00000000000050c0 <_ZNK9__gnu_cxx17__normal_iteratorIPKcSt6vectorIcSaIcEEEdeEv>:
    50c0:	55                   	push   rbp
    50c1:	48 89 e5             	mov    rbp,rsp
    50c4:	48 89 7d f8          	mov    QWORD PTR [rbp-0x8],rdi
    50c8:	48 8b 45 f8          	mov    rax,QWORD PTR [rbp-0x8]
    50cc:	48 8b 00             	mov    rax,QWORD PTR [rax]
    50cf:	5d                   	pop    rbp
    50d0:	c3                   	ret
    50d1:	66 2e 0f 1f 84 00 00 	cs nop WORD PTR [rax+rax*1+0x0]
    50d8:	00 00 00 
    50db:	0f 1f 44 00 00       	nop    DWORD PTR [rax+rax*1+0x0]

00000000000050e0 <_ZN9__gnu_cxx17__normal_iteratorIPKcSt6vectorIcSaIcEEEppEv>:
    50e0:	55                   	push   rbp
    50e1:	48 89 e5             	mov    rbp,rsp
    50e4:	48 89 7d f8          	mov    QWORD PTR [rbp-0x8],rdi
    50e8:	48 8b 45 f8          	mov    rax,QWORD PTR [rbp-0x8]
    50ec:	48 8b 08             	mov    rcx,QWORD PTR [rax]
    50ef:	48 83 c1 01          	add    rcx,0x1
    50f3:	48 89 08             	mov    QWORD PTR [rax],rcx
    50f6:	5d                   	pop    rbp
    50f7:	c3                   	ret
    50f8:	0f 1f 84 00 00 00 00 	nop    DWORD PTR [rax+rax*1+0x0]
    50ff:	00 

0000000000005100 <_ZNKSt10_HashtableINSt7__cxx1112basic_stringIcSt11char_traitsIcESaIcEEESt4pairIKS5_5TokenESaIS9_ENSt8__detail10_Select1stESt8equal_toIS5_ESt4hashIS5_ENSB_18_Mod_range_hashingENSB_20_Default_ranged_hashENSB_20_Prime_rehash_policyENSB_17_Hashtable_traitsILb1ELb0ELb1EEEE4findERS7_>:
    5100:	55                   	push   rbp
    5101:	48 89 e5             	mov    rbp,rsp
    5104:	48 83 ec 40          	sub    rsp,0x40
    5108:	48 89 7d f0          	mov    QWORD PTR [rbp-0x10],rdi
    510c:	48 89 75 e8          	mov    QWORD PTR [rbp-0x18],rsi
    5110:	48 8b 7d f0          	mov    rdi,QWORD PTR [rbp-0x10]
    5114:	48 89 7d c0          	mov    QWORD PTR [rbp-0x40],rdi
    5118:	e8 f3 00 00 00       	call   5210 <_ZNKSt10_HashtableINSt7__cxx1112basic_stringIcSt11char_traitsIcESaIcEEESt4pairIKS5_5TokenESaIS9_ENSt8__detail10_Select1stESt8equal_toIS5_ESt4hashIS5_ENSB_18_Mod_range_hashingENSB_20_Default_ranged_hashENSB_20_Prime_rehash_policyENSB_17_Hashtable_traitsILb1ELb0ELb1EEEE4sizeEv>
    511d:	48 89 45 c8          	mov    QWORD PTR [rbp-0x38],rax
    5121:	e8 0a 01 00 00       	call   5230 <_ZNSt10_HashtableINSt7__cxx1112basic_stringIcSt11char_traitsIcESaIcEEESt4pairIKS5_5TokenESaIS9_ENSt8__detail10_Select1stESt8equal_toIS5_ESt4hashIS5_ENSB_18_Mod_range_hashingENSB_20_Default_ranged_hashENSB_20_Prime_rehash_policyENSB_17_Hashtable_traitsILb1ELb0ELb1EEEE22__small_size_thresholdEv>
    5126:	48 89 c1             	mov    rcx,rax
    5129:	48 8b 45 c8          	mov    rax,QWORD PTR [rbp-0x38]
    512d:	48 39 c8             	cmp    rax,rcx
    5130:	0f 87 80 00 00 00    	ja     51b6 <_ZNKSt10_HashtableINSt7__cxx1112basic_stringIcSt11char_traitsIcESaIcEEESt4pairIKS5_5TokenESaIS9_ENSt8__detail10_Select1stESt8equal_toIS5_ESt4hashIS5_ENSB_18_Mod_range_hashingENSB_20_Default_ranged_hashENSB_20_Prime_rehash_policyENSB_17_Hashtable_traitsILb1ELb0ELb1EEEE4findERS7_+0xb6>
    5136:	48 8b 7d c0          	mov    rdi,QWORD PTR [rbp-0x40]
    513a:	e8 01 01 00 00       	call   5240 <_ZNKSt10_HashtableINSt7__cxx1112basic_stringIcSt11char_traitsIcESaIcEEESt4pairIKS5_5TokenESaIS9_ENSt8__detail10_Select1stESt8equal_toIS5_ESt4hashIS5_ENSB_18_Mod_range_hashingENSB_20_Default_ranged_hashENSB_20_Prime_rehash_policyENSB_17_Hashtable_traitsILb1ELb0ELb1EEEE5beginEv>
    513f:	48 89 45 f8          	mov    QWORD PTR [rbp-0x8],rax
    5143:	48 8b 7d c0          	mov    rdi,QWORD PTR [rbp-0x40]
    5147:	e8 24 01 00 00       	call   5270 <_ZNKSt10_HashtableINSt7__cxx1112basic_stringIcSt11char_traitsIcESaIcEEESt4pairIKS5_5TokenESaIS9_ENSt8__detail10_Select1stESt8equal_toIS5_ESt4hashIS5_ENSB_18_Mod_range_hashingENSB_20_Default_ranged_hashENSB_20_Prime_rehash_policyENSB_17_Hashtable_traitsILb1ELb0ELb1EEEE3endEv>
    514c:	48 89 45 e0          	mov    QWORD PTR [rbp-0x20],rax
    5150:	48 8d 7d f8          	lea    rdi,[rbp-0x8]
    5154:	48 8d 75 e0          	lea    rsi,[rbp-0x20]
    5158:	e8 73 fb ff ff       	call   4cd0 <_ZNSt8__detailneERKNS_19_Node_iterator_baseISt4pairIKNSt7__cxx1112basic_stringIcSt11char_traitsIcESaIcEEE5TokenELb1EEESD_>
    515d:	a8 01                	test   al,0x1
    515f:	0f 85 05 00 00 00    	jne    516a <_ZNKSt10_HashtableINSt7__cxx1112basic_stringIcSt11char_traitsIcESaIcEEESt4pairIKS5_5TokenESaIS9_ENSt8__detail10_Select1stESt8equal_toIS5_ESt4hashIS5_ENSB_18_Mod_range_hashingENSB_20_Default_ranged_hashENSB_20_Prime_rehash_policyENSB_17_Hashtable_traitsILb1ELb0ELb1EEEE4findERS7_+0x6a>
    5165:	e9 3a 00 00 00       	jmp    51a4 <_ZNKSt10_HashtableINSt7__cxx1112basic_stringIcSt11char_traitsIcESaIcEEESt4pairIKS5_5TokenESaIS9_ENSt8__detail10_Select1stESt8equal_toIS5_ESt4hashIS5_ENSB_18_Mod_range_hashingENSB_20_Default_ranged_hashENSB_20_Prime_rehash_policyENSB_17_Hashtable_traitsILb1ELb0ELb1EEEE4findERS7_+0xa4>
    516a:	48 8b 7d c0          	mov    rdi,QWORD PTR [rbp-0x40]
    516e:	48 8b 75 e8          	mov    rsi,QWORD PTR [rbp-0x18]
    5172:	48 8b 55 f8          	mov    rdx,QWORD PTR [rbp-0x8]
    5176:	48 83 c2 08          	add    rdx,0x8
    517a:	e8 21 01 00 00       	call   52a0 <_ZNKSt8__detail15_Hashtable_baseINSt7__cxx1112basic_stringIcSt11char_traitsIcESaIcEEESt4pairIKS6_5TokenENS_10_Select1stESt8equal_toIS6_ESt4hashIS6_ENS_18_Mod_range_hashingENS_20_Default_ranged_hashENS_17_Hashtable_traitsILb1ELb0ELb1EEEE13_M_key_equalsERS8_RKNS_16_Hash_node_valueISA_Lb1EEE>
    517f:	a8 01                	test   al,0x1
    5181:	0f 85 05 00 00 00    	jne    518c <_ZNKSt10_HashtableINSt7__cxx1112basic_stringIcSt11char_traitsIcESaIcEEESt4pairIKS5_5TokenESaIS9_ENSt8__detail10_Select1stESt8equal_toIS5_ESt4hashIS5_ENSB_18_Mod_range_hashingENSB_20_Default_ranged_hashENSB_20_Prime_rehash_policyENSB_17_Hashtable_traitsILb1ELb0ELb1EEEE4findERS7_+0x8c>
    5187:	e9 05 00 00 00       	jmp    5191 <_ZNKSt10_HashtableINSt7__cxx1112basic_stringIcSt11char_traitsIcESaIcEEESt4pairIKS5_5TokenESaIS9_ENSt8__detail10_Select1stESt8equal_toIS5_ESt4hashIS5_ENSB_18_Mod_range_hashingENSB_20_Default_ranged_hashENSB_20_Prime_rehash_policyENSB_17_Hashtable_traitsILb1ELb0ELb1EEEE4findERS7_+0x91>
    518c:	e9 68 00 00 00       	jmp    51f9 <_ZNKSt10_HashtableINSt7__cxx1112basic_stringIcSt11char_traitsIcESaIcEEESt4pairIKS5_5TokenESaIS9_ENSt8__detail10_Select1stESt8equal_toIS5_ESt4hashIS5_ENSB_18_Mod_range_hashingENSB_20_Default_ranged_hashENSB_20_Prime_rehash_policyENSB_17_Hashtable_traitsILb1ELb0ELb1EEEE4findERS7_+0xf9>
    5191:	e9 00 00 00 00       	jmp    5196 <_ZNKSt10_HashtableINSt7__cxx1112basic_stringIcSt11char_traitsIcESaIcEEESt4pairIKS5_5TokenESaIS9_ENSt8__detail10_Select1stESt8equal_toIS5_ESt4hashIS5_ENSB_18_Mod_range_hashingENSB_20_Default_ranged_hashENSB_20_Prime_rehash_policyENSB_17_Hashtable_traitsILb1ELb0ELb1EEEE4findERS7_+0x96>
    5196:	48 8d 7d f8          	lea    rdi,[rbp-0x8]
    519a:	e8 61 01 00 00       	call   5300 <_ZNSt8__detail20_Node_const_iteratorISt4pairIKNSt7__cxx1112basic_stringIcSt11char_traitsIcESaIcEEE5TokenELb0ELb1EEppEv>
    519f:	e9 9f ff ff ff       	jmp    5143 <_ZNKSt10_HashtableINSt7__cxx1112basic_stringIcSt11char_traitsIcESaIcEEESt4pairIKS5_5TokenESaIS9_ENSt8__detail10_Select1stESt8equal_toIS5_ESt4hashIS5_ENSB_18_Mod_range_hashingENSB_20_Default_ranged_hashENSB_20_Prime_rehash_policyENSB_17_Hashtable_traitsILb1ELb0ELb1EEEE4findERS7_+0x43>
    51a4:	48 8b 7d c0          	mov    rdi,QWORD PTR [rbp-0x40]
    51a8:	e8 c3 00 00 00       	call   5270 <_ZNKSt10_HashtableINSt7__cxx1112basic_stringIcSt11char_traitsIcESaIcEEESt4pairIKS5_5TokenESaIS9_ENSt8__detail10_Select1stESt8equal_toIS5_ESt4hashIS5_ENSB_18_Mod_range_hashingENSB_20_Default_ranged_hashENSB_20_Prime_rehash_policyENSB_17_Hashtable_traitsILb1ELb0ELb1EEEE3endEv>
    51ad:	48 89 45 f8          	mov    QWORD PTR [rbp-0x8],rax
    51b1:	e9 43 00 00 00       	jmp    51f9 <_ZNKSt10_HashtableINSt7__cxx1112basic_stringIcSt11char_traitsIcESaIcEEESt4pairIKS5_5TokenESaIS9_ENSt8__detail10_Select1stESt8equal_toIS5_ESt4hashIS5_ENSB_18_Mod_range_hashingENSB_20_Default_ranged_hashENSB_20_Prime_rehash_policyENSB_17_Hashtable_traitsILb1ELb0ELb1EEEE4findERS7_+0xf9>
    51b6:	48 8b 7d c0          	mov    rdi,QWORD PTR [rbp-0x40]
    51ba:	48 8b 75 e8          	mov    rsi,QWORD PTR [rbp-0x18]
    51be:	e8 6d 01 00 00       	call   5330 <_ZNKSt8__detail15_Hash_code_baseINSt7__cxx1112basic_stringIcSt11char_traitsIcESaIcEEESt4pairIKS6_5TokenENS_10_Select1stESt4hashIS6_ENS_18_Mod_range_hashingENS_20_Default_ranged_hashELb1EE12_M_hash_codeERS8_>
    51c3:	48 8b 7d c0          	mov    rdi,QWORD PTR [rbp-0x40]
    51c7:	48 89 45 d8          	mov    QWORD PTR [rbp-0x28],rax
    51cb:	48 8b 75 d8          	mov    rsi,QWORD PTR [rbp-0x28]
    51cf:	e8 8c 01 00 00       	call   5360 <_ZNKSt10_HashtableINSt7__cxx1112basic_stringIcSt11char_traitsIcESaIcEEESt4pairIKS5_5TokenESaIS9_ENSt8__detail10_Select1stESt8equal_toIS5_ESt4hashIS5_ENSB_18_Mod_range_hashingENSB_20_Default_ranged_hashENSB_20_Prime_rehash_policyENSB_17_Hashtable_traitsILb1ELb0ELb1EEEE15_M_bucket_indexEm>
    51d4:	48 8b 7d c0          	mov    rdi,QWORD PTR [rbp-0x40]
    51d8:	48 89 45 d0          	mov    QWORD PTR [rbp-0x30],rax
    51dc:	48 8b 75 d0          	mov    rsi,QWORD PTR [rbp-0x30]
    51e0:	48 8b 55 e8          	mov    rdx,QWORD PTR [rbp-0x18]
    51e4:	48 8b 4d d8          	mov    rcx,QWORD PTR [rbp-0x28]
    51e8:	e8 a3 01 00 00       	call   5390 <_ZNKSt10_HashtableINSt7__cxx1112basic_stringIcSt11char_traitsIcESaIcEEESt4pairIKS5_5TokenESaIS9_ENSt8__detail10_Select1stESt8equal_toIS5_ESt4hashIS5_ENSB_18_Mod_range_hashingENSB_20_Default_ranged_hashENSB_20_Prime_rehash_policyENSB_17_Hashtable_traitsILb1ELb0ELb1EEEE12_M_find_nodeEmRS7_m>
    51ed:	48 89 c6             	mov    rsi,rax
    51f0:	48 8d 7d f8          	lea    rdi,[rbp-0x8]
    51f4:	e8 f7 01 00 00       	call   53f0 <_ZNSt8__detail20_Node_const_iteratorISt4pairIKNSt7__cxx1112basic_stringIcSt11char_traitsIcESaIcEEE5TokenELb0ELb1EEC2EPNS_10_Hash_nodeISA_Lb1EEE>
    51f9:	48 8b 45 f8          	mov    rax,QWORD PTR [rbp-0x8]
    51fd:	48 83 c4 40          	add    rsp,0x40
    5201:	5d                   	pop    rbp
    5202:	c3                   	ret
    5203:	66 2e 0f 1f 84 00 00 	cs nop WORD PTR [rax+rax*1+0x0]
    520a:	00 00 00 
    520d:	0f 1f 00             	nop    DWORD PTR [rax]

0000000000005210 <_ZNKSt10_HashtableINSt7__cxx1112basic_stringIcSt11char_traitsIcESaIcEEESt4pairIKS5_5TokenESaIS9_ENSt8__detail10_Select1stESt8equal_toIS5_ESt4hashIS5_ENSB_18_Mod_range_hashingENSB_20_Default_ranged_hashENSB_20_Prime_rehash_policyENSB_17_Hashtable_traitsILb1ELb0ELb1EEEE4sizeEv>:
    5210:	55                   	push   rbp
    5211:	48 89 e5             	mov    rbp,rsp
    5214:	48 89 7d f8          	mov    QWORD PTR [rbp-0x8],rdi
    5218:	48 8b 45 f8          	mov    rax,QWORD PTR [rbp-0x8]
    521c:	48 8b 40 18          	mov    rax,QWORD PTR [rax+0x18]
    5220:	5d                   	pop    rbp
    5221:	c3                   	ret
    5222:	66 2e 0f 1f 84 00 00 	cs nop WORD PTR [rax+rax*1+0x0]
    5229:	00 00 00 
    522c:	0f 1f 40 00          	nop    DWORD PTR [rax+0x0]

0000000000005230 <_ZNSt10_HashtableINSt7__cxx1112basic_stringIcSt11char_traitsIcESaIcEEESt4pairIKS5_5TokenESaIS9_ENSt8__detail10_Select1stESt8equal_toIS5_ESt4hashIS5_ENSB_18_Mod_range_hashingENSB_20_Default_ranged_hashENSB_20_Prime_rehash_policyENSB_17_Hashtable_traitsILb1ELb0ELb1EEEE22__small_size_thresholdEv>:
    5230:	55                   	push   rbp
    5231:	48 89 e5             	mov    rbp,rsp
    5234:	e8 e7 01 00 00       	call   5420 <_ZNSt8__detail22_Hashtable_hash_traitsISt4hashINSt7__cxx1112basic_stringIcSt11char_traitsIcESaIcEEEEE22__small_size_thresholdEv>
    5239:	5d                   	pop    rbp
    523a:	c3                   	ret
    523b:	0f 1f 44 00 00       	nop    DWORD PTR [rax+rax*1+0x0]

0000000000005240 <_ZNKSt10_HashtableINSt7__cxx1112basic_stringIcSt11char_traitsIcESaIcEEESt4pairIKS5_5TokenESaIS9_ENSt8__detail10_Select1stESt8equal_toIS5_ESt4hashIS5_ENSB_18_Mod_range_hashingENSB_20_Default_ranged_hashENSB_20_Prime_rehash_policyENSB_17_Hashtable_traitsILb1ELb0ELb1EEEE5beginEv>:
    5240:	55                   	push   rbp
    5241:	48 89 e5             	mov    rbp,rsp
    5244:	48 83 ec 10          	sub    rsp,0x10
    5248:	48 89 7d f0          	mov    QWORD PTR [rbp-0x10],rdi
    524c:	48 8b 7d f0          	mov    rdi,QWORD PTR [rbp-0x10]
    5250:	e8 1b e2 ff ff       	call   3470 <_ZNKSt10_HashtableINSt7__cxx1112basic_stringIcSt11char_traitsIcESaIcEEESt4pairIKS5_5TokenESaIS9_ENSt8__detail10_Select1stESt8equal_toIS5_ESt4hashIS5_ENSB_18_Mod_range_hashingENSB_20_Default_ranged_hashENSB_20_Prime_rehash_policyENSB_17_Hashtable_traitsILb1ELb0ELb1EEEE8_M_beginEv>
    5255:	48 89 c6             	mov    rsi,rax
    5258:	48 8d 7d f8          	lea    rdi,[rbp-0x8]
    525c:	e8 8f 01 00 00       	call   53f0 <_ZNSt8__detail20_Node_const_iteratorISt4pairIKNSt7__cxx1112basic_stringIcSt11char_traitsIcESaIcEEE5TokenELb0ELb1EEC2EPNS_10_Hash_nodeISA_Lb1EEE>
    5261:	48 8b 45 f8          	mov    rax,QWORD PTR [rbp-0x8]
    5265:	48 83 c4 10          	add    rsp,0x10
    5269:	5d                   	pop    rbp
    526a:	c3                   	ret
    526b:	0f 1f 44 00 00       	nop    DWORD PTR [rax+rax*1+0x0]

0000000000005270 <_ZNKSt10_HashtableINSt7__cxx1112basic_stringIcSt11char_traitsIcESaIcEEESt4pairIKS5_5TokenESaIS9_ENSt8__detail10_Select1stESt8equal_toIS5_ESt4hashIS5_ENSB_18_Mod_range_hashingENSB_20_Default_ranged_hashENSB_20_Prime_rehash_policyENSB_17_Hashtable_traitsILb1ELb0ELb1EEEE3endEv>:
    5270:	55                   	push   rbp
    5271:	48 89 e5             	mov    rbp,rsp
    5274:	48 83 ec 10          	sub    rsp,0x10
    5278:	48 89 7d f0          	mov    QWORD PTR [rbp-0x10],rdi
    527c:	48 8d 7d f8          	lea    rdi,[rbp-0x8]
    5280:	31 c0                	xor    eax,eax
    5282:	89 c6                	mov    esi,eax
    5284:	e8 67 01 00 00       	call   53f0 <_ZNSt8__detail20_Node_const_iteratorISt4pairIKNSt7__cxx1112basic_stringIcSt11char_traitsIcESaIcEEE5TokenELb0ELb1EEC2EPNS_10_Hash_nodeISA_Lb1EEE>
    5289:	48 8b 45 f8          	mov    rax,QWORD PTR [rbp-0x8]
    528d:	48 83 c4 10          	add    rsp,0x10
    5291:	5d                   	pop    rbp
    5292:	c3                   	ret
    5293:	66 2e 0f 1f 84 00 00 	cs nop WORD PTR [rax+rax*1+0x0]
    529a:	00 00 00 
    529d:	0f 1f 00             	nop    DWORD PTR [rax]

00000000000052a0 <_ZNKSt8__detail15_Hashtable_baseINSt7__cxx1112basic_stringIcSt11char_traitsIcESaIcEEESt4pairIKS6_5TokenENS_10_Select1stESt8equal_toIS6_ESt4hashIS6_ENS_18_Mod_range_hashingENS_20_Default_ranged_hashENS_17_Hashtable_traitsILb1ELb0ELb1EEEE13_M_key_equalsERS8_RKNS_16_Hash_node_valueISA_Lb1EEE>:
    52a0:	55                   	push   rbp
    52a1:	48 89 e5             	mov    rbp,rsp
    52a4:	48 83 ec 30          	sub    rsp,0x30
    52a8:	48 89 7d f8          	mov    QWORD PTR [rbp-0x8],rdi
    52ac:	48 89 75 f0          	mov    QWORD PTR [rbp-0x10],rsi
    52b0:	48 89 55 e8          	mov    QWORD PTR [rbp-0x18],rdx
    52b4:	48 8b 7d f8          	mov    rdi,QWORD PTR [rbp-0x8]
    52b8:	e8 73 01 00 00       	call   5430 <_ZNKSt8__detail15_Hashtable_baseINSt7__cxx1112basic_stringIcSt11char_traitsIcESaIcEEESt4pairIKS6_5TokenENS_10_Select1stESt8equal_toIS6_ESt4hashIS6_ENS_18_Mod_range_hashingENS_20_Default_ranged_hashENS_17_Hashtable_traitsILb1ELb0ELb1EEEE5_M_eqEv>
    52bd:	48 89 45 d0          	mov    QWORD PTR [rbp-0x30],rax
    52c1:	48 8b 45 f0          	mov    rax,QWORD PTR [rbp-0x10]
    52c5:	48 89 45 d8          	mov    QWORD PTR [rbp-0x28],rax
    52c9:	48 8b 7d e8          	mov    rdi,QWORD PTR [rbp-0x18]
    52cd:	e8 ce 01 00 00       	call   54a0 <_ZNKSt8__detail21_Hash_node_value_baseISt4pairIKNSt7__cxx1112basic_stringIcSt11char_traitsIcESaIcEEE5TokenEE4_M_vEv>
    52d2:	48 89 c6             	mov    rsi,rax
    52d5:	48 8d 7d e0          	lea    rdi,[rbp-0x20]
    52d9:	e8 a2 01 00 00       	call   5480 <_ZNKSt8__detail10_Select1stclIRKSt4pairIKNSt7__cxx1112basic_stringIcSt11char_traitsIcESaIcEEE5TokenEEEONS0_10__1st_typeIT_E4typeEOSF_>
    52de:	48 8b 7d d0          	mov    rdi,QWORD PTR [rbp-0x30]
    52e2:	48 8b 75 d8          	mov    rsi,QWORD PTR [rbp-0x28]
    52e6:	48 89 c2             	mov    rdx,rax
    52e9:	e8 62 01 00 00       	call   5450 <_ZNKSt8equal_toINSt7__cxx1112basic_stringIcSt11char_traitsIcESaIcEEEEclERKS5_S8_>
    52ee:	24 01                	and    al,0x1
    52f0:	0f b6 c0             	movzx  eax,al
    52f3:	48 83 c4 30          	add    rsp,0x30
    52f7:	5d                   	pop    rbp
    52f8:	c3                   	ret
    52f9:	0f 1f 80 00 00 00 00 	nop    DWORD PTR [rax+0x0]

0000000000005300 <_ZNSt8__detail20_Node_const_iteratorISt4pairIKNSt7__cxx1112basic_stringIcSt11char_traitsIcESaIcEEE5TokenELb0ELb1EEppEv>:
    5300:	55                   	push   rbp
    5301:	48 89 e5             	mov    rbp,rsp
    5304:	48 83 ec 10          	sub    rsp,0x10
    5308:	48 89 7d f8          	mov    QWORD PTR [rbp-0x8],rdi
    530c:	48 8b 7d f8          	mov    rdi,QWORD PTR [rbp-0x8]
    5310:	48 89 7d f0          	mov    QWORD PTR [rbp-0x10],rdi
    5314:	e8 f7 02 00 00       	call   5610 <_ZNSt8__detail19_Node_iterator_baseISt4pairIKNSt7__cxx1112basic_stringIcSt11char_traitsIcESaIcEEE5TokenELb1EE7_M_incrEv>
    5319:	48 8b 45 f0          	mov    rax,QWORD PTR [rbp-0x10]
    531d:	48 83 c4 10          	add    rsp,0x10
    5321:	5d                   	pop    rbp
    5322:	c3                   	ret
    5323:	66 2e 0f 1f 84 00 00 	cs nop WORD PTR [rax+rax*1+0x0]
    532a:	00 00 00 
    532d:	0f 1f 00             	nop    DWORD PTR [rax]

0000000000005330 <_ZNKSt8__detail15_Hash_code_baseINSt7__cxx1112basic_stringIcSt11char_traitsIcESaIcEEESt4pairIKS6_5TokenENS_10_Select1stESt4hashIS6_ENS_18_Mod_range_hashingENS_20_Default_ranged_hashELb1EE12_M_hash_codeERS8_>:
    5330:	55                   	push   rbp
    5331:	48 89 e5             	mov    rbp,rsp
    5334:	48 83 ec 10          	sub    rsp,0x10
    5338:	48 89 7d f8          	mov    QWORD PTR [rbp-0x8],rdi
    533c:	48 89 75 f0          	mov    QWORD PTR [rbp-0x10],rsi
    5340:	48 8b 7d f8          	mov    rdi,QWORD PTR [rbp-0x8]
    5344:	e8 f7 02 00 00       	call   5640 <_ZNKSt8__detail15_Hash_code_baseINSt7__cxx1112basic_stringIcSt11char_traitsIcESaIcEEESt4pairIKS6_5TokenENS_10_Select1stESt4hashIS6_ENS_18_Mod_range_hashingENS_20_Default_ranged_hashELb1EE7_M_hashEv>
    5349:	48 89 c7             	mov    rdi,rax
    534c:	48 8b 75 f0          	mov    rsi,QWORD PTR [rbp-0x10]
    5350:	e8 0b 03 00 00       	call   5660 <_ZNKSt4hashINSt7__cxx1112basic_stringIcSt11char_traitsIcESaIcEEEEclERKS5_>
    5355:	48 83 c4 10          	add    rsp,0x10
    5359:	5d                   	pop    rbp
    535a:	c3                   	ret
    535b:	0f 1f 44 00 00       	nop    DWORD PTR [rax+rax*1+0x0]

0000000000005360 <_ZNKSt10_HashtableINSt7__cxx1112basic_stringIcSt11char_traitsIcESaIcEEESt4pairIKS5_5TokenESaIS9_ENSt8__detail10_Select1stESt8equal_toIS5_ESt4hashIS5_ENSB_18_Mod_range_hashingENSB_20_Default_ranged_hashENSB_20_Prime_rehash_policyENSB_17_Hashtable_traitsILb1ELb0ELb1EEEE15_M_bucket_indexEm>:
    5360:	55                   	push   rbp
    5361:	48 89 e5             	mov    rbp,rsp
    5364:	48 83 ec 10          	sub    rsp,0x10
    5368:	48 89 7d f8          	mov    QWORD PTR [rbp-0x8],rdi
    536c:	48 89 75 f0          	mov    QWORD PTR [rbp-0x10],rsi
    5370:	48 8b 7d f8          	mov    rdi,QWORD PTR [rbp-0x8]
    5374:	48 8b 75 f0          	mov    rsi,QWORD PTR [rbp-0x10]
    5378:	48 8b 57 08          	mov    rdx,QWORD PTR [rdi+0x8]
    537c:	e8 7f 03 00 00       	call   5700 <_ZNKSt8__detail15_Hash_code_baseINSt7__cxx1112basic_stringIcSt11char_traitsIcESaIcEEESt4pairIKS6_5TokenENS_10_Select1stESt4hashIS6_ENS_18_Mod_range_hashingENS_20_Default_ranged_hashELb1EE15_M_bucket_indexEmm>
    5381:	48 83 c4 10          	add    rsp,0x10
    5385:	5d                   	pop    rbp
    5386:	c3                   	ret
    5387:	66 0f 1f 84 00 00 00 	nop    WORD PTR [rax+rax*1+0x0]
    538e:	00 00 

0000000000005390 <_ZNKSt10_HashtableINSt7__cxx1112basic_stringIcSt11char_traitsIcESaIcEEESt4pairIKS5_5TokenESaIS9_ENSt8__detail10_Select1stESt8equal_toIS5_ESt4hashIS5_ENSB_18_Mod_range_hashingENSB_20_Default_ranged_hashENSB_20_Prime_rehash_policyENSB_17_Hashtable_traitsILb1ELb0ELb1EEEE12_M_find_nodeEmRS7_m>:
    5390:	55                   	push   rbp
    5391:	48 89 e5             	mov    rbp,rsp
    5394:	48 83 ec 30          	sub    rsp,0x30
    5398:	48 89 7d f0          	mov    QWORD PTR [rbp-0x10],rdi
    539c:	48 89 75 e8          	mov    QWORD PTR [rbp-0x18],rsi
    53a0:	48 89 55 e0          	mov    QWORD PTR [rbp-0x20],rdx
    53a4:	48 89 4d d8          	mov    QWORD PTR [rbp-0x28],rcx
    53a8:	48 8b 7d f0          	mov    rdi,QWORD PTR [rbp-0x10]
    53ac:	48 8b 75 e8          	mov    rsi,QWORD PTR [rbp-0x18]
    53b0:	48 8b 55 e0          	mov    rdx,QWORD PTR [rbp-0x20]
    53b4:	48 8b 4d d8          	mov    rcx,QWORD PTR [rbp-0x28]
    53b8:	e8 a3 03 00 00       	call   5760 <_ZNKSt10_HashtableINSt7__cxx1112basic_stringIcSt11char_traitsIcESaIcEEESt4pairIKS5_5TokenESaIS9_ENSt8__detail10_Select1stESt8equal_toIS5_ESt4hashIS5_ENSB_18_Mod_range_hashingENSB_20_Default_ranged_hashENSB_20_Prime_rehash_policyENSB_17_Hashtable_traitsILb1ELb0ELb1EEEE19_M_find_before_nodeEmRS7_m>
    53bd:	48 89 45 d0          	mov    QWORD PTR [rbp-0x30],rax
    53c1:	48 83 7d d0 00       	cmp    QWORD PTR [rbp-0x30],0x0
    53c6:	0f 84 10 00 00 00    	je     53dc <_ZNKSt10_HashtableINSt7__cxx1112basic_stringIcSt11char_traitsIcESaIcEEESt4pairIKS5_5TokenESaIS9_ENSt8__detail10_Select1stESt8equal_toIS5_ESt4hashIS5_ENSB_18_Mod_range_hashingENSB_20_Default_ranged_hashENSB_20_Prime_rehash_policyENSB_17_Hashtable_traitsILb1ELb0ELb1EEEE12_M_find_nodeEmRS7_m+0x4c>
    53cc:	48 8b 45 d0          	mov    rax,QWORD PTR [rbp-0x30]
    53d0:	48 8b 00             	mov    rax,QWORD PTR [rax]
    53d3:	48 89 45 f8          	mov    QWORD PTR [rbp-0x8],rax
    53d7:	e9 08 00 00 00       	jmp    53e4 <_ZNKSt10_HashtableINSt7__cxx1112basic_stringIcSt11char_traitsIcESaIcEEESt4pairIKS5_5TokenESaIS9_ENSt8__detail10_Select1stESt8equal_toIS5_ESt4hashIS5_ENSB_18_Mod_range_hashingENSB_20_Default_ranged_hashENSB_20_Prime_rehash_policyENSB_17_Hashtable_traitsILb1ELb0ELb1EEEE12_M_find_nodeEmRS7_m+0x54>
    53dc:	48 c7 45 f8 00 00 00 	mov    QWORD PTR [rbp-0x8],0x0
    53e3:	00 
    53e4:	48 8b 45 f8          	mov    rax,QWORD PTR [rbp-0x8]
    53e8:	48 83 c4 30          	add    rsp,0x30
    53ec:	5d                   	pop    rbp
    53ed:	c3                   	ret
    53ee:	66 90                	xchg   ax,ax

00000000000053f0 <_ZNSt8__detail20_Node_const_iteratorISt4pairIKNSt7__cxx1112basic_stringIcSt11char_traitsIcESaIcEEE5TokenELb0ELb1EEC2EPNS_10_Hash_nodeISA_Lb1EEE>:
    53f0:	55                   	push   rbp
    53f1:	48 89 e5             	mov    rbp,rsp
    53f4:	48 83 ec 10          	sub    rsp,0x10
    53f8:	48 89 7d f8          	mov    QWORD PTR [rbp-0x8],rdi
    53fc:	48 89 75 f0          	mov    QWORD PTR [rbp-0x10],rsi
    5400:	48 8b 7d f8          	mov    rdi,QWORD PTR [rbp-0x8]
    5404:	48 8b 75 f0          	mov    rsi,QWORD PTR [rbp-0x10]
    5408:	e8 43 05 00 00       	call   5950 <_ZNSt8__detail19_Node_iterator_baseISt4pairIKNSt7__cxx1112basic_stringIcSt11char_traitsIcESaIcEEE5TokenELb1EEC2EPNS_10_Hash_nodeISA_Lb1EEE>
    540d:	48 83 c4 10          	add    rsp,0x10
    5411:	5d                   	pop    rbp
    5412:	c3                   	ret
    5413:	66 2e 0f 1f 84 00 00 	cs nop WORD PTR [rax+rax*1+0x0]
    541a:	00 00 00 
    541d:	0f 1f 00             	nop    DWORD PTR [rax]

0000000000005420 <_ZNSt8__detail22_Hashtable_hash_traitsISt4hashINSt7__cxx1112basic_stringIcSt11char_traitsIcESaIcEEEEE22__small_size_thresholdEv>:
    5420:	55                   	push   rbp
    5421:	48 89 e5             	mov    rbp,rsp
    5424:	b8 14 00 00 00       	mov    eax,0x14
    5429:	5d                   	pop    rbp
    542a:	c3                   	ret
    542b:	0f 1f 44 00 00       	nop    DWORD PTR [rax+rax*1+0x0]

0000000000005430 <_ZNKSt8__detail15_Hashtable_baseINSt7__cxx1112basic_stringIcSt11char_traitsIcESaIcEEESt4pairIKS6_5TokenENS_10_Select1stESt8equal_toIS6_ESt4hashIS6_ENS_18_Mod_range_hashingENS_20_Default_ranged_hashENS_17_Hashtable_traitsILb1ELb0ELb1EEEE5_M_eqEv>:
    5430:	55                   	push   rbp
    5431:	48 89 e5             	mov    rbp,rsp
    5434:	48 83 ec 10          	sub    rsp,0x10
    5438:	48 89 7d f8          	mov    QWORD PTR [rbp-0x8],rdi
    543c:	48 8b 7d f8          	mov    rdi,QWORD PTR [rbp-0x8]
    5440:	e8 7b 00 00 00       	call   54c0 <_ZNKSt8__detail21_Hashtable_ebo_helperILi0ESt8equal_toINSt7__cxx1112basic_stringIcSt11char_traitsIcESaIcEEEELb1EE7_M_cgetEv>
    5445:	48 83 c4 10          	add    rsp,0x10
    5449:	5d                   	pop    rbp
    544a:	c3                   	ret
    544b:	0f 1f 44 00 00       	nop    DWORD PTR [rax+rax*1+0x0]

0000000000005450 <_ZNKSt8equal_toINSt7__cxx1112basic_stringIcSt11char_traitsIcESaIcEEEEclERKS5_S8_>:
    5450:	55                   	push   rbp
    5451:	48 89 e5             	mov    rbp,rsp
    5454:	48 83 ec 20          	sub    rsp,0x20
    5458:	48 89 7d f8          	mov    QWORD PTR [rbp-0x8],rdi
    545c:	48 89 75 f0          	mov    QWORD PTR [rbp-0x10],rsi
    5460:	48 89 55 e8          	mov    QWORD PTR [rbp-0x18],rdx
    5464:	48 8b 7d f0          	mov    rdi,QWORD PTR [rbp-0x10]
    5468:	48 8b 75 e8          	mov    rsi,QWORD PTR [rbp-0x18]
    546c:	e8 5f 00 00 00       	call   54d0 <_ZSteqIcEN9__gnu_cxx11__enable_ifIXsr9__is_charIT_EE7__valueEbE6__typeERKNSt7__cxx1112basic_stringIS2_St11char_traitsIS2_ESaIS2_EEESC_>
    5471:	24 01                	and    al,0x1
