0000000000002000 <_init>:
    2000:	f3 0f 1e fa          	endbr64
    2004:	48 83 ec 08          	sub    rsp,0x8
    2008:	48 8b 05 c1 9f 00 00 	mov    rax,QWORD PTR [rip+0x9fc1]        # bfd0 <__gmon_start__@Base>
    200f:	48 85 c0             	test   rax,rax
    2012:	74 02                	je     2016 <_init+0x16>
    2014:	ff d0                	call   rax
    2016:	48 83 c4 08          	add    rsp,0x8
    201a:	c3                   	ret

0000000000002020 <_ZNSaIcED2Ev@plt-0x10>:
    2020:	ff 35 ca 9f 00 00    	push   QWORD PTR [rip+0x9fca]        # bff0 <_GLOBAL_OFFSET_TABLE_+0x8>
    2026:	ff 25 cc 9f 00 00    	jmp    QWORD PTR [rip+0x9fcc]        # bff8 <_GLOBAL_OFFSET_TABLE_+0x10>
    202c:	0f 1f 40 00          	nop    DWORD PTR [rax+0x0]
    2030:	ff 25 ca 9f 00 00    	jmp    QWORD PTR [rip+0x9fca]        # c000 <_ZNSaIcED2Ev@GLIBCXX_3.4>
    2036:	68 00 00 00 00       	push   0x0
    203b:	e9 e0 ff ff ff       	jmp    2020 <_init+0x20>

0000000000002040 <_ZSt11_Hash_bytesPKvmm@plt>:
    2040:	ff 25 c2 9f 00 00    	jmp    QWORD PTR [rip+0x9fc2]        # c008 <_ZSt11_Hash_bytesPKvmm@CXXABI_1.3.5>
    2046:	68 01 00 00 00       	push   0x1
    204b:	e9 d0 ff ff ff       	jmp    2020 <_init+0x20>

0000000000002050 <_ZNSolsEm@plt>:
    2050:	ff 25 ba 9f 00 00    	jmp    QWORD PTR [rip+0x9fba]        # c010 <_ZNSolsEm@GLIBCXX_3.4>
    2056:	68 02 00 00 00       	push   0x2
    205b:	e9 c0 ff ff ff       	jmp    2020 <_init+0x20>

0000000000002060 <_ZSt9terminatev@plt>:
    2060:	ff 25 b2 9f 00 00    	jmp    QWORD PTR [rip+0x9fb2]        # c018 <_ZSt9terminatev@GLIBCXX_3.4>
    2066:	68 03 00 00 00       	push   0x3
    206b:	e9 b0 ff ff ff       	jmp    2020 <_init+0x20>

0000000000002070 <_ZSt17__throw_bad_allocv@plt>:
    2070:	ff 25 aa 9f 00 00    	jmp    QWORD PTR [rip+0x9faa]        # c020 <_ZSt17__throw_bad_allocv@GLIBCXX_3.4>
    2076:	68 04 00 00 00       	push   0x4
    207b:	e9 a0 ff ff ff       	jmp    2020 <_init+0x20>

0000000000002080 <__cxa_begin_catch@plt>:
    2080:	ff 25 a2 9f 00 00    	jmp    QWORD PTR [rip+0x9fa2]        # c028 <__cxa_begin_catch@CXXABI_1.3>
    2086:	68 05 00 00 00       	push   0x5
    208b:	e9 90 ff ff ff       	jmp    2020 <_init+0x20>

0000000000002090 <_ZNSt7__cxx1112basic_stringIcSt11char_traitsIcESaIcEEC1ERKS4_@plt>:
    2090:	ff 25 9a 9f 00 00    	jmp    QWORD PTR [rip+0x9f9a]        # c030 <_ZNSt7__cxx1112basic_stringIcSt11char_traitsIcESaIcEEC1ERKS4_@GLIBCXX_3.4.21>
    2096:	68 06 00 00 00       	push   0x6
    209b:	e9 80 ff ff ff       	jmp    2020 <_init+0x20>

00000000000020a0 <memcmp@plt>:
    20a0:	ff 25 92 9f 00 00    	jmp    QWORD PTR [rip+0x9f92]        # c038 <memcmp@GLIBC_2.2.5>
    20a6:	68 07 00 00 00       	push   0x7
    20ab:	e9 70 ff ff ff       	jmp    2020 <_init+0x20>

00000000000020b0 <__cxa_allocate_exception@plt>:
    20b0:	ff 25 8a 9f 00 00    	jmp    QWORD PTR [rip+0x9f8a]        # c040 <__cxa_allocate_exception@CXXABI_1.3>
    20b6:	68 08 00 00 00       	push   0x8
    20bb:	e9 60 ff ff ff       	jmp    2020 <_init+0x20>

00000000000020c0 <_ZSt20__throw_length_errorPKc@plt>:
    20c0:	ff 25 82 9f 00 00    	jmp    QWORD PTR [rip+0x9f82]        # c048 <_ZSt20__throw_length_errorPKc@GLIBCXX_3.4>
    20c6:	68 09 00 00 00       	push   0x9
    20cb:	e9 50 ff ff ff       	jmp    2020 <_init+0x20>

00000000000020d0 <memset@plt>:
    20d0:	ff 25 7a 9f 00 00    	jmp    QWORD PTR [rip+0x9f7a]        # c050 <memset@GLIBC_2.2.5>
    20d6:	68 0a 00 00 00       	push   0xa
    20db:	e9 40 ff ff ff       	jmp    2020 <_init+0x20>

00000000000020e0 <_ZNSaIcEC1ERKS_@plt>:
    20e0:	ff 25 72 9f 00 00    	jmp    QWORD PTR [rip+0x9f72]        # c058 <_ZNSaIcEC1ERKS_@GLIBCXX_3.4>
    20e6:	68 0b 00 00 00       	push   0xb
    20eb:	e9 30 ff ff ff       	jmp    2020 <_init+0x20>

00000000000020f0 <_ZNSt7__cxx1112basic_stringIcSt11char_traitsIcESaIcEE3endEv@plt>:
    20f0:	ff 25 6a 9f 00 00    	jmp    QWORD PTR [rip+0x9f6a]        # c060 <_ZNSt7__cxx1112basic_stringIcSt11char_traitsIcESaIcEE3endEv@GLIBCXX_3.4.21>
    20f6:	68 0c 00 00 00       	push   0xc
    20fb:	e9 20 ff ff ff       	jmp    2020 <_init+0x20>

0000000000002100 <_ZNSt7__cxx1112basic_stringIcSt11char_traitsIcESaIcEED1Ev@plt>:
    2100:	ff 25 62 9f 00 00    	jmp    QWORD PTR [rip+0x9f62]        # c068 <_ZNSt7__cxx1112basic_stringIcSt11char_traitsIcESaIcEED1Ev@GLIBCXX_3.4.21>
    2106:	68 0d 00 00 00       	push   0xd
    210b:	e9 10 ff ff ff       	jmp    2020 <_init+0x20>

0000000000002110 <_ZNSt7__cxx1112basic_stringIcSt11char_traitsIcESaIcEE13_M_set_lengthEm@plt>:
    2110:	ff 25 5a 9f 00 00    	jmp    QWORD PTR [rip+0x9f5a]        # c070 <_ZNSt7__cxx1112basic_stringIcSt11char_traitsIcESaIcEE13_M_set_lengthEm@GLIBCXX_3.4.21>
    2116:	68 0e 00 00 00       	push   0xe
    211b:	e9 00 ff ff ff       	jmp    2020 <_init+0x20>

0000000000002120 <_ZNKSt7__cxx1112basic_stringIcSt11char_traitsIcESaIcEE4sizeEv@plt>:
    2120:	ff 25 52 9f 00 00    	jmp    QWORD PTR [rip+0x9f52]        # c078 <_ZNKSt7__cxx1112basic_stringIcSt11char_traitsIcESaIcEE4sizeEv@GLIBCXX_3.4.21>
    2126:	68 0f 00 00 00       	push   0xf
    212b:	e9 f0 fe ff ff       	jmp    2020 <_init+0x20>

0000000000002130 <_ZNKSt8__detail20_Prime_rehash_policy11_M_next_bktEm@plt>:
    2130:	ff 25 4a 9f 00 00    	jmp    QWORD PTR [rip+0x9f4a]        # c080 <_ZNKSt8__detail20_Prime_rehash_policy11_M_next_bktEm@GLIBCXX_3.4.18>
    2136:	68 10 00 00 00       	push   0x10
    213b:	e9 e0 fe ff ff       	jmp    2020 <_init+0x20>

0000000000002140 <__cxa_free_exception@plt>:
    2140:	ff 25 42 9f 00 00    	jmp    QWORD PTR [rip+0x9f42]        # c088 <__cxa_free_exception@CXXABI_1.3>
    2146:	68 11 00 00 00       	push   0x11
    214b:	e9 d0 fe ff ff       	jmp    2020 <_init+0x20>

0000000000002150 <_ZSt28__throw_bad_array_new_lengthv@plt>:
    2150:	ff 25 3a 9f 00 00    	jmp    QWORD PTR [rip+0x9f3a]        # c090 <_ZSt28__throw_bad_array_new_lengthv@GLIBCXX_3.4.29>
    2156:	68 12 00 00 00       	push   0x12
    215b:	e9 c0 fe ff ff       	jmp    2020 <_init+0x20>

0000000000002160 <_ZNSt7__cxx1112basic_stringIcSt11char_traitsIcESaIcEE13_M_local_dataEv@plt>:
    2160:	ff 25 32 9f 00 00    	jmp    QWORD PTR [rip+0x9f32]        # c098 <_ZNSt7__cxx1112basic_stringIcSt11char_traitsIcESaIcEE13_M_local_dataEv@GLIBCXX_3.4.21>
    2166:	68 13 00 00 00       	push   0x13
    216b:	e9 b0 fe ff ff       	jmp    2020 <_init+0x20>

0000000000002170 <_ZNSt7__cxx1112basic_stringIcSt11char_traitsIcESaIcEE7_M_dataEPc@plt>:
    2170:	ff 25 2a 9f 00 00    	jmp    QWORD PTR [rip+0x9f2a]        # c0a0 <_ZNSt7__cxx1112basic_stringIcSt11char_traitsIcESaIcEE7_M_dataEPc@GLIBCXX_3.4.21>
    2176:	68 14 00 00 00       	push   0x14
    217b:	e9 a0 fe ff ff       	jmp    2020 <_init+0x20>

0000000000002180 <_ZNSt7__cxx1112basic_stringIcSt11char_traitsIcESaIcEE5beginEv@plt>:
    2180:	ff 25 22 9f 00 00    	jmp    QWORD PTR [rip+0x9f22]        # c0a8 <_ZNSt7__cxx1112basic_stringIcSt11char_traitsIcESaIcEE5beginEv@GLIBCXX_3.4.21>
    2186:	68 15 00 00 00       	push   0x15
    218b:	e9 90 fe ff ff       	jmp    2020 <_init+0x20>

0000000000002190 <__cxa_atexit@plt>:
    2190:	ff 25 1a 9f 00 00    	jmp    QWORD PTR [rip+0x9f1a]        # c0b0 <__cxa_atexit@GLIBC_2.2.5>
    2196:	68 16 00 00 00       	push   0x16
    219b:	e9 80 fe ff ff       	jmp    2020 <_init+0x20>

00000000000021a0 <_ZdlPv@plt>:
    21a0:	ff 25 12 9f 00 00    	jmp    QWORD PTR [rip+0x9f12]        # c0b8 <_ZdlPv@GLIBCXX_3.4>
    21a6:	68 17 00 00 00       	push   0x17
    21ab:	e9 70 fe ff ff       	jmp    2020 <_init+0x20>

00000000000021b0 <_ZStlsISt11char_traitsIcEERSt13basic_ostreamIcT_ES5_PKc@plt>:
    21b0:	ff 25 0a 9f 00 00    	jmp    QWORD PTR [rip+0x9f0a]        # c0c0 <_ZStlsISt11char_traitsIcEERSt13basic_ostreamIcT_ES5_PKc@GLIBCXX_3.4>
    21b6:	68 18 00 00 00       	push   0x18
    21bb:	e9 60 fe ff ff       	jmp    2020 <_init+0x20>

00000000000021c0 <_Znwm@plt>:
    21c0:	ff 25 02 9f 00 00    	jmp    QWORD PTR [rip+0x9f02]        # c0c8 <_Znwm@GLIBCXX_3.4>
    21c6:	68 19 00 00 00       	push   0x19
    21cb:	e9 50 fe ff ff       	jmp    2020 <_init+0x20>

00000000000021d0 <_ZNSolsEPFRSoS_E@plt>:
    21d0:	ff 25 fa 9e 00 00    	jmp    QWORD PTR [rip+0x9efa]        # c0d0 <_ZNSolsEPFRSoS_E@GLIBCXX_3.4>
    21d6:	68 1a 00 00 00       	push   0x1a
    21db:	e9 40 fe ff ff       	jmp    2020 <_init+0x20>

00000000000021e0 <_ZNSt7__cxx1112basic_stringIcSt11char_traitsIcESaIcEE12_Alloc_hiderC1EPcRKS3_@plt>:
    21e0:	ff 25 f2 9e 00 00    	jmp    QWORD PTR [rip+0x9ef2]        # c0d8 <_ZNSt7__cxx1112basic_stringIcSt11char_traitsIcESaIcEE12_Alloc_hiderC1EPcRKS3_@GLIBCXX_3.4.21>
    21e6:	68 1b 00 00 00       	push   0x1b
    21eb:	e9 30 fe ff ff       	jmp    2020 <_init+0x20>

00000000000021f0 <_ZNSaIcED1Ev@plt>:
    21f0:	ff 25 ea 9e 00 00    	jmp    QWORD PTR [rip+0x9eea]        # c0e0 <_ZNSaIcED1Ev@GLIBCXX_3.4>
    21f6:	68 1c 00 00 00       	push   0x1c
    21fb:	e9 20 fe ff ff       	jmp    2020 <_init+0x20>

0000000000002200 <_ZNKSt7__cxx1112basic_stringIcSt11char_traitsIcESaIcEE7_M_dataEv@plt>:
    2200:	ff 25 e2 9e 00 00    	jmp    QWORD PTR [rip+0x9ee2]        # c0e8 <_ZNKSt7__cxx1112basic_stringIcSt11char_traitsIcESaIcEE7_M_dataEv@GLIBCXX_3.4.21>
    2206:	68 1d 00 00 00       	push   0x1d
    220b:	e9 10 fe ff ff       	jmp    2020 <_init+0x20>

0000000000002210 <_ZStlsISt11char_traitsIcEERSt13basic_ostreamIcT_ES5_c@plt>:
    2210:	ff 25 da 9e 00 00    	jmp    QWORD PTR [rip+0x9eda]        # c0f0 <_ZStlsISt11char_traitsIcEERSt13basic_ostreamIcT_ES5_c@GLIBCXX_3.4>
    2216:	68 1e 00 00 00       	push   0x1e
    221b:	e9 00 fe ff ff       	jmp    2020 <_init+0x20>

0000000000002220 <_ZNSt7__cxx1112basic_stringIcSt11char_traitsIcESaIcEE10_M_disposeEv@plt>:
    2220:	ff 25 d2 9e 00 00    	jmp    QWORD PTR [rip+0x9ed2]        # c0f8 <_ZNSt7__cxx1112basic_stringIcSt11char_traitsIcESaIcEE10_M_disposeEv@GLIBCXX_3.4.21>
    2226:	68 1f 00 00 00       	push   0x1f
    222b:	e9 f0 fd ff ff       	jmp    2020 <_init+0x20>

0000000000002230 <_ZNKSt7__cxx1112basic_stringIcSt11char_traitsIcESaIcEE4dataEv@plt>:
    2230:	ff 25 ca 9e 00 00    	jmp    QWORD PTR [rip+0x9eca]        # c100 <_ZNKSt7__cxx1112basic_stringIcSt11char_traitsIcESaIcEE4dataEv@GLIBCXX_3.4.21>
    2236:	68 20 00 00 00       	push   0x20
    223b:	e9 e0 fd ff ff       	jmp    2020 <_init+0x20>

0000000000002240 <_ZNKSt8__detail20_Prime_rehash_policy14_M_need_rehashEmmm@plt>:
    2240:	ff 25 c2 9e 00 00    	jmp    QWORD PTR [rip+0x9ec2]        # c108 <_ZNKSt8__detail20_Prime_rehash_policy14_M_need_rehashEmmm@GLIBCXX_3.4.18>
    2246:	68 21 00 00 00       	push   0x21
    224b:	e9 d0 fd ff ff       	jmp    2020 <_init+0x20>

0000000000002250 <_ZNSt7__cxx1112basic_stringIcSt11char_traitsIcESaIcEEC1EPKcRKS3_@plt>:
    2250:	ff 25 ba 9e 00 00    	jmp    QWORD PTR [rip+0x9eba]        # c110 <_ZNSt7__cxx1112basic_stringIcSt11char_traitsIcESaIcEEC1EPKcRKS3_@GLIBCXX_3.4.21>
    2256:	68 22 00 00 00       	push   0x22
    225b:	e9 c0 fd ff ff       	jmp    2020 <_init+0x20>

0000000000002260 <_ZNSaIcEC2ERKS_@plt>:
    2260:	ff 25 b2 9e 00 00    	jmp    QWORD PTR [rip+0x9eb2]        # c118 <_ZNSaIcEC2ERKS_@GLIBCXX_3.4>
    2266:	68 23 00 00 00       	push   0x23
    226b:	e9 b0 fd ff ff       	jmp    2020 <_init+0x20>

0000000000002270 <__cxa_rethrow@plt>:
    2270:	ff 25 aa 9e 00 00    	jmp    QWORD PTR [rip+0x9eaa]        # c120 <__cxa_rethrow@CXXABI_1.3>
    2276:	68 24 00 00 00       	push   0x24
    227b:	e9 a0 fd ff ff       	jmp    2020 <_init+0x20>

0000000000002280 <_ZNKSt7__cxx1112basic_stringIcSt11char_traitsIcESaIcEE6lengthEv@plt>:
    2280:	ff 25 a2 9e 00 00    	jmp    QWORD PTR [rip+0x9ea2]        # c128 <_ZNKSt7__cxx1112basic_stringIcSt11char_traitsIcESaIcEE6lengthEv@GLIBCXX_3.4.21>
    2286:	68 25 00 00 00       	push   0x25
    228b:	e9 90 fd ff ff       	jmp    2020 <_init+0x20>

0000000000002290 <_ZNSt8ios_base4InitC1Ev@plt>:
    2290:	ff 25 9a 9e 00 00    	jmp    QWORD PTR [rip+0x9e9a]        # c130 <_ZNSt8ios_base4InitC1Ev@GLIBCXX_3.4>
    2296:	68 26 00 00 00       	push   0x26
    229b:	e9 80 fd ff ff       	jmp    2020 <_init+0x20>

00000000000022a0 <memmove@plt>:
    22a0:	ff 25 92 9e 00 00    	jmp    QWORD PTR [rip+0x9e92]        # c138 <memmove@GLIBC_2.2.5>
    22a6:	68 27 00 00 00       	push   0x27
    22ab:	e9 70 fd ff ff       	jmp    2020 <_init+0x20>

00000000000022b0 <__cxa_end_catch@plt>:
    22b0:	ff 25 8a 9e 00 00    	jmp    QWORD PTR [rip+0x9e8a]        # c140 <__cxa_end_catch@CXXABI_1.3>
    22b6:	68 28 00 00 00       	push   0x28
    22bb:	e9 60 fd ff ff       	jmp    2020 <_init+0x20>

00000000000022c0 <__cxa_throw@plt>:
    22c0:	ff 25 82 9e 00 00    	jmp    QWORD PTR [rip+0x9e82]        # c148 <__cxa_throw@CXXABI_1.3>
    22c6:	68 29 00 00 00       	push   0x29
    22cb:	e9 50 fd ff ff       	jmp    2020 <_init+0x20>

00000000000022d0 <_ZNSolsEi@plt>:
    22d0:	ff 25 7a 9e 00 00    	jmp    QWORD PTR [rip+0x9e7a]        # c150 <_ZNSolsEi@GLIBCXX_3.4>
    22d6:	68 2a 00 00 00       	push   0x2a
    22db:	e9 40 fd ff ff       	jmp    2020 <_init+0x20>

00000000000022e0 <_Unwind_Resume@plt>:
    22e0:	ff 25 72 9e 00 00    	jmp    QWORD PTR [rip+0x9e72]        # c158 <_Unwind_Resume@GCC_3.0>
    22e6:	68 2b 00 00 00       	push   0x2b
    22eb:	e9 30 fd ff ff       	jmp    2020 <_init+0x20>

00000000000022f0 <_ZNSaIcEC1Ev@plt>:
    22f0:	ff 25 6a 9e 00 00    	jmp    QWORD PTR [rip+0x9e6a]        # c160 <_ZNSaIcEC1Ev@GLIBCXX_3.4>
    22f6:	68 2c 00 00 00       	push   0x2c
    22fb:	e9 20 fd ff ff       	jmp    2020 <_init+0x20>

0000000000002300 <_ZNSt7__cxx1112basic_stringIcSt11char_traitsIcESaIcEE9_M_createERmm@plt>:
    2300:	ff 25 62 9e 00 00    	jmp    QWORD PTR [rip+0x9e62]        # c168 <_ZNSt7__cxx1112basic_stringIcSt11char_traitsIcESaIcEE9_M_createERmm@GLIBCXX_3.4.21>
    2306:	68 2d 00 00 00       	push   0x2d
    230b:	e9 10 fd ff ff       	jmp    2020 <_init+0x20>

0000000000002310 <_ZNSt16invalid_argumentC1EPKc@plt>:
    2310:	ff 25 5a 9e 00 00    	jmp    QWORD PTR [rip+0x9e5a]        # c170 <_ZNSt16invalid_argumentC1EPKc@GLIBCXX_3.4.21>
    2316:	68 2e 00 00 00       	push   0x2e
    231b:	e9 00 fd ff ff       	jmp    2020 <_init+0x20>

0000000000002320 <_ZNSt7__cxx1112basic_stringIcSt11char_traitsIcESaIcEE11_M_capacityEm@plt>:
    2320:	ff 25 52 9e 00 00    	jmp    QWORD PTR [rip+0x9e52]        # c178 <_ZNSt7__cxx1112basic_stringIcSt11char_traitsIcESaIcEE11_M_capacityEm@GLIBCXX_3.4.21>
    2326:	68 2f 00 00 00       	push   0x2f
    232b:	e9 f0 fc ff ff       	jmp    2020 <_init+0x20>

0000000000002330 <__cxa_finalize@plt>:
    2330:	ff 25 62 9c 00 00    	jmp    QWORD PTR [rip+0x9c62]        # bf98 <__cxa_finalize@GLIBC_2.2.5>
    2336:	66 90                	xchg   ax,ax

0000000000002340 <__cxx_global_var_init>:
    2340:	55                   	push   rbp
    2341:	48 89 e5             	mov    rbp,rsp
    2344:	48 8d 3d 5d 9e 00 00 	lea    rdi,[rip+0x9e5d]        # c1a8 <_ZStL8__ioinit>
    234b:	e8 40 ff ff ff       	call   2290 <_ZNSt8ios_base4InitC1Ev@plt>
    2350:	48 8b 3d 89 9c 00 00 	mov    rdi,QWORD PTR [rip+0x9c89]        # bfe0 <_ZNSt8ios_base4InitD1Ev@GLIBCXX_3.4>
    2357:	48 8d 35 4a 9e 00 00 	lea    rsi,[rip+0x9e4a]        # c1a8 <_ZStL8__ioinit>
    235e:	48 8d 15 23 9e 00 00 	lea    rdx,[rip+0x9e23]        # c188 <__dso_handle>
    2365:	e8 26 fe ff ff       	call   2190 <__cxa_atexit@plt>
    236a:	5d                   	pop    rbp
    236b:	c3                   	ret
    236c:	0f 1f 40 00          	nop    DWORD PTR [rax+0x0]

0000000000002370 <__cxx_global_var_init.1>:
    2370:	55                   	push   rbp
    2371:	48 89 e5             	mov    rbp,rsp
    2374:	48 81 ec 00 02 00 00 	sub    rsp,0x200
    237b:	48 8d bd d8 fe ff ff 	lea    rdi,[rbp-0x128]
    2382:	48 89 bd 88 fe ff ff 	mov    QWORD PTR [rbp-0x178],rdi
    2389:	48 89 bd d0 fe ff ff 	mov    QWORD PTR [rbp-0x130],rdi
    2390:	c7 85 cc fe ff ff 0d 	mov    DWORD PTR [rbp-0x134],0xd
    2397:	00 00 00 
    239a:	48 8d 35 db 5d 00 00 	lea    rsi,[rip+0x5ddb]        # 817c <_IO_stdin_used+0x17c>
    23a1:	48 8d 95 cc fe ff ff 	lea    rdx,[rbp-0x134]
    23a8:	e8 23 07 00 00       	call   2ad0 <_ZNSt4pairIKNSt7__cxx1112basic_stringIcSt11char_traitsIcESaIcEEE5TokenEC2IRA3_KcS7_Lb1EEEOT_OT0_>
    23ad:	e9 00 00 00 00       	jmp    23b2 <__cxx_global_var_init.1+0x42>
    23b2:	48 8b bd 88 fe ff ff 	mov    rdi,QWORD PTR [rbp-0x178]
    23b9:	48 83 c7 28          	add    rdi,0x28
    23bd:	48 89 bd 80 fe ff ff 	mov    QWORD PTR [rbp-0x180],rdi
    23c4:	48 89 bd d0 fe ff ff 	mov    QWORD PTR [rbp-0x130],rdi
    23cb:	c7 85 b8 fe ff ff 0e 	mov    DWORD PTR [rbp-0x148],0xe
    23d2:	00 00 00 
    23d5:	48 8d 35 a3 5d 00 00 	lea    rsi,[rip+0x5da3]        # 817f <_IO_stdin_used+0x17f>
    23dc:	48 8d 95 b8 fe ff ff 	lea    rdx,[rbp-0x148]
    23e3:	e8 78 07 00 00       	call   2b60 <_ZNSt4pairIKNSt7__cxx1112basic_stringIcSt11char_traitsIcESaIcEEE5TokenEC2IRA4_KcS7_Lb1EEEOT_OT0_>
    23e8:	e9 00 00 00 00       	jmp    23ed <__cxx_global_var_init.1+0x7d>
    23ed:	48 8b bd 80 fe ff ff 	mov    rdi,QWORD PTR [rbp-0x180]
    23f4:	48 83 c7 28          	add    rdi,0x28
    23f8:	48 89 bd 78 fe ff ff 	mov    QWORD PTR [rbp-0x188],rdi
    23ff:	48 89 bd d0 fe ff ff 	mov    QWORD PTR [rbp-0x130],rdi
    2406:	c7 85 b4 fe ff ff 0f 	mov    DWORD PTR [rbp-0x14c],0xf
    240d:	00 00 00 
    2410:	48 8d 35 6c 5d 00 00 	lea    rsi,[rip+0x5d6c]        # 8183 <_IO_stdin_used+0x183>
    2417:	48 8d 95 b4 fe ff ff 	lea    rdx,[rbp-0x14c]
    241e:	e8 cd 07 00 00       	call   2bf0 <_ZNSt4pairIKNSt7__cxx1112basic_stringIcSt11char_traitsIcESaIcEEE5TokenEC2IRA5_KcS7_Lb1EEEOT_OT0_>
    2423:	e9 00 00 00 00       	jmp    2428 <__cxx_global_var_init.1+0xb8>
    2428:	48 8b bd 78 fe ff ff 	mov    rdi,QWORD PTR [rbp-0x188]
    242f:	48 83 c7 28          	add    rdi,0x28
    2433:	48 89 bd 70 fe ff ff 	mov    QWORD PTR [rbp-0x190],rdi
    243a:	48 89 bd d0 fe ff ff 	mov    QWORD PTR [rbp-0x130],rdi
    2441:	c7 85 b0 fe ff ff 10 	mov    DWORD PTR [rbp-0x150],0x10
    2448:	00 00 00 
    244b:	48 8d 35 36 5d 00 00 	lea    rsi,[rip+0x5d36]        # 8188 <_IO_stdin_used+0x188>
    2452:	48 8d 95 b0 fe ff ff 	lea    rdx,[rbp-0x150]
    2459:	e8 22 08 00 00       	call   2c80 <_ZNSt4pairIKNSt7__cxx1112basic_stringIcSt11char_traitsIcESaIcEEE5TokenEC2IRA6_KcS7_Lb1EEEOT_OT0_>
    245e:	e9 00 00 00 00       	jmp    2463 <__cxx_global_var_init.1+0xf3>
    2463:	48 8b bd 70 fe ff ff 	mov    rdi,QWORD PTR [rbp-0x190]
    246a:	48 83 c7 28          	add    rdi,0x28
    246e:	48 89 bd 68 fe ff ff 	mov    QWORD PTR [rbp-0x198],rdi
    2475:	48 89 bd d0 fe ff ff 	mov    QWORD PTR [rbp-0x130],rdi
    247c:	c7 85 ac fe ff ff 11 	mov    DWORD PTR [rbp-0x154],0x11
    2483:	00 00 00 
    2486:	48 8d 35 01 5d 00 00 	lea    rsi,[rip+0x5d01]        # 818e <_IO_stdin_used+0x18e>
    248d:	48 8d 95 ac fe ff ff 	lea    rdx,[rbp-0x154]
    2494:	e8 37 06 00 00       	call   2ad0 <_ZNSt4pairIKNSt7__cxx1112basic_stringIcSt11char_traitsIcESaIcEEE5TokenEC2IRA3_KcS7_Lb1EEEOT_OT0_>
    2499:	e9 00 00 00 00       	jmp    249e <__cxx_global_var_init.1+0x12e>
    249e:	48 8b bd 68 fe ff ff 	mov    rdi,QWORD PTR [rbp-0x198]
    24a5:	48 83 c7 28          	add    rdi,0x28
    24a9:	48 89 bd 60 fe ff ff 	mov    QWORD PTR [rbp-0x1a0],rdi
    24b0:	48 89 bd d0 fe ff ff 	mov    QWORD PTR [rbp-0x130],rdi
    24b7:	c7 85 a8 fe ff ff 12 	mov    DWORD PTR [rbp-0x158],0x12
    24be:	00 00 00 
    24c1:	48 8d 35 c9 5c 00 00 	lea    rsi,[rip+0x5cc9]        # 8191 <_IO_stdin_used+0x191>
    24c8:	48 8d 95 a8 fe ff ff 	lea    rdx,[rbp-0x158]
    24cf:	e8 1c 07 00 00       	call   2bf0 <_ZNSt4pairIKNSt7__cxx1112basic_stringIcSt11char_traitsIcESaIcEEE5TokenEC2IRA5_KcS7_Lb1EEEOT_OT0_>
    24d4:	e9 00 00 00 00       	jmp    24d9 <__cxx_global_var_init.1+0x169>
    24d9:	48 8b bd 60 fe ff ff 	mov    rdi,QWORD PTR [rbp-0x1a0]
    24e0:	48 83 c7 28          	add    rdi,0x28
    24e4:	48 89 bd d0 fe ff ff 	mov    QWORD PTR [rbp-0x130],rdi
    24eb:	c7 85 a4 fe ff ff 13 	mov    DWORD PTR [rbp-0x15c],0x13
    24f2:	00 00 00 
    24f5:	48 8d 35 9a 5c 00 00 	lea    rsi,[rip+0x5c9a]        # 8196 <_IO_stdin_used+0x196>
    24fc:	48 8d 95 a4 fe ff ff 	lea    rdx,[rbp-0x15c]
    2503:	e8 08 08 00 00       	call   2d10 <_ZNSt4pairIKNSt7__cxx1112basic_stringIcSt11char_traitsIcESaIcEEE5TokenEC2IRA7_KcS7_Lb1EEEOT_OT0_>
    2508:	e9 00 00 00 00       	jmp    250d <__cxx_global_var_init.1+0x19d>
    250d:	48 8d 85 d8 fe ff ff 	lea    rax,[rbp-0x128]
    2514:	48 89 45 f0          	mov    QWORD PTR [rbp-0x10],rax
    2518:	48 c7 45 f8 07 00 00 	mov    QWORD PTR [rbp-0x8],0x7
    251f:	00 
    2520:	48 8d bd 90 fe ff ff 	lea    rdi,[rbp-0x170]
    2527:	48 89 bd 58 fe ff ff 	mov    QWORD PTR [rbp-0x1a8],rdi
    252e:	e8 8d 08 00 00       	call   2dc0 <_ZNSaISt4pairIKNSt7__cxx1112basic_stringIcSt11char_traitsIcESaIcEEE5TokenEEC2Ev>
    2533:	48 8b 8d 58 fe ff ff 	mov    rcx,QWORD PTR [rbp-0x1a8]
    253a:	48 8b 75 f0          	mov    rsi,QWORD PTR [rbp-0x10]
    253e:	48 8b 55 f8          	mov    rdx,QWORD PTR [rbp-0x8]
    2542:	48 89 e0             	mov    rax,rsp
    2545:	48 89 08             	mov    QWORD PTR [rax],rcx
    2548:	48 8d 3d 61 9c 00 00 	lea    rdi,[rip+0x9c61]        # c1b0 <_ZL10keywordMapB5cxx11>
    254f:	31 c0                	xor    eax,eax
    2551:	89 c1                	mov    ecx,eax
    2553:	4c 8d 85 a0 fe ff ff 	lea    r8,[rbp-0x160]
    255a:	4c 8d 8d 98 fe ff ff 	lea    r9,[rbp-0x168]
    2561:	e8 7a 08 00 00       	call   2de0 <_ZNSt13unordered_mapINSt7__cxx1112basic_stringIcSt11char_traitsIcESaIcEEE5TokenSt4hashIS5_ESt8equal_toIS5_ESaISt4pairIKS5_S6_EEEC2ESt16initializer_listISD_EmRKS8_RKSA_RKSE_>
    2566:	e9 00 00 00 00       	jmp    256b <__cxx_global_var_init.1+0x1fb>
    256b:	48 8d bd 90 fe ff ff 	lea    rdi,[rbp-0x170]
    2572:	e8 c9 08 00 00       	call   2e40 <_ZNSaISt4pairIKNSt7__cxx1112basic_stringIcSt11char_traitsIcESaIcEEE5TokenEED2Ev>
    2577:	48 8d 85 d8 fe ff ff 	lea    rax,[rbp-0x128]
    257e:	48 89 85 48 fe ff ff 	mov    QWORD PTR [rbp-0x1b8],rax
    2585:	48 05 18 01 00 00    	add    rax,0x118
    258b:	48 89 85 50 fe ff ff 	mov    QWORD PTR [rbp-0x1b0],rax
    2592:	48 8b bd 50 fe ff ff 	mov    rdi,QWORD PTR [rbp-0x1b0]
    2599:	48 83 c7 d8          	add    rdi,0xffffffffffffffd8
    259d:	48 89 bd 40 fe ff ff 	mov    QWORD PTR [rbp-0x1c0],rdi
    25a4:	e8 f7 07 00 00       	call   2da0 <_ZNSt4pairIKNSt7__cxx1112basic_stringIcSt11char_traitsIcESaIcEEE5TokenED2Ev>
    25a9:	48 8b 8d 48 fe ff ff 	mov    rcx,QWORD PTR [rbp-0x1b8]
    25b0:	48 8b 85 40 fe ff ff 	mov    rax,QWORD PTR [rbp-0x1c0]
    25b7:	48 39 c8             	cmp    rax,rcx
    25ba:	48 89 85 50 fe ff ff 	mov    QWORD PTR [rbp-0x1b0],rax
    25c1:	0f 85 cb ff ff ff    	jne    2592 <__cxx_global_var_init.1+0x222>
    25c7:	48 8d 3d 92 08 00 00 	lea    rdi,[rip+0x892]        # 2e60 <_ZNSt13unordered_mapINSt7__cxx1112basic_stringIcSt11char_traitsIcESaIcEEE5TokenSt4hashIS5_ESt8equal_toIS5_ESaISt4pairIKS5_S6_EEED2Ev>
    25ce:	48 8d 35 db 9b 00 00 	lea    rsi,[rip+0x9bdb]        # c1b0 <_ZL10keywordMapB5cxx11>
    25d5:	48 8d 15 ac 9b 00 00 	lea    rdx,[rip+0x9bac]        # c188 <__dso_handle>
    25dc:	e8 af fb ff ff       	call   2190 <__cxa_atexit@plt>
    25e1:	48 81 c4 00 02 00 00 	add    rsp,0x200
    25e8:	5d                   	pop    rbp
    25e9:	c3                   	ret
    25ea:	48 8b 8d 88 fe ff ff 	mov    rcx,QWORD PTR [rbp-0x178]
    25f1:	48 89 95 30 fe ff ff 	mov    QWORD PTR [rbp-0x1d0],rdx
    25f8:	48 89 c2             	mov    rdx,rax
    25fb:	48 8b 85 30 fe ff ff 	mov    rax,QWORD PTR [rbp-0x1d0]
    2602:	48 89 95 c0 fe ff ff 	mov    QWORD PTR [rbp-0x140],rdx
    2609:	89 85 bc fe ff ff    	mov    DWORD PTR [rbp-0x144],eax
    260f:	48 8b 85 d0 fe ff ff 	mov    rax,QWORD PTR [rbp-0x130]
    2616:	48 39 c1             	cmp    rcx,rax
    2619:	48 89 85 38 fe ff ff 	mov    QWORD PTR [rbp-0x1c8],rax
    2620:	0f 84 35 00 00 00    	je     265b <__cxx_global_var_init.1+0x2eb>
    2626:	48 8b bd 38 fe ff ff 	mov    rdi,QWORD PTR [rbp-0x1c8]
    262d:	48 83 c7 d8          	add    rdi,0xffffffffffffffd8
    2631:	48 89 bd 28 fe ff ff 	mov    QWORD PTR [rbp-0x1d8],rdi
    2638:	e8 63 07 00 00       	call   2da0 <_ZNSt4pairIKNSt7__cxx1112basic_stringIcSt11char_traitsIcESaIcEEE5TokenED2Ev>
    263d:	48 8b 8d 88 fe ff ff 	mov    rcx,QWORD PTR [rbp-0x178]
    2644:	48 8b 85 28 fe ff ff 	mov    rax,QWORD PTR [rbp-0x1d8]
    264b:	48 39 c8             	cmp    rax,rcx
    264e:	48 89 85 38 fe ff ff 	mov    QWORD PTR [rbp-0x1c8],rax
    2655:	0f 85 cb ff ff ff    	jne    2626 <__cxx_global_var_init.1+0x2b6>
    265b:	e9 73 00 00 00       	jmp    26d3 <__cxx_global_var_init.1+0x363>
    2660:	48 89 c1             	mov    rcx,rax
    2663:	89 d0                	mov    eax,edx
    2665:	48 89 8d c0 fe ff ff 	mov    QWORD PTR [rbp-0x140],rcx
    266c:	89 85 bc fe ff ff    	mov    DWORD PTR [rbp-0x144],eax
    2672:	48 8d bd 90 fe ff ff 	lea    rdi,[rbp-0x170]
    2679:	e8 c2 07 00 00       	call   2e40 <_ZNSaISt4pairIKNSt7__cxx1112basic_stringIcSt11char_traitsIcESaIcEEE5TokenEED2Ev>
    267e:	48 8d 85 d8 fe ff ff 	lea    rax,[rbp-0x128]
    2685:	48 89 85 18 fe ff ff 	mov    QWORD PTR [rbp-0x1e8],rax
    268c:	48 05 18 01 00 00    	add    rax,0x118
    2692:	48 89 85 20 fe ff ff 	mov    QWORD PTR [rbp-0x1e0],rax
    2699:	48 8b bd 20 fe ff ff 	mov    rdi,QWORD PTR [rbp-0x1e0]
    26a0:	48 83 c7 d8          	add    rdi,0xffffffffffffffd8
    26a4:	48 89 bd 10 fe ff ff 	mov    QWORD PTR [rbp-0x1f0],rdi
    26ab:	e8 f0 06 00 00       	call   2da0 <_ZNSt4pairIKNSt7__cxx1112basic_stringIcSt11char_traitsIcESaIcEEE5TokenED2Ev>
    26b0:	48 8b 8d 18 fe ff ff 	mov    rcx,QWORD PTR [rbp-0x1e8]
    26b7:	48 8b 85 10 fe ff ff 	mov    rax,QWORD PTR [rbp-0x1f0]
    26be:	48 39 c8             	cmp    rax,rcx
    26c1:	48 89 85 20 fe ff ff 	mov    QWORD PTR [rbp-0x1e0],rax
    26c8:	0f 85 cb ff ff ff    	jne    2699 <__cxx_global_var_init.1+0x329>
    26ce:	e9 00 00 00 00       	jmp    26d3 <__cxx_global_var_init.1+0x363>
    26d3:	48 8b bd c0 fe ff ff 	mov    rdi,QWORD PTR [rbp-0x140]
    26da:	e8 01 fc ff ff       	call   22e0 <_Unwind_Resume@plt>
    26df:	90                   	nop

00000000000026e0 <_GLOBAL__sub_I_main.cxx>:
    26e0:	55                   	push   rbp
    26e1:	48 89 e5             	mov    rbp,rsp
    26e4:	e8 57 fc ff ff       	call   2340 <__cxx_global_var_init>
    26e9:	e8 82 fc ff ff       	call   2370 <__cxx_global_var_init.1>
    26ee:	5d                   	pop    rbp
    26ef:	c3                   	ret

00000000000026f0 <_start>:
    26f0:	f3 0f 1e fa          	endbr64
    26f4:	31 ed                	xor    ebp,ebp
    26f6:	49 89 d1             	mov    r9,rdx
    26f9:	5e                   	pop    rsi
    26fa:	48 89 e2             	mov    rdx,rsp
    26fd:	48 83 e4 f0          	and    rsp,0xfffffffffffffff0
    2701:	50                   	push   rax
    2702:	54                   	push   rsp
    2703:	45 31 c0             	xor    r8d,r8d
    2706:	31 c9                	xor    ecx,ecx
    2708:	48 8d 3d d1 00 00 00 	lea    rdi,[rip+0xd1]        # 27e0 <main>
    270f:	ff 15 93 98 00 00    	call   QWORD PTR [rip+0x9893]        # bfa8 <__libc_start_main@GLIBC_2.34>
    2715:	f4                   	hlt
    2716:	66 2e 0f 1f 84 00 00 	cs nop WORD PTR [rax+rax*1+0x0]
    271d:	00 00 00 

0000000000002720 <deregister_tm_clones>:
    2720:	48 8d 3d 79 9a 00 00 	lea    rdi,[rip+0x9a79]        # c1a0 <__TMC_END__>
    2727:	48 8d 05 72 9a 00 00 	lea    rax,[rip+0x9a72]        # c1a0 <__TMC_END__>
    272e:	48 39 f8             	cmp    rax,rdi
    2731:	74 15                	je     2748 <deregister_tm_clones+0x28>
    2733:	48 8b 05 86 98 00 00 	mov    rax,QWORD PTR [rip+0x9886]        # bfc0 <_ITM_deregisterTMCloneTable@Base>
    273a:	48 85 c0             	test   rax,rax
    273d:	74 09                	je     2748 <deregister_tm_clones+0x28>
    273f:	ff e0                	jmp    rax
    2741:	0f 1f 80 00 00 00 00 	nop    DWORD PTR [rax+0x0]
    2748:	c3                   	ret
    2749:	0f 1f 80 00 00 00 00 	nop    DWORD PTR [rax+0x0]

0000000000002750 <register_tm_clones>:
    2750:	48 8d 3d 49 9a 00 00 	lea    rdi,[rip+0x9a49]        # c1a0 <__TMC_END__>
    2757:	48 8d 35 42 9a 00 00 	lea    rsi,[rip+0x9a42]        # c1a0 <__TMC_END__>
    275e:	48 29 fe             	sub    rsi,rdi
    2761:	48 89 f0             	mov    rax,rsi
    2764:	48 c1 ee 3f          	shr    rsi,0x3f
    2768:	48 c1 f8 03          	sar    rax,0x3
    276c:	48 01 c6             	add    rsi,rax
    276f:	48 d1 fe             	sar    rsi,1
    2772:	74 14                	je     2788 <register_tm_clones+0x38>
    2774:	48 8b 05 5d 98 00 00 	mov    rax,QWORD PTR [rip+0x985d]        # bfd8 <_ITM_registerTMCloneTable@Base>
    277b:	48 85 c0             	test   rax,rax
    277e:	74 08                	je     2788 <register_tm_clones+0x38>
    2780:	ff e0                	jmp    rax
    2782:	66 0f 1f 44 00 00    	nop    WORD PTR [rax+rax*1+0x0]
    2788:	c3                   	ret
    2789:	0f 1f 80 00 00 00 00 	nop    DWORD PTR [rax+0x0]

0000000000002790 <__do_global_dtors_aux>:
    2790:	f3 0f 1e fa          	endbr64
    2794:	80 3d 05 9a 00 00 00 	cmp    BYTE PTR [rip+0x9a05],0x0        # c1a0 <__TMC_END__>
    279b:	75 2b                	jne    27c8 <__do_global_dtors_aux+0x38>
    279d:	55                   	push   rbp
    279e:	48 83 3d f2 97 00 00 	cmp    QWORD PTR [rip+0x97f2],0x0        # bf98 <__cxa_finalize@GLIBC_2.2.5>
    27a5:	00 
    27a6:	48 89 e5             	mov    rbp,rsp
    27a9:	74 0c                	je     27b7 <__do_global_dtors_aux+0x27>
    27ab:	48 8b 3d d6 99 00 00 	mov    rdi,QWORD PTR [rip+0x99d6]        # c188 <__dso_handle>
    27b2:	e8 79 fb ff ff       	call   2330 <__cxa_finalize@plt>
    27b7:	e8 64 ff ff ff       	call   2720 <deregister_tm_clones>
    27bc:	c6 05 dd 99 00 00 01 	mov    BYTE PTR [rip+0x99dd],0x1        # c1a0 <__TMC_END__>
    27c3:	5d                   	pop    rbp
    27c4:	c3                   	ret
    27c5:	0f 1f 00             	nop    DWORD PTR [rax]
    27c8:	c3                   	ret
    27c9:	0f 1f 80 00 00 00 00 	nop    DWORD PTR [rax+0x0]

00000000000027d0 <frame_dummy>:
    27d0:	f3 0f 1e fa          	endbr64
    27d4:	e9 77 ff ff ff       	jmp    2750 <register_tm_clones>
    27d9:	0f 1f 80 00 00 00 00 	nop    DWORD PTR [rax+0x0]

00000000000027e0 <main>:
    27e0:	55                   	push   rbp
    27e1:	48 89 e5             	mov    rbp,rsp
    27e4:	48 81 ec 10 01 00 00 	sub    rsp,0x110
    27eb:	c7 45 fc 00 00 00 00 	mov    DWORD PTR [rbp-0x4],0x0
    27f2:	48 8d 7d d0          	lea    rdi,[rbp-0x30]
    27f6:	48 89 bd 50 ff ff ff 	mov    QWORD PTR [rbp-0xb0],rdi
    27fd:	e8 ee fa ff ff       	call   22f0 <_ZNSaIcEC1Ev@plt>
    2802:	48 8b 95 50 ff ff ff 	mov    rdx,QWORD PTR [rbp-0xb0]
    2809:	48 8d 35 8d 59 00 00 	lea    rsi,[rip+0x598d]        # 819d <_IO_stdin_used+0x19d>
    2810:	48 8d 7d d8          	lea    rdi,[rbp-0x28]
    2814:	e8 37 fa ff ff       	call   2250 <_ZNSt7__cxx1112basic_stringIcSt11char_traitsIcESaIcEEC1EPKcRKS3_@plt>
    2819:	e9 00 00 00 00       	jmp    281e <main+0x3e>
    281e:	48 8d 7d d0          	lea    rdi,[rbp-0x30]
    2822:	e8 c9 f9 ff ff       	call   21f0 <_ZNSaIcED1Ev@plt>
    2827:	48 8d 7d d8          	lea    rdi,[rbp-0x28]
    282b:	48 89 bd 40 ff ff ff 	mov    QWORD PTR [rbp-0xc0],rdi
    2832:	e8 49 f9 ff ff       	call   2180 <_ZNSt7__cxx1112basic_stringIcSt11char_traitsIcESaIcEE5beginEv@plt>
    2837:	48 8b bd 40 ff ff ff 	mov    rdi,QWORD PTR [rbp-0xc0]
    283e:	48 89 45 a0          	mov    QWORD PTR [rbp-0x60],rax
    2842:	e8 a9 f8 ff ff       	call   20f0 <_ZNSt7__cxx1112basic_stringIcSt11char_traitsIcESaIcEE3endEv@plt>
    2847:	48 89 45 98          	mov    QWORD PTR [rbp-0x68],rax
    284b:	48 8d 7d 90          	lea    rdi,[rbp-0x70]
    284f:	48 89 bd 48 ff ff ff 	mov    QWORD PTR [rbp-0xb8],rdi
    2856:	e8 95 fa ff ff       	call   22f0 <_ZNSaIcEC1Ev@plt>
    285b:	48 8b 8d 48 ff ff ff 	mov    rcx,QWORD PTR [rbp-0xb8]
    2862:	48 8b 75 a0          	mov    rsi,QWORD PTR [rbp-0x60]
    2866:	48 8b 55 98          	mov    rdx,QWORD PTR [rbp-0x68]
    286a:	48 8d 7d a8          	lea    rdi,[rbp-0x58]
    286e:	e8 0d 06 00 00       	call   2e80 <_ZNSt6vectorIcSaIcEEC2IN9__gnu_cxx17__normal_iteratorIPcNSt7__cxx1112basic_stringIcSt11char_traitsIcES0_EEEEvEET_SC_RKS0_>
    2873:	e9 00 00 00 00       	jmp    2878 <main+0x98>
    2878:	48 8d 7d 90          	lea    rdi,[rbp-0x70]
    287c:	e8 6f f9 ff ff       	call   21f0 <_ZNSaIcED1Ev@plt>
    2881:	48 8d bd 60 ff ff ff 	lea    rdi,[rbp-0xa0]
    2888:	48 8d 75 a8          	lea    rsi,[rbp-0x58]
    288c:	e8 7f 06 00 00       	call   2f10 <_ZN5lexer5LexerC2ERKSt6vectorIcSaIcEE>
    2891:	e9 00 00 00 00       	jmp    2896 <main+0xb6>
    2896:	48 8d bd 60 ff ff ff 	lea    rdi,[rbp-0xa0]
    289d:	e8 ae 06 00 00       	call   2f50 <_ZN5lexer5Lexer9read_charEv>
    28a2:	e9 00 00 00 00       	jmp    28a7 <main+0xc7>
    28a7:	e9 00 00 00 00       	jmp    28ac <main+0xcc>
    28ac:	e9 00 00 00 00       	jmp    28b1 <main+0xd1>
    28b1:	48 8d bd 60 ff ff ff 	lea    rdi,[rbp-0xa0]
    28b8:	e8 13 07 00 00       	call   2fd0 <_ZN5lexer5Lexer10next_tokenEv>
    28bd:	89 85 3c ff ff ff    	mov    DWORD PTR [rbp-0xc4],eax
    28c3:	e9 00 00 00 00       	jmp    28c8 <main+0xe8>
    28c8:	8b 85 3c ff ff ff    	mov    eax,DWORD PTR [rbp-0xc4]
    28ce:	89 85 5c ff ff ff    	mov    DWORD PTR [rbp-0xa4],eax
    28d4:	83 bd 5c ff ff ff 01 	cmp    DWORD PTR [rbp-0xa4],0x1
    28db:	0f 85 67 00 00 00    	jne    2948 <main+0x168>
    28e1:	e9 a2 00 00 00       	jmp    2988 <main+0x1a8>
    28e6:	48 89 c1             	mov    rcx,rax
    28e9:	89 d0                	mov    eax,edx
    28eb:	48 89 4d c8          	mov    QWORD PTR [rbp-0x38],rcx
    28ef:	89 45 c4             	mov    DWORD PTR [rbp-0x3c],eax
    28f2:	48 8d 7d d0          	lea    rdi,[rbp-0x30]
    28f6:	e8 f5 f8 ff ff       	call   21f0 <_ZNSaIcED1Ev@plt>
    28fb:	e9 c7 01 00 00       	jmp    2ac7 <main+0x2e7>
    2900:	48 89 c1             	mov    rcx,rax
    2903:	89 d0                	mov    eax,edx
    2905:	48 89 4d c8          	mov    QWORD PTR [rbp-0x38],rcx
    2909:	89 45 c4             	mov    DWORD PTR [rbp-0x3c],eax
    290c:	48 8d 7d 90          	lea    rdi,[rbp-0x70]
    2910:	e8 db f8 ff ff       	call   21f0 <_ZNSaIcED1Ev@plt>
    2915:	e9 a4 01 00 00       	jmp    2abe <main+0x2de>
    291a:	48 89 c1             	mov    rcx,rax
    291d:	89 d0                	mov    eax,edx
    291f:	48 89 4d c8          	mov    QWORD PTR [rbp-0x38],rcx
    2923:	89 45 c4             	mov    DWORD PTR [rbp-0x3c],eax
    2926:	e9 8a 01 00 00       	jmp    2ab5 <main+0x2d5>
    292b:	48 89 c1             	mov    rcx,rax
    292e:	89 d0                	mov    eax,edx
    2930:	48 89 4d c8          	mov    QWORD PTR [rbp-0x38],rcx
    2934:	89 45 c4             	mov    DWORD PTR [rbp-0x3c],eax
    2937:	48 8d bd 60 ff ff ff 	lea    rdi,[rbp-0xa0]
    293e:	e8 4d 09 00 00       	call   3290 <_ZN5lexer5LexerD2Ev>
    2943:	e9 6d 01 00 00       	jmp    2ab5 <main+0x2d5>
    2948:	8b b5 5c ff ff ff    	mov    esi,DWORD PTR [rbp-0xa4]
    294e:	48 8b 3d 5b 96 00 00 	mov    rdi,QWORD PTR [rip+0x965b]        # bfb0 <_ZSt4cout@GLIBCXX_3.4>
    2955:	e8 76 f9 ff ff       	call   22d0 <_ZNSolsEi@plt>
    295a:	48 89 85 30 ff ff ff 	mov    QWORD PTR [rbp-0xd0],rax
    2961:	e9 00 00 00 00       	jmp    2966 <main+0x186>
    2966:	48 8b bd 30 ff ff ff 	mov    rdi,QWORD PTR [rbp-0xd0]
    296d:	48 8b 35 2c 96 00 00 	mov    rsi,QWORD PTR [rip+0x962c]        # bfa0 <_ZSt4endlIcSt11char_traitsIcEERSt13basic_ostreamIT_T0_ES6_@GLIBCXX_3.4>
    2974:	e8 57 f8 ff ff       	call   21d0 <_ZNSolsEPFRSoS_E@plt>
    2979:	e9 00 00 00 00       	jmp    297e <main+0x19e>
    297e:	e9 00 00 00 00       	jmp    2983 <main+0x1a3>
    2983:	e9 24 ff ff ff       	jmp    28ac <main+0xcc>
    2988:	48 8d bd 60 ff ff ff 	lea    rdi,[rbp-0xa0]
    298f:	e8 9c 08 00 00       	call   3230 <_ZNK5lexer5Lexer6get_chEv>
    2994:	88 85 2f ff ff ff    	mov    BYTE PTR [rbp-0xd1],al
    299a:	e9 00 00 00 00       	jmp    299f <main+0x1bf>
    299f:	8a 85 2f ff ff ff    	mov    al,BYTE PTR [rbp-0xd1]
    29a5:	0f be f0             	movsx  esi,al
    29a8:	48 8b 3d 01 96 00 00 	mov    rdi,QWORD PTR [rip+0x9601]        # bfb0 <_ZSt4cout@GLIBCXX_3.4>
    29af:	e8 5c f8 ff ff       	call   2210 <_ZStlsISt11char_traitsIcEERSt13basic_ostreamIcT_ES5_c@plt>
    29b4:	48 89 85 20 ff ff ff 	mov    QWORD PTR [rbp-0xe0],rax
    29bb:	e9 00 00 00 00       	jmp    29c0 <main+0x1e0>
    29c0:	48 8b bd 20 ff ff ff 	mov    rdi,QWORD PTR [rbp-0xe0]
    29c7:	48 8d 35 ff 57 00 00 	lea    rsi,[rip+0x57ff]        # 81cd <_IO_stdin_used+0x1cd>
    29ce:	e8 dd f7 ff ff       	call   21b0 <_ZStlsISt11char_traitsIcEERSt13basic_ostreamIcT_ES5_PKc@plt>
    29d3:	48 89 85 18 ff ff ff 	mov    QWORD PTR [rbp-0xe8],rax
    29da:	e9 00 00 00 00       	jmp    29df <main+0x1ff>
    29df:	48 8d bd 60 ff ff ff 	lea    rdi,[rbp-0xa0]
    29e6:	e8 65 08 00 00       	call   3250 <_ZNK5lexer5Lexer12get_positionEv>
    29eb:	48 89 85 10 ff ff ff 	mov    QWORD PTR [rbp-0xf0],rax
    29f2:	e9 00 00 00 00       	jmp    29f7 <main+0x217>
    29f7:	48 8b b5 10 ff ff ff 	mov    rsi,QWORD PTR [rbp-0xf0]
    29fe:	48 8b bd 18 ff ff ff 	mov    rdi,QWORD PTR [rbp-0xe8]
    2a05:	e8 46 f6 ff ff       	call   2050 <_ZNSolsEm@plt>
    2a0a:	48 89 85 08 ff ff ff 	mov    QWORD PTR [rbp-0xf8],rax
    2a11:	e9 00 00 00 00       	jmp    2a16 <main+0x236>
    2a16:	48 8b bd 08 ff ff ff 	mov    rdi,QWORD PTR [rbp-0xf8]
    2a1d:	48 8d 35 a9 57 00 00 	lea    rsi,[rip+0x57a9]        # 81cd <_IO_stdin_used+0x1cd>
    2a24:	e8 87 f7 ff ff       	call   21b0 <_ZStlsISt11char_traitsIcEERSt13basic_ostreamIcT_ES5_PKc@plt>
    2a29:	48 89 85 00 ff ff ff 	mov    QWORD PTR [rbp-0x100],rax
    2a30:	e9 00 00 00 00       	jmp    2a35 <main+0x255>
    2a35:	48 8d bd 60 ff ff ff 	lea    rdi,[rbp-0xa0]
    2a3c:	e8 2f 08 00 00       	call   3270 <_ZNK5lexer5Lexer17get_read_positionEv>
    2a41:	48 89 85 f8 fe ff ff 	mov    QWORD PTR [rbp-0x108],rax
    2a48:	e9 00 00 00 00       	jmp    2a4d <main+0x26d>
    2a4d:	48 8b b5 f8 fe ff ff 	mov    rsi,QWORD PTR [rbp-0x108]
    2a54:	48 8b bd 00 ff ff ff 	mov    rdi,QWORD PTR [rbp-0x100]
    2a5b:	e8 f0 f5 ff ff       	call   2050 <_ZNSolsEm@plt>
    2a60:	48 89 85 f0 fe ff ff 	mov    QWORD PTR [rbp-0x110],rax
    2a67:	e9 00 00 00 00       	jmp    2a6c <main+0x28c>
    2a6c:	48 8b bd f0 fe ff ff 	mov    rdi,QWORD PTR [rbp-0x110]
    2a73:	48 8b 35 26 95 00 00 	mov    rsi,QWORD PTR [rip+0x9526]        # bfa0 <_ZSt4endlIcSt11char_traitsIcEERSt13basic_ostreamIT_T0_ES6_@GLIBCXX_3.4>
    2a7a:	e8 51 f7 ff ff       	call   21d0 <_ZNSolsEPFRSoS_E@plt>
    2a7f:	e9 00 00 00 00       	jmp    2a84 <main+0x2a4>
    2a84:	c7 45 fc 00 00 00 00 	mov    DWORD PTR [rbp-0x4],0x0
    2a8b:	48 8d bd 60 ff ff ff 	lea    rdi,[rbp-0xa0]
    2a92:	e8 f9 07 00 00       	call   3290 <_ZN5lexer5LexerD2Ev>
    2a97:	48 8d 7d a8          	lea    rdi,[rbp-0x58]
    2a9b:	e8 10 08 00 00       	call   32b0 <_ZNSt6vectorIcSaIcEED2Ev>
    2aa0:	48 8d 7d d8          	lea    rdi,[rbp-0x28]
    2aa4:	e8 57 f6 ff ff       	call   2100 <_ZNSt7__cxx1112basic_stringIcSt11char_traitsIcESaIcEED1Ev@plt>
    2aa9:	8b 45 fc             	mov    eax,DWORD PTR [rbp-0x4]
    2aac:	48 81 c4 10 01 00 00 	add    rsp,0x110
    2ab3:	5d                   	pop    rbp
    2ab4:	c3                   	ret
    2ab5:	48 8d 7d a8          	lea    rdi,[rbp-0x58]
    2ab9:	e8 f2 07 00 00       	call   32b0 <_ZNSt6vectorIcSaIcEED2Ev>
    2abe:	48 8d 7d d8          	lea    rdi,[rbp-0x28]
    2ac2:	e8 39 f6 ff ff       	call   2100 <_ZNSt7__cxx1112basic_stringIcSt11char_traitsIcESaIcEED1Ev@plt>
    2ac7:	48 8b 7d c8          	mov    rdi,QWORD PTR [rbp-0x38]
    2acb:	e8 10 f8 ff ff       	call   22e0 <_Unwind_Resume@plt>

0000000000002ad0 <_ZNSt4pairIKNSt7__cxx1112basic_stringIcSt11char_traitsIcESaIcEEE5TokenEC2IRA3_KcS7_Lb1EEEOT_OT0_>:
    2ad0:	55                   	push   rbp
    2ad1:	48 89 e5             	mov    rbp,rsp
    2ad4:	48 83 ec 50          	sub    rsp,0x50
    2ad8:	48 89 7d f8          	mov    QWORD PTR [rbp-0x8],rdi
    2adc:	48 89 75 f0          	mov    QWORD PTR [rbp-0x10],rsi
    2ae0:	48 89 55 e8          	mov    QWORD PTR [rbp-0x18],rdx
    2ae4:	48 8b 45 f8          	mov    rax,QWORD PTR [rbp-0x8]
    2ae8:	48 89 45 b8          	mov    QWORD PTR [rbp-0x48],rax
    2aec:	48 8b 45 f0          	mov    rax,QWORD PTR [rbp-0x10]
    2af0:	48 89 45 c0          	mov    QWORD PTR [rbp-0x40],rax
    2af4:	48 8d 7d e0          	lea    rdi,[rbp-0x20]
    2af8:	48 89 7d c8          	mov    QWORD PTR [rbp-0x38],rdi
    2afc:	e8 ef f7 ff ff       	call   22f0 <_ZNSaIcEC1Ev@plt>
    2b01:	48 8b 7d b8          	mov    rdi,QWORD PTR [rbp-0x48]
    2b05:	48 8b 75 c0          	mov    rsi,QWORD PTR [rbp-0x40]
    2b09:	48 8b 55 c8          	mov    rdx,QWORD PTR [rbp-0x38]
    2b0d:	e8 3e f7 ff ff       	call   2250 <_ZNSt7__cxx1112basic_stringIcSt11char_traitsIcESaIcEEC1EPKcRKS3_@plt>
    2b12:	e9 00 00 00 00       	jmp    2b17 <_ZNSt4pairIKNSt7__cxx1112basic_stringIcSt11char_traitsIcESaIcEEE5TokenEC2IRA3_KcS7_Lb1EEEOT_OT0_+0x47>
    2b17:	48 8d 7d e0          	lea    rdi,[rbp-0x20]
    2b1b:	e8 d0 f6 ff ff       	call   21f0 <_ZNSaIcED1Ev@plt>
    2b20:	48 8b 45 b8          	mov    rax,QWORD PTR [rbp-0x48]
    2b24:	48 8b 4d e8          	mov    rcx,QWORD PTR [rbp-0x18]
    2b28:	8b 09                	mov    ecx,DWORD PTR [rcx]
    2b2a:	89 48 20             	mov    DWORD PTR [rax+0x20],ecx
    2b2d:	48 83 c4 50          	add    rsp,0x50
    2b31:	5d                   	pop    rbp
    2b32:	c3                   	ret
    2b33:	48 89 c1             	mov    rcx,rax
    2b36:	89 d0                	mov    eax,edx
    2b38:	48 89 4d d8          	mov    QWORD PTR [rbp-0x28],rcx
    2b3c:	89 45 d4             	mov    DWORD PTR [rbp-0x2c],eax
    2b3f:	48 8d 7d e0          	lea    rdi,[rbp-0x20]
    2b43:	e8 a8 f6 ff ff       	call   21f0 <_ZNSaIcED1Ev@plt>
    2b48:	48 8b 7d d8          	mov    rdi,QWORD PTR [rbp-0x28]
    2b4c:	e8 8f f7 ff ff       	call   22e0 <_Unwind_Resume@plt>
    2b51:	66 2e 0f 1f 84 00 00 	cs nop WORD PTR [rax+rax*1+0x0]
    2b58:	00 00 00 
    2b5b:	0f 1f 44 00 00       	nop    DWORD PTR [rax+rax*1+0x0]

0000000000002b60 <_ZNSt4pairIKNSt7__cxx1112basic_stringIcSt11char_traitsIcESaIcEEE5TokenEC2IRA4_KcS7_Lb1EEEOT_OT0_>:
    2b60:	55                   	push   rbp
    2b61:	48 89 e5             	mov    rbp,rsp
    2b64:	48 83 ec 50          	sub    rsp,0x50
    2b68:	48 89 7d f8          	mov    QWORD PTR [rbp-0x8],rdi
    2b6c:	48 89 75 f0          	mov    QWORD PTR [rbp-0x10],rsi
    2b70:	48 89 55 e8          	mov    QWORD PTR [rbp-0x18],rdx
    2b74:	48 8b 45 f8          	mov    rax,QWORD PTR [rbp-0x8]
    2b78:	48 89 45 b8          	mov    QWORD PTR [rbp-0x48],rax
    2b7c:	48 8b 45 f0          	mov    rax,QWORD PTR [rbp-0x10]
    2b80:	48 89 45 c0          	mov    QWORD PTR [rbp-0x40],rax
    2b84:	48 8d 7d e0          	lea    rdi,[rbp-0x20]
    2b88:	48 89 7d c8          	mov    QWORD PTR [rbp-0x38],rdi
    2b8c:	e8 5f f7 ff ff       	call   22f0 <_ZNSaIcEC1Ev@plt>
    2b91:	48 8b 7d b8          	mov    rdi,QWORD PTR [rbp-0x48]
    2b95:	48 8b 75 c0          	mov    rsi,QWORD PTR [rbp-0x40]
    2b99:	48 8b 55 c8          	mov    rdx,QWORD PTR [rbp-0x38]
    2b9d:	e8 ae f6 ff ff       	call   2250 <_ZNSt7__cxx1112basic_stringIcSt11char_traitsIcESaIcEEC1EPKcRKS3_@plt>
    2ba2:	e9 00 00 00 00       	jmp    2ba7 <_ZNSt4pairIKNSt7__cxx1112basic_stringIcSt11char_traitsIcESaIcEEE5TokenEC2IRA4_KcS7_Lb1EEEOT_OT0_+0x47>
    2ba7:	48 8d 7d e0          	lea    rdi,[rbp-0x20]
    2bab:	e8 40 f6 ff ff       	call   21f0 <_ZNSaIcED1Ev@plt>
    2bb0:	48 8b 45 b8          	mov    rax,QWORD PTR [rbp-0x48]
    2bb4:	48 8b 4d e8          	mov    rcx,QWORD PTR [rbp-0x18]
    2bb8:	8b 09                	mov    ecx,DWORD PTR [rcx]
    2bba:	89 48 20             	mov    DWORD PTR [rax+0x20],ecx
    2bbd:	48 83 c4 50          	add    rsp,0x50
    2bc1:	5d                   	pop    rbp
    2bc2:	c3                   	ret
    2bc3:	48 89 c1             	mov    rcx,rax
    2bc6:	89 d0                	mov    eax,edx
    2bc8:	48 89 4d d8          	mov    QWORD PTR [rbp-0x28],rcx
    2bcc:	89 45 d4             	mov    DWORD PTR [rbp-0x2c],eax
    2bcf:	48 8d 7d e0          	lea    rdi,[rbp-0x20]
    2bd3:	e8 18 f6 ff ff       	call   21f0 <_ZNSaIcED1Ev@plt>
    2bd8:	48 8b 7d d8          	mov    rdi,QWORD PTR [rbp-0x28]
    2bdc:	e8 ff f6 ff ff       	call   22e0 <_Unwind_Resume@plt>
    2be1:	66 2e 0f 1f 84 00 00 	cs nop WORD PTR [rax+rax*1+0x0]
    2be8:	00 00 00 
    2beb:	0f 1f 44 00 00       	nop    DWORD PTR [rax+rax*1+0x0]

0000000000002bf0 <_ZNSt4pairIKNSt7__cxx1112basic_stringIcSt11char_traitsIcESaIcEEE5TokenEC2IRA5_KcS7_Lb1EEEOT_OT0_>:
    2bf0:	55                   	push   rbp
    2bf1:	48 89 e5             	mov    rbp,rsp
    2bf4:	48 83 ec 50          	sub    rsp,0x50
    2bf8:	48 89 7d f8          	mov    QWORD PTR [rbp-0x8],rdi
    2bfc:	48 89 75 f0          	mov    QWORD PTR [rbp-0x10],rsi
    2c00:	48 89 55 e8          	mov    QWORD PTR [rbp-0x18],rdx
    2c04:	48 8b 45 f8          	mov    rax,QWORD PTR [rbp-0x8]
    2c08:	48 89 45 b8          	mov    QWORD PTR [rbp-0x48],rax
    2c0c:	48 8b 45 f0          	mov    rax,QWORD PTR [rbp-0x10]
    2c10:	48 89 45 c0          	mov    QWORD PTR [rbp-0x40],rax
    2c14:	48 8d 7d e0          	lea    rdi,[rbp-0x20]
    2c18:	48 89 7d c8          	mov    QWORD PTR [rbp-0x38],rdi
    2c1c:	e8 cf f6 ff ff       	call   22f0 <_ZNSaIcEC1Ev@plt>
    2c21:	48 8b 7d b8          	mov    rdi,QWORD PTR [rbp-0x48]
    2c25:	48 8b 75 c0          	mov    rsi,QWORD PTR [rbp-0x40]
    2c29:	48 8b 55 c8          	mov    rdx,QWORD PTR [rbp-0x38]
    2c2d:	e8 1e f6 ff ff       	call   2250 <_ZNSt7__cxx1112basic_stringIcSt11char_traitsIcESaIcEEC1EPKcRKS3_@plt>
    2c32:	e9 00 00 00 00       	jmp    2c37 <_ZNSt4pairIKNSt7__cxx1112basic_stringIcSt11char_traitsIcESaIcEEE5TokenEC2IRA5_KcS7_Lb1EEEOT_OT0_+0x47>
    2c37:	48 8d 7d e0          	lea    rdi,[rbp-0x20]
    2c3b:	e8 b0 f5 ff ff       	call   21f0 <_ZNSaIcED1Ev@plt>
    2c40:	48 8b 45 b8          	mov    rax,QWORD PTR [rbp-0x48]
    2c44:	48 8b 4d e8          	mov    rcx,QWORD PTR [rbp-0x18]
    2c48:	8b 09                	mov    ecx,DWORD PTR [rcx]
    2c4a:	89 48 20             	mov    DWORD PTR [rax+0x20],ecx
    2c4d:	48 83 c4 50          	add    rsp,0x50
    2c51:	5d                   	pop    rbp
    2c52:	c3                   	ret
    2c53:	48 89 c1             	mov    rcx,rax
    2c56:	89 d0                	mov    eax,edx
    2c58:	48 89 4d d8          	mov    QWORD PTR [rbp-0x28],rcx
    2c5c:	89 45 d4             	mov    DWORD PTR [rbp-0x2c],eax
    2c5f:	48 8d 7d e0          	lea    rdi,[rbp-0x20]
    2c63:	e8 88 f5 ff ff       	call   21f0 <_ZNSaIcED1Ev@plt>
    2c68:	48 8b 7d d8          	mov    rdi,QWORD PTR [rbp-0x28]
    2c6c:	e8 6f f6 ff ff       	call   22e0 <_Unwind_Resume@plt>
    2c71:	66 2e 0f 1f 84 00 00 	cs nop WORD PTR [rax+rax*1+0x0]
    2c78:	00 00 00 
    2c7b:	0f 1f 44 00 00       	nop    DWORD PTR [rax+rax*1+0x0]

0000000000002c80 <_ZNSt4pairIKNSt7__cxx1112basic_stringIcSt11char_traitsIcESaIcEEE5TokenEC2IRA6_KcS7_Lb1EEEOT_OT0_>:
    2c80:	55                   	push   rbp
    2c81:	48 89 e5             	mov    rbp,rsp
    2c84:	48 83 ec 50          	sub    rsp,0x50
    2c88:	48 89 7d f8          	mov    QWORD PTR [rbp-0x8],rdi
    2c8c:	48 89 75 f0          	mov    QWORD PTR [rbp-0x10],rsi
    2c90:	48 89 55 e8          	mov    QWORD PTR [rbp-0x18],rdx
    2c94:	48 8b 45 f8          	mov    rax,QWORD PTR [rbp-0x8]
    2c98:	48 89 45 b8          	mov    QWORD PTR [rbp-0x48],rax
    2c9c:	48 8b 45 f0          	mov    rax,QWORD PTR [rbp-0x10]
    2ca0:	48 89 45 c0          	mov    QWORD PTR [rbp-0x40],rax
    2ca4:	48 8d 7d e0          	lea    rdi,[rbp-0x20]
    2ca8:	48 89 7d c8          	mov    QWORD PTR [rbp-0x38],rdi
    2cac:	e8 3f f6 ff ff       	call   22f0 <_ZNSaIcEC1Ev@plt>
    2cb1:	48 8b 7d b8          	mov    rdi,QWORD PTR [rbp-0x48]
    2cb5:	48 8b 75 c0          	mov    rsi,QWORD PTR [rbp-0x40]
    2cb9:	48 8b 55 c8          	mov    rdx,QWORD PTR [rbp-0x38]
    2cbd:	e8 8e f5 ff ff       	call   2250 <_ZNSt7__cxx1112basic_stringIcSt11char_traitsIcESaIcEEC1EPKcRKS3_@plt>
    2cc2:	e9 00 00 00 00       	jmp    2cc7 <_ZNSt4pairIKNSt7__cxx1112basic_stringIcSt11char_traitsIcESaIcEEE5TokenEC2IRA6_KcS7_Lb1EEEOT_OT0_+0x47>
    2cc7:	48 8d 7d e0          	lea    rdi,[rbp-0x20]
    2ccb:	e8 20 f5 ff ff       	call   21f0 <_ZNSaIcED1Ev@plt>
    2cd0:	48 8b 45 b8          	mov    rax,QWORD PTR [rbp-0x48]
    2cd4:	48 8b 4d e8          	mov    rcx,QWORD PTR [rbp-0x18]
    2cd8:	8b 09                	mov    ecx,DWORD PTR [rcx]
    2cda:	89 48 20             	mov    DWORD PTR [rax+0x20],ecx
    2cdd:	48 83 c4 50          	add    rsp,0x50
    2ce1:	5d                   	pop    rbp
    2ce2:	c3                   	ret
    2ce3:	48 89 c1             	mov    rcx,rax
    2ce6:	89 d0                	mov    eax,edx
    2ce8:	48 89 4d d8          	mov    QWORD PTR [rbp-0x28],rcx
    2cec:	89 45 d4             	mov    DWORD PTR [rbp-0x2c],eax
    2cef:	48 8d 7d e0          	lea    rdi,[rbp-0x20]
    2cf3:	e8 f8 f4 ff ff       	call   21f0 <_ZNSaIcED1Ev@plt>
    2cf8:	48 8b 7d d8          	mov    rdi,QWORD PTR [rbp-0x28]
    2cfc:	e8 df f5 ff ff       	call   22e0 <_Unwind_Resume@plt>
    2d01:	66 2e 0f 1f 84 00 00 	cs nop WORD PTR [rax+rax*1+0x0]
    2d08:	00 00 00 
    2d0b:	0f 1f 44 00 00       	nop    DWORD PTR [rax+rax*1+0x0]

0000000000002d10 <_ZNSt4pairIKNSt7__cxx1112basic_stringIcSt11char_traitsIcESaIcEEE5TokenEC2IRA7_KcS7_Lb1EEEOT_OT0_>:
    2d10:	55                   	push   rbp
    2d11:	48 89 e5             	mov    rbp,rsp
    2d14:	48 83 ec 50          	sub    rsp,0x50
    2d18:	48 89 7d f8          	mov    QWORD PTR [rbp-0x8],rdi
    2d1c:	48 89 75 f0          	mov    QWORD PTR [rbp-0x10],rsi
    2d20:	48 89 55 e8          	mov    QWORD PTR [rbp-0x18],rdx
    2d24:	48 8b 45 f8          	mov    rax,QWORD PTR [rbp-0x8]
    2d28:	48 89 45 b8          	mov    QWORD PTR [rbp-0x48],rax
    2d2c:	48 8b 45 f0          	mov    rax,QWORD PTR [rbp-0x10]
    2d30:	48 89 45 c0          	mov    QWORD PTR [rbp-0x40],rax
    2d34:	48 8d 7d e0          	lea    rdi,[rbp-0x20]
    2d38:	48 89 7d c8          	mov    QWORD PTR [rbp-0x38],rdi
    2d3c:	e8 af f5 ff ff       	call   22f0 <_ZNSaIcEC1Ev@plt>
    2d41:	48 8b 7d b8          	mov    rdi,QWORD PTR [rbp-0x48]
    2d45:	48 8b 75 c0          	mov    rsi,QWORD PTR [rbp-0x40]
    2d49:	48 8b 55 c8          	mov    rdx,QWORD PTR [rbp-0x38]
    2d4d:	e8 fe f4 ff ff       	call   2250 <_ZNSt7__cxx1112basic_stringIcSt11char_traitsIcESaIcEEC1EPKcRKS3_@plt>
    2d52:	e9 00 00 00 00       	jmp    2d57 <_ZNSt4pairIKNSt7__cxx1112basic_stringIcSt11char_traitsIcESaIcEEE5TokenEC2IRA7_KcS7_Lb1EEEOT_OT0_+0x47>
    2d57:	48 8d 7d e0          	lea    rdi,[rbp-0x20]
    2d5b:	e8 90 f4 ff ff       	call   21f0 <_ZNSaIcED1Ev@plt>
    2d60:	48 8b 45 b8          	mov    rax,QWORD PTR [rbp-0x48]
    2d64:	48 8b 4d e8          	mov    rcx,QWORD PTR [rbp-0x18]
    2d68:	8b 09                	mov    ecx,DWORD PTR [rcx]
    2d6a:	89 48 20             	mov    DWORD PTR [rax+0x20],ecx
    2d6d:	48 83 c4 50          	add    rsp,0x50
    2d71:	5d                   	pop    rbp
    2d72:	c3                   	ret
    2d73:	48 89 c1             	mov    rcx,rax
    2d76:	89 d0                	mov    eax,edx
    2d78:	48 89 4d d8          	mov    QWORD PTR [rbp-0x28],rcx
    2d7c:	89 45 d4             	mov    DWORD PTR [rbp-0x2c],eax
    2d7f:	48 8d 7d e0          	lea    rdi,[rbp-0x20]
    2d83:	e8 68 f4 ff ff       	call   21f0 <_ZNSaIcED1Ev@plt>
    2d88:	48 8b 7d d8          	mov    rdi,QWORD PTR [rbp-0x28]
    2d8c:	e8 4f f5 ff ff       	call   22e0 <_Unwind_Resume@plt>
    2d91:	66 2e 0f 1f 84 00 00 	cs nop WORD PTR [rax+rax*1+0x0]
    2d98:	00 00 00 
    2d9b:	0f 1f 44 00 00       	nop    DWORD PTR [rax+rax*1+0x0]

0000000000002da0 <_ZNSt4pairIKNSt7__cxx1112basic_stringIcSt11char_traitsIcESaIcEEE5TokenED2Ev>:
    2da0:	55                   	push   rbp
    2da1:	48 89 e5             	mov    rbp,rsp
    2da4:	48 83 ec 10          	sub    rsp,0x10
    2da8:	48 89 7d f8          	mov    QWORD PTR [rbp-0x8],rdi
    2dac:	48 8b 7d f8          	mov    rdi,QWORD PTR [rbp-0x8]
    2db0:	e8 4b f3 ff ff       	call   2100 <_ZNSt7__cxx1112basic_stringIcSt11char_traitsIcESaIcEED1Ev@plt>
    2db5:	48 83 c4 10          	add    rsp,0x10
    2db9:	5d                   	pop    rbp
    2dba:	c3                   	ret
    2dbb:	0f 1f 44 00 00       	nop    DWORD PTR [rax+rax*1+0x0]

0000000000002dc0 <_ZNSaISt4pairIKNSt7__cxx1112basic_stringIcSt11char_traitsIcESaIcEEE5TokenEEC2Ev>:
    2dc0:	55                   	push   rbp
    2dc1:	48 89 e5             	mov    rbp,rsp
    2dc4:	48 83 ec 10          	sub    rsp,0x10
    2dc8:	48 89 7d f8          	mov    QWORD PTR [rbp-0x8],rdi
    2dcc:	48 8b 7d f8          	mov    rdi,QWORD PTR [rbp-0x8]
    2dd0:	e8 9b 2b 00 00       	call   5970 <_ZNSt15__new_allocatorISt4pairIKNSt7__cxx1112basic_stringIcSt11char_traitsIcESaIcEEE5TokenEEC2Ev>
    2dd5:	48 83 c4 10          	add    rsp,0x10
    2dd9:	5d                   	pop    rbp
    2dda:	c3                   	ret
    2ddb:	0f 1f 44 00 00       	nop    DWORD PTR [rax+rax*1+0x0]

0000000000002de0 <_ZNSt13unordered_mapINSt7__cxx1112basic_stringIcSt11char_traitsIcESaIcEEE5TokenSt4hashIS5_ESt8equal_toIS5_ESaISt4pairIKS5_S6_EEEC2ESt16initializer_listISD_EmRKS8_RKSA_RKSE_>:
    2de0:	55                   	push   rbp
    2de1:	48 89 e5             	mov    rbp,rsp
    2de4:	48 83 ec 50          	sub    rsp,0x50
    2de8:	48 8b 45 10          	mov    rax,QWORD PTR [rbp+0x10]
    2dec:	48 89 75 f0          	mov    QWORD PTR [rbp-0x10],rsi
    2df0:	48 89 55 f8          	mov    QWORD PTR [rbp-0x8],rdx
    2df4:	48 89 7d e8          	mov    QWORD PTR [rbp-0x18],rdi
    2df8:	48 89 4d e0          	mov    QWORD PTR [rbp-0x20],rcx
    2dfc:	4c 89 45 d8          	mov    QWORD PTR [rbp-0x28],r8
    2e00:	4c 89 4d d0          	mov    QWORD PTR [rbp-0x30],r9
    2e04:	48 8b 7d e8          	mov    rdi,QWORD PTR [rbp-0x18]
    2e08:	48 8b 45 f0          	mov    rax,QWORD PTR [rbp-0x10]
    2e0c:	48 89 45 c0          	mov    QWORD PTR [rbp-0x40],rax
    2e10:	48 8b 45 f8          	mov    rax,QWORD PTR [rbp-0x8]
    2e14:	48 89 45 c8          	mov    QWORD PTR [rbp-0x38],rax
    2e18:	48 8b 4d e0          	mov    rcx,QWORD PTR [rbp-0x20]
    2e1c:	4c 8b 45 d8          	mov    r8,QWORD PTR [rbp-0x28]
    2e20:	4c 8b 4d d0          	mov    r9,QWORD PTR [rbp-0x30]
    2e24:	48 8b 45 10          	mov    rax,QWORD PTR [rbp+0x10]
    2e28:	48 8b 75 c0          	mov    rsi,QWORD PTR [rbp-0x40]
    2e2c:	48 8b 55 c8          	mov    rdx,QWORD PTR [rbp-0x38]
    2e30:	48 89 04 24          	mov    QWORD PTR [rsp],rax
    2e34:	e8 57 2b 00 00       	call   5990 <_ZNSt10_HashtableINSt7__cxx1112basic_stringIcSt11char_traitsIcESaIcEEESt4pairIKS5_5TokenESaIS9_ENSt8__detail10_Select1stESt8equal_toIS5_ESt4hashIS5_ENSB_18_Mod_range_hashingENSB_20_Default_ranged_hashENSB_20_Prime_rehash_policyENSB_17_Hashtable_traitsILb1ELb0ELb1EEEEC2ESt16initializer_listIS9_EmRKSG_RKSE_RKSA_>
    2e39:	48 83 c4 50          	add    rsp,0x50
    2e3d:	5d                   	pop    rbp
    2e3e:	c3                   	ret
    2e3f:	90                   	nop

0000000000002e40 <_ZNSaISt4pairIKNSt7__cxx1112basic_stringIcSt11char_traitsIcESaIcEEE5TokenEED2Ev>:
    2e40:	55                   	push   rbp
    2e41:	48 89 e5             	mov    rbp,rsp
    2e44:	48 83 ec 10          	sub    rsp,0x10
    2e48:	48 89 7d f8          	mov    QWORD PTR [rbp-0x8],rdi
    2e4c:	48 8b 7d f8          	mov    rdi,QWORD PTR [rbp-0x8]
    2e50:	e8 2b 2b 00 00       	call   5980 <_ZNSt15__new_allocatorISt4pairIKNSt7__cxx1112basic_stringIcSt11char_traitsIcESaIcEEE5TokenEED2Ev>
    2e55:	48 83 c4 10          	add    rsp,0x10
    2e59:	5d                   	pop    rbp
    2e5a:	c3                   	ret
    2e5b:	0f 1f 44 00 00       	nop    DWORD PTR [rax+rax*1+0x0]

0000000000002e60 <_ZNSt13unordered_mapINSt7__cxx1112basic_stringIcSt11char_traitsIcESaIcEEE5TokenSt4hashIS5_ESt8equal_toIS5_ESaISt4pairIKS5_S6_EEED2Ev>:
    2e60:	55                   	push   rbp
    2e61:	48 89 e5             	mov    rbp,rsp
    2e64:	48 83 ec 10          	sub    rsp,0x10
    2e68:	48 89 7d f8          	mov    QWORD PTR [rbp-0x8],rdi
    2e6c:	48 8b 7d f8          	mov    rdi,QWORD PTR [rbp-0x8]
    2e70:	e8 9b 04 00 00       	call   3310 <_ZNSt10_HashtableINSt7__cxx1112basic_stringIcSt11char_traitsIcESaIcEEESt4pairIKS5_5TokenESaIS9_ENSt8__detail10_Select1stESt8equal_toIS5_ESt4hashIS5_ENSB_18_Mod_range_hashingENSB_20_Default_ranged_hashENSB_20_Prime_rehash_policyENSB_17_Hashtable_traitsILb1ELb0ELb1EEEED2Ev>
    2e75:	48 83 c4 10          	add    rsp,0x10
    2e79:	5d                   	pop    rbp
    2e7a:	c3                   	ret
    2e7b:	0f 1f 44 00 00       	nop    DWORD PTR [rax+rax*1+0x0]

0000000000002e80 <_ZNSt6vectorIcSaIcEEC2IN9__gnu_cxx17__normal_iteratorIPcNSt7__cxx1112basic_stringIcSt11char_traitsIcES0_EEEEvEET_SC_RKS0_>:
    2e80:	55                   	push   rbp
    2e81:	48 89 e5             	mov    rbp,rsp
    2e84:	48 83 ec 60          	sub    rsp,0x60
    2e88:	48 89 75 f8          	mov    QWORD PTR [rbp-0x8],rsi
    2e8c:	48 89 55 f0          	mov    QWORD PTR [rbp-0x10],rdx
    2e90:	48 89 7d e8          	mov    QWORD PTR [rbp-0x18],rdi
    2e94:	48 89 4d e0          	mov    QWORD PTR [rbp-0x20],rcx
    2e98:	48 8b 7d e8          	mov    rdi,QWORD PTR [rbp-0x18]
    2e9c:	48 89 7d a8          	mov    QWORD PTR [rbp-0x58],rdi
    2ea0:	48 8b 75 e0          	mov    rsi,QWORD PTR [rbp-0x20]
    2ea4:	e8 07 18 00 00       	call   46b0 <_ZNSt12_Vector_baseIcSaIcEEC2ERKS0_>
    2ea9:	48 8b 45 f8          	mov    rax,QWORD PTR [rbp-0x8]
    2ead:	48 89 45 d8          	mov    QWORD PTR [rbp-0x28],rax
    2eb1:	48 8b 45 f0          	mov    rax,QWORD PTR [rbp-0x10]
    2eb5:	48 89 45 d0          	mov    QWORD PTR [rbp-0x30],rax
    2eb9:	48 8d 7d f8          	lea    rdi,[rbp-0x8]
    2ebd:	e8 4e 41 00 00       	call   7010 <_ZSt19__iterator_categoryIN9__gnu_cxx17__normal_iteratorIPcNSt7__cxx1112basic_stringIcSt11char_traitsIcESaIcEEEEEENSt15iterator_traitsIT_E17iterator_categoryERKSB_>
    2ec2:	e9 00 00 00 00       	jmp    2ec7 <_ZNSt6vectorIcSaIcEEC2IN9__gnu_cxx17__normal_iteratorIPcNSt7__cxx1112basic_stringIcSt11char_traitsIcES0_EEEEvEET_SC_RKS0_+0x47>
    2ec7:	48 8b 7d a8          	mov    rdi,QWORD PTR [rbp-0x58]
    2ecb:	48 8b 75 d8          	mov    rsi,QWORD PTR [rbp-0x28]
    2ecf:	48 8b 55 d0          	mov    rdx,QWORD PTR [rbp-0x30]
    2ed3:	e8 78 40 00 00       	call   6f50 <_ZNSt6vectorIcSaIcEE19_M_range_initializeIN9__gnu_cxx17__normal_iteratorIPcNSt7__cxx1112basic_stringIcSt11char_traitsIcES0_EEEEEEvT_SC_St20forward_iterator_tag>
    2ed8:	e9 00 00 00 00       	jmp    2edd <_ZNSt6vectorIcSaIcEEC2IN9__gnu_cxx17__normal_iteratorIPcNSt7__cxx1112basic_stringIcSt11char_traitsIcES0_EEEEvEET_SC_RKS0_+0x5d>
    2edd:	48 83 c4 60          	add    rsp,0x60
    2ee1:	5d                   	pop    rbp
    2ee2:	c3                   	ret
    2ee3:	48 8b 7d a8          	mov    rdi,QWORD PTR [rbp-0x58]
    2ee7:	48 89 c1             	mov    rcx,rax
    2eea:	89 d0                	mov    eax,edx
    2eec:	48 89 4d b8          	mov    QWORD PTR [rbp-0x48],rcx
    2ef0:	89 45 b4             	mov    DWORD PTR [rbp-0x4c],eax
    2ef3:	e8 08 0c 00 00       	call   3b00 <_ZNSt12_Vector_baseIcSaIcEED2Ev>
    2ef8:	48 8b 7d b8          	mov    rdi,QWORD PTR [rbp-0x48]
    2efc:	e8 df f3 ff ff       	call   22e0 <_Unwind_Resume@plt>
    2f01:	66 2e 0f 1f 84 00 00 	cs nop WORD PTR [rax+rax*1+0x0]
    2f08:	00 00 00 
    2f0b:	0f 1f 44 00 00       	nop    DWORD PTR [rax+rax*1+0x0]

0000000000002f10 <_ZN5lexer5LexerC2ERKSt6vectorIcSaIcEE>:
    2f10:	55                   	push   rbp
    2f11:	48 89 e5             	mov    rbp,rsp
    2f14:	48 83 ec 20          	sub    rsp,0x20
    2f18:	48 89 7d f8          	mov    QWORD PTR [rbp-0x8],rdi
    2f1c:	48 89 75 f0          	mov    QWORD PTR [rbp-0x10],rsi
    2f20:	48 8b 7d f8          	mov    rdi,QWORD PTR [rbp-0x8]
    2f24:	48 89 7d e8          	mov    QWORD PTR [rbp-0x18],rdi
    2f28:	48 8b 75 f0          	mov    rsi,QWORD PTR [rbp-0x10]
    2f2c:	e8 6f 09 00 00       	call   38a0 <_ZNSt6vectorIcSaIcEEC2ERKS1_>
    2f31:	48 8b 45 e8          	mov    rax,QWORD PTR [rbp-0x18]
    2f35:	48 c7 40 18 00 00 00 	mov    QWORD PTR [rax+0x18],0x0
    2f3c:	00 
    2f3d:	48 c7 40 20 00 00 00 	mov    QWORD PTR [rax+0x20],0x0
    2f44:	00 
    2f45:	c6 40 28 30          	mov    BYTE PTR [rax+0x28],0x30
    2f49:	48 83 c4 20          	add    rsp,0x20
    2f4d:	5d                   	pop    rbp
    2f4e:	c3                   	ret
    2f4f:	90                   	nop

0000000000002f50 <_ZN5lexer5Lexer9read_charEv>:
    2f50:	55                   	push   rbp
    2f51:	48 89 e5             	mov    rbp,rsp
    2f54:	48 83 ec 20          	sub    rsp,0x20
    2f58:	48 89 7d f8          	mov    QWORD PTR [rbp-0x8],rdi
    2f5c:	48 8b 7d f8          	mov    rdi,QWORD PTR [rbp-0x8]
    2f60:	48 89 7d e8          	mov    QWORD PTR [rbp-0x18],rdi
    2f64:	48 8b 47 20          	mov    rax,QWORD PTR [rdi+0x20]
    2f68:	48 89 45 f0          	mov    QWORD PTR [rbp-0x10],rax
    2f6c:	e8 1f 0a 00 00       	call   3990 <_ZNKSt6vectorIcSaIcEE4sizeEv>
    2f71:	48 89 c1             	mov    rcx,rax
    2f74:	48 8b 45 f0          	mov    rax,QWORD PTR [rbp-0x10]
    2f78:	48 39 c8             	cmp    rax,rcx
    2f7b:	0f 82 0d 00 00 00    	jb     2f8e <_ZN5lexer5Lexer9read_charEv+0x3e>
    2f81:	48 8b 45 e8          	mov    rax,QWORD PTR [rbp-0x18]
    2f85:	c6 40 28 30          	mov    BYTE PTR [rax+0x28],0x30
    2f89:	e9 19 00 00 00       	jmp    2fa7 <_ZN5lexer5Lexer9read_charEv+0x57>
    2f8e:	48 8b 7d e8          	mov    rdi,QWORD PTR [rbp-0x18]
    2f92:	48 8b 77 20          	mov    rsi,QWORD PTR [rdi+0x20]
    2f96:	e8 05 11 00 00       	call   40a0 <_ZNSt6vectorIcSaIcEEixEm>
    2f9b:	48 89 c1             	mov    rcx,rax
    2f9e:	48 8b 45 e8          	mov    rax,QWORD PTR [rbp-0x18]
    2fa2:	8a 09                	mov    cl,BYTE PTR [rcx]
    2fa4:	88 48 28             	mov    BYTE PTR [rax+0x28],cl
    2fa7:	48 8b 45 e8          	mov    rax,QWORD PTR [rbp-0x18]
    2fab:	48 8b 48 20          	mov    rcx,QWORD PTR [rax+0x20]
    2faf:	48 89 48 18          	mov    QWORD PTR [rax+0x18],rcx
    2fb3:	48 8b 48 20          	mov    rcx,QWORD PTR [rax+0x20]
    2fb7:	48 83 c1 01          	add    rcx,0x1
    2fbb:	48 89 48 20          	mov    QWORD PTR [rax+0x20],rcx
    2fbf:	48 83 c4 20          	add    rsp,0x20
    2fc3:	5d                   	pop    rbp
    2fc4:	c3                   	ret
    2fc5:	66 2e 0f 1f 84 00 00 	cs nop WORD PTR [rax+rax*1+0x0]
    2fcc:	00 00 00 
    2fcf:	90                   	nop

0000000000002fd0 <_ZN5lexer5Lexer10next_tokenEv>:
    2fd0:	55                   	push   rbp
    2fd1:	48 89 e5             	mov    rbp,rsp
    2fd4:	48 81 ec 90 00 00 00 	sub    rsp,0x90
    2fdb:	48 89 7d f0          	mov    QWORD PTR [rbp-0x10],rdi
    2fdf:	48 8b 7d f0          	mov    rdi,QWORD PTR [rbp-0x10]
    2fe3:	48 89 7d 80          	mov    QWORD PTR [rbp-0x80],rdi
    2fe7:	48 89 7d e8          	mov    QWORD PTR [rbp-0x18],rdi
    2feb:	48 89 7d e0          	mov    QWORD PTR [rbp-0x20],rdi
    2fef:	e8 cc 10 00 00       	call   40c0 <_ZN5lexer5Lexer15skip_whitespaceEv>
    2ff4:	48 8b 45 80          	mov    rax,QWORD PTR [rbp-0x80]
    2ff8:	0f be 40 28          	movsx  eax,BYTE PTR [rax+0x28]
    2ffc:	83 c0 df             	add    eax,0xffffffdf
    2fff:	89 c1                	mov    ecx,eax
    3001:	48 89 4d 88          	mov    QWORD PTR [rbp-0x78],rcx
    3005:	83 e8 5c             	sub    eax,0x5c
    3008:	0f 87 c8 00 00 00    	ja     30d6 <_ZN5lexer5Lexer10next_tokenEv+0x106>
    300e:	48 8b 45 88          	mov    rax,QWORD PTR [rbp-0x78]
    3012:	48 8d 0d eb 4f 00 00 	lea    rcx,[rip+0x4feb]        # 8004 <_IO_stdin_used+0x4>
    3019:	48 63 04 81          	movsxd rax,DWORD PTR [rcx+rax*4]
    301d:	48 01 c8             	add    rax,rcx
    3020:	ff e0                	jmp    rax
    3022:	c7 45 dc 05 00 00 00 	mov    DWORD PTR [rbp-0x24],0x5
    3029:	e9 de 01 00 00       	jmp    320c <_ZN5lexer5Lexer10next_tokenEv+0x23c>
    302e:	c7 45 dc 06 00 00 00 	mov    DWORD PTR [rbp-0x24],0x6
    3035:	e9 d2 01 00 00       	jmp    320c <_ZN5lexer5Lexer10next_tokenEv+0x23c>
    303a:	c7 45 dc 14 00 00 00 	mov    DWORD PTR [rbp-0x24],0x14
    3041:	e9 c6 01 00 00       	jmp    320c <_ZN5lexer5Lexer10next_tokenEv+0x23c>
    3046:	c7 45 dc 15 00 00 00 	mov    DWORD PTR [rbp-0x24],0x15
    304d:	e9 ba 01 00 00       	jmp    320c <_ZN5lexer5Lexer10next_tokenEv+0x23c>
    3052:	c7 45 dc 17 00 00 00 	mov    DWORD PTR [rbp-0x24],0x17
    3059:	e9 ae 01 00 00       	jmp    320c <_ZN5lexer5Lexer10next_tokenEv+0x23c>
    305e:	c7 45 dc 16 00 00 00 	mov    DWORD PTR [rbp-0x24],0x16
    3065:	e9 a2 01 00 00       	jmp    320c <_ZN5lexer5Lexer10next_tokenEv+0x23c>
    306a:	c7 45 dc 18 00 00 00 	mov    DWORD PTR [rbp-0x24],0x18
    3071:	e9 96 01 00 00       	jmp    320c <_ZN5lexer5Lexer10next_tokenEv+0x23c>
    3076:	c7 45 dc 19 00 00 00 	mov    DWORD PTR [rbp-0x24],0x19
    307d:	e9 8a 01 00 00       	jmp    320c <_ZN5lexer5Lexer10next_tokenEv+0x23c>
    3082:	c7 45 dc 08 00 00 00 	mov    DWORD PTR [rbp-0x24],0x8
    3089:	e9 7e 01 00 00       	jmp    320c <_ZN5lexer5Lexer10next_tokenEv+0x23c>
    308e:	c7 45 dc 09 00 00 00 	mov    DWORD PTR [rbp-0x24],0x9
    3095:	e9 72 01 00 00       	jmp    320c <_ZN5lexer5Lexer10next_tokenEv+0x23c>
    309a:	c7 45 dc 0a 00 00 00 	mov    DWORD PTR [rbp-0x24],0xa
    30a1:	e9 66 01 00 00       	jmp    320c <_ZN5lexer5Lexer10next_tokenEv+0x23c>
    30a6:	c7 45 dc 07 00 00 00 	mov    DWORD PTR [rbp-0x24],0x7
    30ad:	e9 5a 01 00 00       	jmp    320c <_ZN5lexer5Lexer10next_tokenEv+0x23c>
    30b2:	c7 45 dc 0b 00 00 00 	mov    DWORD PTR [rbp-0x24],0xb
    30b9:	e9 4e 01 00 00       	jmp    320c <_ZN5lexer5Lexer10next_tokenEv+0x23c>
    30be:	c7 45 dc 0c 00 00 00 	mov    DWORD PTR [rbp-0x24],0xc
    30c5:	e9 42 01 00 00       	jmp    320c <_ZN5lexer5Lexer10next_tokenEv+0x23c>
    30ca:	c7 45 dc 01 00 00 00 	mov    DWORD PTR [rbp-0x24],0x1
    30d1:	e9 36 01 00 00       	jmp    320c <_ZN5lexer5Lexer10next_tokenEv+0x23c>
    30d6:	48 8b 45 80          	mov    rax,QWORD PTR [rbp-0x80]
    30da:	0f be 78 28          	movsx  edi,BYTE PTR [rax+0x28]
    30de:	e8 3d 10 00 00       	call   4120 <_ZN5lexer5Lexer9is_letterEc>
    30e3:	a8 01                	test   al,0x1
    30e5:	0f 85 05 00 00 00    	jne    30f0 <_ZN5lexer5Lexer10next_tokenEv+0x120>
    30eb:	e9 c8 00 00 00       	jmp    31b8 <_ZN5lexer5Lexer10next_tokenEv+0x1e8>
    30f0:	48 8d 7d c0          	lea    rdi,[rbp-0x40]
    30f4:	48 89 bd 70 ff ff ff 	mov    QWORD PTR [rbp-0x90],rdi
    30fb:	48 8d 75 e8          	lea    rsi,[rbp-0x18]
    30ff:	e8 8c 10 00 00       	call   4190 <_ZZN5lexer5Lexer10next_tokenEvENKUlvE_clEv>
    3104:	48 8b bd 70 ff ff ff 	mov    rdi,QWORD PTR [rbp-0x90]
    310b:	e8 b0 11 00 00       	call   42c0 <_Z17get_keyword_tokenRKSt6vectorIcSaIcEE>
    3110:	89 85 7c ff ff ff    	mov    DWORD PTR [rbp-0x84],eax
    3116:	e9 00 00 00 00       	jmp    311b <_ZN5lexer5Lexer10next_tokenEv+0x14b>
    311b:	8b 85 7c ff ff ff    	mov    eax,DWORD PTR [rbp-0x84]
    3121:	89 45 fc             	mov    DWORD PTR [rbp-0x4],eax
    3124:	c7 45 b0 01 00 00 00 	mov    DWORD PTR [rbp-0x50],0x1
    312b:	e9 57 00 00 00       	jmp    3187 <_ZN5lexer5Lexer10next_tokenEv+0x1b7>
    3130:	48 89 c1             	mov    rcx,rax
    3133:	89 d0                	mov    eax,edx
    3135:	48 89 4d b8          	mov    QWORD PTR [rbp-0x48],rcx
    3139:	89 45 b4             	mov    DWORD PTR [rbp-0x4c],eax
    313c:	8b 45 b4             	mov    eax,DWORD PTR [rbp-0x4c]
    313f:	b9 01 00 00 00       	mov    ecx,0x1
    3144:	39 c8                	cmp    eax,ecx
    3146:	0f 85 5e 00 00 00    	jne    31aa <_ZN5lexer5Lexer10next_tokenEv+0x1da>
    314c:	48 8b 7d b8          	mov    rdi,QWORD PTR [rbp-0x48]
    3150:	e8 2b ef ff ff       	call   2080 <__cxa_begin_catch@plt>
    3155:	48 89 45 a8          	mov    QWORD PTR [rbp-0x58],rax
    3159:	c7 45 fc 02 00 00 00 	mov    DWORD PTR [rbp-0x4],0x2
    3160:	c7 45 b0 01 00 00 00 	mov    DWORD PTR [rbp-0x50],0x1
    3167:	e8 44 f1 ff ff       	call   22b0 <__cxa_end_catch@plt>
    316c:	e9 00 00 00 00       	jmp    3171 <_ZN5lexer5Lexer10next_tokenEv+0x1a1>
    3171:	e9 11 00 00 00       	jmp    3187 <_ZN5lexer5Lexer10next_tokenEv+0x1b7>
    3176:	48 89 c1             	mov    rcx,rax
    3179:	89 d0                	mov    eax,edx
    317b:	48 89 4d b8          	mov    QWORD PTR [rbp-0x48],rcx
    317f:	89 45 b4             	mov    DWORD PTR [rbp-0x4c],eax
    3182:	e9 23 00 00 00       	jmp    31aa <_ZN5lexer5Lexer10next_tokenEv+0x1da>
    3187:	48 8d 7d c0          	lea    rdi,[rbp-0x40]
    318b:	e8 20 01 00 00       	call   32b0 <_ZNSt6vectorIcSaIcEED2Ev>
    3190:	8b 45 b0             	mov    eax,DWORD PTR [rbp-0x50]
    3193:	85 c0                	test   eax,eax
    3195:	0f 84 0a 00 00 00    	je     31a5 <_ZN5lexer5Lexer10next_tokenEv+0x1d5>
    319b:	e9 00 00 00 00       	jmp    31a0 <_ZN5lexer5Lexer10next_tokenEv+0x1d0>
    31a0:	e9 76 00 00 00       	jmp    321b <_ZN5lexer5Lexer10next_tokenEv+0x24b>
    31a5:	e9 5d 00 00 00       	jmp    3207 <_ZN5lexer5Lexer10next_tokenEv+0x237>
    31aa:	48 8d 7d c0          	lea    rdi,[rbp-0x40]
    31ae:	e8 fd 00 00 00       	call   32b0 <_ZNSt6vectorIcSaIcEED2Ev>
    31b3:	e9 6f 00 00 00       	jmp    3227 <_ZN5lexer5Lexer10next_tokenEv+0x257>
    31b8:	48 8b 45 80          	mov    rax,QWORD PTR [rbp-0x80]
    31bc:	0f be 78 28          	movsx  edi,BYTE PTR [rax+0x28]
    31c0:	e8 5b 12 00 00       	call   4420 <_ZN5lexer5Lexer8is_digitEc>
    31c5:	a8 01                	test   al,0x1
    31c7:	0f 85 05 00 00 00    	jne    31d2 <_ZN5lexer5Lexer10next_tokenEv+0x202>
    31cd:	e9 29 00 00 00       	jmp    31fb <_ZN5lexer5Lexer10next_tokenEv+0x22b>
    31d2:	48 8d 7d 90          	lea    rdi,[rbp-0x70]
    31d6:	48 8d 75 e0          	lea    rsi,[rbp-0x20]
    31da:	e8 81 12 00 00       	call   4460 <_ZZN5lexer5Lexer10next_tokenEvENKUlvE0_clEv>
    31df:	c7 45 fc 03 00 00 00 	mov    DWORD PTR [rbp-0x4],0x3
    31e6:	c7 45 b0 01 00 00 00 	mov    DWORD PTR [rbp-0x50],0x1
    31ed:	48 8d 7d 90          	lea    rdi,[rbp-0x70]
    31f1:	e8 ba 00 00 00       	call   32b0 <_ZNSt6vectorIcSaIcEED2Ev>
    31f6:	e9 20 00 00 00       	jmp    321b <_ZN5lexer5Lexer10next_tokenEv+0x24b>
    31fb:	c7 45 fc 00 00 00 00 	mov    DWORD PTR [rbp-0x4],0x0
    3202:	e9 14 00 00 00       	jmp    321b <_ZN5lexer5Lexer10next_tokenEv+0x24b>
    3207:	e9 00 00 00 00       	jmp    320c <_ZN5lexer5Lexer10next_tokenEv+0x23c>
    320c:	48 8b 7d 80          	mov    rdi,QWORD PTR [rbp-0x80]
    3210:	e8 3b fd ff ff       	call   2f50 <_ZN5lexer5Lexer9read_charEv>
    3215:	8b 45 dc             	mov    eax,DWORD PTR [rbp-0x24]
    3218:	89 45 fc             	mov    DWORD PTR [rbp-0x4],eax
    321b:	8b 45 fc             	mov    eax,DWORD PTR [rbp-0x4]
    321e:	48 81 c4 90 00 00 00 	add    rsp,0x90
    3225:	5d                   	pop    rbp
    3226:	c3                   	ret
    3227:	48 8b 7d b8          	mov    rdi,QWORD PTR [rbp-0x48]
    322b:	e8 b0 f0 ff ff       	call   22e0 <_Unwind_Resume@plt>

0000000000003230 <_ZNK5lexer5Lexer6get_chEv>:
    3230:	55                   	push   rbp
    3231:	48 89 e5             	mov    rbp,rsp
    3234:	48 89 7d f8          	mov    QWORD PTR [rbp-0x8],rdi
    3238:	48 8b 45 f8          	mov    rax,QWORD PTR [rbp-0x8]
    323c:	0f be 40 28          	movsx  eax,BYTE PTR [rax+0x28]
    3240:	5d                   	pop    rbp
    3241:	c3                   	ret
    3242:	66 2e 0f 1f 84 00 00 	cs nop WORD PTR [rax+rax*1+0x0]
    3249:	00 00 00 
    324c:	0f 1f 40 00          	nop    DWORD PTR [rax+0x0]

0000000000003250 <_ZNK5lexer5Lexer12get_positionEv>:
    3250:	55                   	push   rbp
    3251:	48 89 e5             	mov    rbp,rsp
    3254:	48 89 7d f8          	mov    QWORD PTR [rbp-0x8],rdi
    3258:	48 8b 45 f8          	mov    rax,QWORD PTR [rbp-0x8]
    325c:	48 8b 40 18          	mov    rax,QWORD PTR [rax+0x18]
    3260:	5d                   	pop    rbp
    3261:	c3                   	ret
    3262:	66 2e 0f 1f 84 00 00 	cs nop WORD PTR [rax+rax*1+0x0]
    3269:	00 00 00 
    326c:	0f 1f 40 00          	nop    DWORD PTR [rax+0x0]

0000000000003270 <_ZNK5lexer5Lexer17get_read_positionEv>:
    3270:	55                   	push   rbp
    3271:	48 89 e5             	mov    rbp,rsp
    3274:	48 89 7d f8          	mov    QWORD PTR [rbp-0x8],rdi
    3278:	48 8b 45 f8          	mov    rax,QWORD PTR [rbp-0x8]
    327c:	48 8b 40 20          	mov    rax,QWORD PTR [rax+0x20]
    3280:	5d                   	pop    rbp
    3281:	c3                   	ret
    3282:	66 2e 0f 1f 84 00 00 	cs nop WORD PTR [rax+rax*1+0x0]
    3289:	00 00 00 
    328c:	0f 1f 40 00          	nop    DWORD PTR [rax+0x0]

0000000000003290 <_ZN5lexer5LexerD2Ev>:
    3290:	55                   	push   rbp
    3291:	48 89 e5             	mov    rbp,rsp
    3294:	48 83 ec 10          	sub    rsp,0x10
    3298:	48 89 7d f8          	mov    QWORD PTR [rbp-0x8],rdi
    329c:	48 8b 7d f8          	mov    rdi,QWORD PTR [rbp-0x8]
    32a0:	e8 0b 00 00 00       	call   32b0 <_ZNSt6vectorIcSaIcEED2Ev>
    32a5:	48 83 c4 10          	add    rsp,0x10
    32a9:	5d                   	pop    rbp
    32aa:	c3                   	ret
    32ab:	0f 1f 44 00 00       	nop    DWORD PTR [rax+rax*1+0x0]

00000000000032b0 <_ZNSt6vectorIcSaIcEED2Ev>:
    32b0:	55                   	push   rbp
    32b1:	48 89 e5             	mov    rbp,rsp
    32b4:	48 83 ec 20          	sub    rsp,0x20
    32b8:	48 89 7d f8          	mov    QWORD PTR [rbp-0x8],rdi
    32bc:	48 8b 7d f8          	mov    rdi,QWORD PTR [rbp-0x8]
    32c0:	48 89 7d e0          	mov    QWORD PTR [rbp-0x20],rdi
    32c4:	48 8b 07             	mov    rax,QWORD PTR [rdi]
    32c7:	48 89 45 e8          	mov    QWORD PTR [rbp-0x18],rax
    32cb:	48 8b 47 08          	mov    rax,QWORD PTR [rdi+0x8]
    32cf:	48 89 45 f0          	mov    QWORD PTR [rbp-0x10],rax
    32d3:	e8 18 08 00 00       	call   3af0 <_ZNSt12_Vector_baseIcSaIcEE19_M_get_Tp_allocatorEv>
    32d8:	48 8b 7d e8          	mov    rdi,QWORD PTR [rbp-0x18]
    32dc:	48 8b 75 f0          	mov    rsi,QWORD PTR [rbp-0x10]
    32e0:	48 89 c2             	mov    rdx,rax
    32e3:	e8 f8 3b 00 00       	call   6ee0 <_ZSt8_DestroyIPccEvT_S1_RSaIT0_E>
    32e8:	e9 00 00 00 00       	jmp    32ed <_ZNSt6vectorIcSaIcEED2Ev+0x3d>
    32ed:	48 8b 7d e0          	mov    rdi,QWORD PTR [rbp-0x20]
    32f1:	e8 0a 08 00 00       	call   3b00 <_ZNSt12_Vector_baseIcSaIcEED2Ev>
    32f6:	48 83 c4 20          	add    rsp,0x20
    32fa:	5d                   	pop    rbp
    32fb:	c3                   	ret
    32fc:	48 89 c7             	mov    rdi,rax
    32ff:	e8 ec 00 00 00       	call   33f0 <__clang_call_terminate>
    3304:	66 2e 0f 1f 84 00 00 	cs nop WORD PTR [rax+rax*1+0x0]
    330b:	00 00 00 
    330e:	66 90                	xchg   ax,ax

0000000000003310 <_ZNSt10_HashtableINSt7__cxx1112basic_stringIcSt11char_traitsIcESaIcEEESt4pairIKS5_5TokenESaIS9_ENSt8__detail10_Select1stESt8equal_toIS5_ESt4hashIS5_ENSB_18_Mod_range_hashingENSB_20_Default_ranged_hashENSB_20_Prime_rehash_policyENSB_17_Hashtable_traitsILb1ELb0ELb1EEEED2Ev>:
    3310:	55                   	push   rbp
    3311:	48 89 e5             	mov    rbp,rsp
    3314:	48 83 ec 10          	sub    rsp,0x10
    3318:	48 89 7d f8          	mov    QWORD PTR [rbp-0x8],rdi
    331c:	48 8b 7d f8          	mov    rdi,QWORD PTR [rbp-0x8]
    3320:	48 89 7d f0          	mov    QWORD PTR [rbp-0x10],rdi
    3324:	e8 27 00 00 00       	call   3350 <_ZNSt10_HashtableINSt7__cxx1112basic_stringIcSt11char_traitsIcESaIcEEESt4pairIKS5_5TokenESaIS9_ENSt8__detail10_Select1stESt8equal_toIS5_ESt4hashIS5_ENSB_18_Mod_range_hashingENSB_20_Default_ranged_hashENSB_20_Prime_rehash_policyENSB_17_Hashtable_traitsILb1ELb0ELb1EEEE5clearEv>
    3329:	48 8b 7d f0          	mov    rdi,QWORD PTR [rbp-0x10]
    332d:	e8 8e 00 00 00       	call   33c0 <_ZNSt10_HashtableINSt7__cxx1112basic_stringIcSt11char_traitsIcESaIcEEESt4pairIKS5_5TokenESaIS9_ENSt8__detail10_Select1stESt8equal_toIS5_ESt4hashIS5_ENSB_18_Mod_range_hashingENSB_20_Default_ranged_hashENSB_20_Prime_rehash_policyENSB_17_Hashtable_traitsILb1ELb0ELb1EEEE21_M_deallocate_bucketsEv>
    3332:	e9 00 00 00 00       	jmp    3337 <_ZNSt10_HashtableINSt7__cxx1112basic_stringIcSt11char_traitsIcESaIcEEESt4pairIKS5_5TokenESaIS9_ENSt8__detail10_Select1stESt8equal_toIS5_ESt4hashIS5_ENSB_18_Mod_range_hashingENSB_20_Default_ranged_hashENSB_20_Prime_rehash_policyENSB_17_Hashtable_traitsILb1ELb0ELb1EEEED2Ev+0x27>
    3337:	48 8b 7d f0          	mov    rdi,QWORD PTR [rbp-0x10]
    333b:	e8 c0 00 00 00       	call   3400 <_ZNSt8__detail16_Hashtable_allocISaINS_10_Hash_nodeISt4pairIKNSt7__cxx1112basic_stringIcSt11char_traitsIcESaIcEEE5TokenELb1EEEEED2Ev>
    3340:	48 83 c4 10          	add    rsp,0x10
    3344:	5d                   	pop    rbp
    3345:	c3                   	ret
    3346:	48 89 c7             	mov    rdi,rax
    3349:	e8 a2 00 00 00       	call   33f0 <__clang_call_terminate>
    334e:	66 90                	xchg   ax,ax

0000000000003350 <_ZNSt10_HashtableINSt7__cxx1112basic_stringIcSt11char_traitsIcESaIcEEESt4pairIKS5_5TokenESaIS9_ENSt8__detail10_Select1stESt8equal_toIS5_ESt4hashIS5_ENSB_18_Mod_range_hashingENSB_20_Default_ranged_hashENSB_20_Prime_rehash_policyENSB_17_Hashtable_traitsILb1ELb0ELb1EEEE5clearEv>:
    3350:	55                   	push   rbp
    3351:	48 89 e5             	mov    rbp,rsp
    3354:	48 83 ec 20          	sub    rsp,0x20
    3358:	48 89 7d f8          	mov    QWORD PTR [rbp-0x8],rdi
    335c:	48 8b 7d f8          	mov    rdi,QWORD PTR [rbp-0x8]
    3360:	48 89 7d e8          	mov    QWORD PTR [rbp-0x18],rdi
    3364:	e8 07 01 00 00       	call   3470 <_ZNKSt10_HashtableINSt7__cxx1112basic_stringIcSt11char_traitsIcESaIcEEESt4pairIKS5_5TokenESaIS9_ENSt8__detail10_Select1stESt8equal_toIS5_ESt4hashIS5_ENSB_18_Mod_range_hashingENSB_20_Default_ranged_hashENSB_20_Prime_rehash_policyENSB_17_Hashtable_traitsILb1ELb0ELb1EEEE8_M_beginEv>
    3369:	48 89 45 f0          	mov    QWORD PTR [rbp-0x10],rax
    336d:	e9 00 00 00 00       	jmp    3372 <_ZNSt10_HashtableINSt7__cxx1112basic_stringIcSt11char_traitsIcESaIcEEESt4pairIKS5_5TokenESaIS9_ENSt8__detail10_Select1stESt8equal_toIS5_ESt4hashIS5_ENSB_18_Mod_range_hashingENSB_20_Default_ranged_hashENSB_20_Prime_rehash_policyENSB_17_Hashtable_traitsILb1ELb0ELb1EEEE5clearEv+0x22>
    3372:	48 8b 75 f0          	mov    rsi,QWORD PTR [rbp-0x10]
    3376:	48 8b 7d e8          	mov    rdi,QWORD PTR [rbp-0x18]
    337a:	e8 a1 00 00 00       	call   3420 <_ZNSt8__detail16_Hashtable_allocISaINS_10_Hash_nodeISt4pairIKNSt7__cxx1112basic_stringIcSt11char_traitsIcESaIcEEE5TokenELb1EEEEE19_M_deallocate_nodesEPSC_>
    337f:	e9 00 00 00 00       	jmp    3384 <_ZNSt10_HashtableINSt7__cxx1112basic_stringIcSt11char_traitsIcESaIcEEESt4pairIKS5_5TokenESaIS9_ENSt8__detail10_Select1stESt8equal_toIS5_ESt4hashIS5_ENSB_18_Mod_range_hashingENSB_20_Default_ranged_hashENSB_20_Prime_rehash_policyENSB_17_Hashtable_traitsILb1ELb0ELb1EEEE5clearEv+0x34>
    3384:	48 8b 45 e8          	mov    rax,QWORD PTR [rbp-0x18]
    3388:	48 8b 38             	mov    rdi,QWORD PTR [rax]
    338b:	48 8b 50 08          	mov    rdx,QWORD PTR [rax+0x8]
    338f:	48 c1 e2 03          	shl    rdx,0x3
    3393:	31 f6                	xor    esi,esi
    3395:	e8 36 ed ff ff       	call   20d0 <memset@plt>
    339a:	48 8b 45 e8          	mov    rax,QWORD PTR [rbp-0x18]
    339e:	48 c7 40 18 00 00 00 	mov    QWORD PTR [rax+0x18],0x0
    33a5:	00 
    33a6:	48 c7 40 10 00 00 00 	mov    QWORD PTR [rax+0x10],0x0
    33ad:	00 
    33ae:	48 83 c4 20          	add    rsp,0x20
    33b2:	5d                   	pop    rbp
    33b3:	c3                   	ret
    33b4:	48 89 c7             	mov    rdi,rax
    33b7:	e8 34 00 00 00       	call   33f0 <__clang_call_terminate>
    33bc:	0f 1f 40 00          	nop    DWORD PTR [rax+0x0]

00000000000033c0 <_ZNSt10_HashtableINSt7__cxx1112basic_stringIcSt11char_traitsIcESaIcEEESt4pairIKS5_5TokenESaIS9_ENSt8__detail10_Select1stESt8equal_toIS5_ESt4hashIS5_ENSB_18_Mod_range_hashingENSB_20_Default_ranged_hashENSB_20_Prime_rehash_policyENSB_17_Hashtable_traitsILb1ELb0ELb1EEEE21_M_deallocate_bucketsEv>:
    33c0:	55                   	push   rbp
    33c1:	48 89 e5             	mov    rbp,rsp
    33c4:	48 83 ec 10          	sub    rsp,0x10
    33c8:	48 89 7d f8          	mov    QWORD PTR [rbp-0x8],rdi
    33cc:	48 8b 7d f8          	mov    rdi,QWORD PTR [rbp-0x8]
    33d0:	48 8b 37             	mov    rsi,QWORD PTR [rdi]
    33d3:	48 8b 57 08          	mov    rdx,QWORD PTR [rdi+0x8]
    33d7:	e8 b4 02 00 00       	call   3690 <_ZNSt10_HashtableINSt7__cxx1112basic_stringIcSt11char_traitsIcESaIcEEESt4pairIKS5_5TokenESaIS9_ENSt8__detail10_Select1stESt8equal_toIS5_ESt4hashIS5_ENSB_18_Mod_range_hashingENSB_20_Default_ranged_hashENSB_20_Prime_rehash_policyENSB_17_Hashtable_traitsILb1ELb0ELb1EEEE21_M_deallocate_bucketsEPPNSB_15_Hash_node_baseEm>
    33dc:	48 83 c4 10          	add    rsp,0x10
    33e0:	5d                   	pop    rbp
    33e1:	c3                   	ret
    33e2:	66 2e 0f 1f 84 00 00 	cs nop WORD PTR [rax+rax*1+0x0]
    33e9:	00 00 00 
    33ec:	0f 1f 40 00          	nop    DWORD PTR [rax+0x0]

00000000000033f0 <__clang_call_terminate>:
    33f0:	50                   	push   rax
    33f1:	e8 8a ec ff ff       	call   2080 <__cxa_begin_catch@plt>
    33f6:	e8 65 ec ff ff       	call   2060 <_ZSt9terminatev@plt>
    33fb:	0f 1f 44 00 00       	nop    DWORD PTR [rax+rax*1+0x0]

0000000000003400 <_ZNSt8__detail16_Hashtable_allocISaINS_10_Hash_nodeISt4pairIKNSt7__cxx1112basic_stringIcSt11char_traitsIcESaIcEEE5TokenELb1EEEEED2Ev>:
    3400:	55                   	push   rbp
    3401:	48 89 e5             	mov    rbp,rsp
    3404:	48 83 ec 10          	sub    rsp,0x10
    3408:	48 89 7d f8          	mov    QWORD PTR [rbp-0x8],rdi
    340c:	48 8b 7d f8          	mov    rdi,QWORD PTR [rbp-0x8]
    3410:	e8 5b 04 00 00       	call   3870 <_ZNSt8__detail21_Hashtable_ebo_helperILi0ESaINS_10_Hash_nodeISt4pairIKNSt7__cxx1112basic_stringIcSt11char_traitsIcESaIcEEE5TokenELb1EEEELb1EED2Ev>
    3415:	48 83 c4 10          	add    rsp,0x10
    3419:	5d                   	pop    rbp
    341a:	c3                   	ret
    341b:	0f 1f 44 00 00       	nop    DWORD PTR [rax+rax*1+0x0]

0000000000003420 <_ZNSt8__detail16_Hashtable_allocISaINS_10_Hash_nodeISt4pairIKNSt7__cxx1112basic_stringIcSt11char_traitsIcESaIcEEE5TokenELb1EEEEE19_M_deallocate_nodesEPSC_>:
    3420:	55                   	push   rbp
    3421:	48 89 e5             	mov    rbp,rsp
    3424:	48 83 ec 20          	sub    rsp,0x20
    3428:	48 89 7d f8          	mov    QWORD PTR [rbp-0x8],rdi
    342c:	48 89 75 f0          	mov    QWORD PTR [rbp-0x10],rsi
    3430:	48 8b 45 f8          	mov    rax,QWORD PTR [rbp-0x8]
    3434:	48 89 45 e0          	mov    QWORD PTR [rbp-0x20],rax
    3438:	48 83 7d f0 00       	cmp    QWORD PTR [rbp-0x10],0x0
    343d:	0f 84 27 00 00 00    	je     346a <_ZNSt8__detail16_Hashtable_allocISaINS_10_Hash_nodeISt4pairIKNSt7__cxx1112basic_stringIcSt11char_traitsIcESaIcEEE5TokenELb1EEEEE19_M_deallocate_nodesEPSC_+0x4a>
    3443:	48 8b 45 f0          	mov    rax,QWORD PTR [rbp-0x10]
    3447:	48 89 45 e8          	mov    QWORD PTR [rbp-0x18],rax
    344b:	48 8b 7d f0          	mov    rdi,QWORD PTR [rbp-0x10]
    344f:	e8 3c 00 00 00       	call   3490 <_ZNKSt8__detail10_Hash_nodeISt4pairIKNSt7__cxx1112basic_stringIcSt11char_traitsIcESaIcEEE5TokenELb1EE7_M_nextEv>
    3454:	48 8b 7d e0          	mov    rdi,QWORD PTR [rbp-0x20]
    3458:	48 89 45 f0          	mov    QWORD PTR [rbp-0x10],rax
    345c:	48 8b 75 e8          	mov    rsi,QWORD PTR [rbp-0x18]
    3460:	e8 4b 00 00 00       	call   34b0 <_ZNSt8__detail16_Hashtable_allocISaINS_10_Hash_nodeISt4pairIKNSt7__cxx1112basic_stringIcSt11char_traitsIcESaIcEEE5TokenELb1EEEEE18_M_deallocate_nodeEPSC_>
    3465:	e9 ce ff ff ff       	jmp    3438 <_ZNSt8__detail16_Hashtable_allocISaINS_10_Hash_nodeISt4pairIKNSt7__cxx1112basic_stringIcSt11char_traitsIcESaIcEEE5TokenELb1EEEEE19_M_deallocate_nodesEPSC_+0x18>
    346a:	48 83 c4 20          	add    rsp,0x20
    346e:	5d                   	pop    rbp
    346f:	c3                   	ret

0000000000003470 <_ZNKSt10_HashtableINSt7__cxx1112basic_stringIcSt11char_traitsIcESaIcEEESt4pairIKS5_5TokenESaIS9_ENSt8__detail10_Select1stESt8equal_toIS5_ESt4hashIS5_ENSB_18_Mod_range_hashingENSB_20_Default_ranged_hashENSB_20_Prime_rehash_policyENSB_17_Hashtable_traitsILb1ELb0ELb1EEEE8_M_beginEv>:
    3470:	55                   	push   rbp
    3471:	48 89 e5             	mov    rbp,rsp
    3474:	48 89 7d f8          	mov    QWORD PTR [rbp-0x8],rdi
    3478:	48 8b 45 f8          	mov    rax,QWORD PTR [rbp-0x8]
    347c:	48 8b 40 10          	mov    rax,QWORD PTR [rax+0x10]
    3480:	5d                   	pop    rbp
    3481:	c3                   	ret
    3482:	66 2e 0f 1f 84 00 00 	cs nop WORD PTR [rax+rax*1+0x0]
    3489:	00 00 00 
    348c:	0f 1f 40 00          	nop    DWORD PTR [rax+0x0]

0000000000003490 <_ZNKSt8__detail10_Hash_nodeISt4pairIKNSt7__cxx1112basic_stringIcSt11char_traitsIcESaIcEEE5TokenELb1EE7_M_nextEv>:
    3490:	55                   	push   rbp
    3491:	48 89 e5             	mov    rbp,rsp
    3494:	48 89 7d f8          	mov    QWORD PTR [rbp-0x8],rdi
    3498:	48 8b 45 f8          	mov    rax,QWORD PTR [rbp-0x8]
    349c:	48 8b 00             	mov    rax,QWORD PTR [rax]
    349f:	5d                   	pop    rbp
    34a0:	c3                   	ret
    34a1:	66 2e 0f 1f 84 00 00 	cs nop WORD PTR [rax+rax*1+0x0]
    34a8:	00 00 00 
    34ab:	0f 1f 44 00 00       	nop    DWORD PTR [rax+rax*1+0x0]

00000000000034b0 <_ZNSt8__detail16_Hashtable_allocISaINS_10_Hash_nodeISt4pairIKNSt7__cxx1112basic_stringIcSt11char_traitsIcESaIcEEE5TokenELb1EEEEE18_M_deallocate_nodeEPSC_>:
    34b0:	55                   	push   rbp
    34b1:	48 89 e5             	mov    rbp,rsp
    34b4:	48 83 ec 20          	sub    rsp,0x20
    34b8:	48 89 7d f8          	mov    QWORD PTR [rbp-0x8],rdi
    34bc:	48 89 75 f0          	mov    QWORD PTR [rbp-0x10],rsi
    34c0:	48 8b 7d f8          	mov    rdi,QWORD PTR [rbp-0x8]
    34c4:	48 89 7d e8          	mov    QWORD PTR [rbp-0x18],rdi
    34c8:	e8 63 00 00 00       	call   3530 <_ZNSt8__detail16_Hashtable_allocISaINS_10_Hash_nodeISt4pairIKNSt7__cxx1112basic_stringIcSt11char_traitsIcESaIcEEE5TokenELb1EEEEE17_M_node_allocatorEv>
    34cd:	48 89 45 e0          	mov    QWORD PTR [rbp-0x20],rax
    34d1:	48 8b 7d f0          	mov    rdi,QWORD PTR [rbp-0x10]
    34d5:	48 83 c7 08          	add    rdi,0x8
    34d9:	e8 72 00 00 00       	call   3550 <_ZNSt8__detail21_Hash_node_value_baseISt4pairIKNSt7__cxx1112basic_stringIcSt11char_traitsIcESaIcEEE5TokenEE9_M_valptrEv>
    34de:	48 8b 7d e0          	mov    rdi,QWORD PTR [rbp-0x20]
    34e2:	48 89 c6             	mov    rsi,rax
    34e5:	e8 16 00 00 00       	call   3500 <_ZNSt16allocator_traitsISaINSt8__detail10_Hash_nodeISt4pairIKNSt7__cxx1112basic_stringIcSt11char_traitsIcESaIcEEE5TokenELb1EEEEE7destroyISB_EEvRSD_PT_>
    34ea:	48 8b 7d e8          	mov    rdi,QWORD PTR [rbp-0x18]
    34ee:	48 8b 75 f0          	mov    rsi,QWORD PTR [rbp-0x10]
    34f2:	e8 79 00 00 00       	call   3570 <_ZNSt8__detail16_Hashtable_allocISaINS_10_Hash_nodeISt4pairIKNSt7__cxx1112basic_stringIcSt11char_traitsIcESaIcEEE5TokenELb1EEEEE22_M_deallocate_node_ptrEPSC_>
    34f7:	48 83 c4 20          	add    rsp,0x20
    34fb:	5d                   	pop    rbp
    34fc:	c3                   	ret
    34fd:	0f 1f 00             	nop    DWORD PTR [rax]

0000000000003500 <_ZNSt16allocator_traitsISaINSt8__detail10_Hash_nodeISt4pairIKNSt7__cxx1112basic_stringIcSt11char_traitsIcESaIcEEE5TokenELb1EEEEE7destroyISB_EEvRSD_PT_>:
    3500:	55                   	push   rbp
    3501:	48 89 e5             	mov    rbp,rsp
    3504:	48 83 ec 10          	sub    rsp,0x10
    3508:	48 89 7d f8          	mov    QWORD PTR [rbp-0x8],rdi
    350c:	48 89 75 f0          	mov    QWORD PTR [rbp-0x10],rsi
    3510:	48 8b 7d f8          	mov    rdi,QWORD PTR [rbp-0x8]
    3514:	48 8b 75 f0          	mov    rsi,QWORD PTR [rbp-0x10]
    3518:	e8 a3 00 00 00       	call   35c0 <_ZNSt15__new_allocatorINSt8__detail10_Hash_nodeISt4pairIKNSt7__cxx1112basic_stringIcSt11char_traitsIcESaIcEEE5TokenELb1EEEE7destroyISB_EEvPT_>
    351d:	48 83 c4 10          	add    rsp,0x10
    3521:	5d                   	pop    rbp
    3522:	c3                   	ret
    3523:	66 2e 0f 1f 84 00 00 	cs nop WORD PTR [rax+rax*1+0x0]
    352a:	00 00 00 
    352d:	0f 1f 00             	nop    DWORD PTR [rax]

0000000000003530 <_ZNSt8__detail16_Hashtable_allocISaINS_10_Hash_nodeISt4pairIKNSt7__cxx1112basic_stringIcSt11char_traitsIcESaIcEEE5TokenELb1EEEEE17_M_node_allocatorEv>:
    3530:	55                   	push   rbp
    3531:	48 89 e5             	mov    rbp,rsp
    3534:	48 83 ec 10          	sub    rsp,0x10
    3538:	48 89 7d f8          	mov    QWORD PTR [rbp-0x8],rdi
    353c:	48 8b 7d f8          	mov    rdi,QWORD PTR [rbp-0x8]
    3540:	e8 9b 00 00 00       	call   35e0 <_ZNSt8__detail21_Hashtable_ebo_helperILi0ESaINS_10_Hash_nodeISt4pairIKNSt7__cxx1112basic_stringIcSt11char_traitsIcESaIcEEE5TokenELb1EEEELb1EE6_M_getEv>
    3545:	48 83 c4 10          	add    rsp,0x10
    3549:	5d                   	pop    rbp
    354a:	c3                   	ret
    354b:	0f 1f 44 00 00       	nop    DWORD PTR [rax+rax*1+0x0]

0000000000003550 <_ZNSt8__detail21_Hash_node_value_baseISt4pairIKNSt7__cxx1112basic_stringIcSt11char_traitsIcESaIcEEE5TokenEE9_M_valptrEv>:
    3550:	55                   	push   rbp
    3551:	48 89 e5             	mov    rbp,rsp
    3554:	48 83 ec 10          	sub    rsp,0x10
    3558:	48 89 7d f8          	mov    QWORD PTR [rbp-0x8],rdi
    355c:	48 8b 7d f8          	mov    rdi,QWORD PTR [rbp-0x8]
    3560:	e8 8b 00 00 00       	call   35f0 <_ZN9__gnu_cxx16__aligned_bufferISt4pairIKNSt7__cxx1112basic_stringIcSt11char_traitsIcESaIcEEE5TokenEE6_M_ptrEv>
    3565:	48 83 c4 10          	add    rsp,0x10
    3569:	5d                   	pop    rbp
    356a:	c3                   	ret
    356b:	0f 1f 44 00 00       	nop    DWORD PTR [rax+rax*1+0x0]

0000000000003570 <_ZNSt8__detail16_Hashtable_allocISaINS_10_Hash_nodeISt4pairIKNSt7__cxx1112basic_stringIcSt11char_traitsIcESaIcEEE5TokenELb1EEEEE22_M_deallocate_node_ptrEPSC_>:
    3570:	55                   	push   rbp
    3571:	48 89 e5             	mov    rbp,rsp
    3574:	48 83 ec 20          	sub    rsp,0x20
    3578:	48 89 7d f8          	mov    QWORD PTR [rbp-0x8],rdi
    357c:	48 89 75 f0          	mov    QWORD PTR [rbp-0x10],rsi
    3580:	48 8b 45 f8          	mov    rax,QWORD PTR [rbp-0x8]
    3584:	48 89 45 e0          	mov    QWORD PTR [rbp-0x20],rax
    3588:	48 8b 7d f0          	mov    rdi,QWORD PTR [rbp-0x10]
    358c:	e8 8f 00 00 00       	call   3620 <_ZNSt19__ptr_traits_ptr_toIPNSt8__detail10_Hash_nodeISt4pairIKNSt7__cxx1112basic_stringIcSt11char_traitsIcESaIcEEE5TokenELb1EEESC_Lb0EE10pointer_toERSC_>
    3591:	48 8b 7d e0          	mov    rdi,QWORD PTR [rbp-0x20]
    3595:	48 89 45 e8          	mov    QWORD PTR [rbp-0x18],rax
    3599:	e8 92 ff ff ff       	call   3530 <_ZNSt8__detail16_Hashtable_allocISaINS_10_Hash_nodeISt4pairIKNSt7__cxx1112basic_stringIcSt11char_traitsIcESaIcEEE5TokenELb1EEEEE17_M_node_allocatorEv>
    359e:	48 89 c7             	mov    rdi,rax
    35a1:	48 8b 75 e8          	mov    rsi,QWORD PTR [rbp-0x18]
    35a5:	ba 01 00 00 00       	mov    edx,0x1
    35aa:	e8 81 00 00 00       	call   3630 <_ZNSt16allocator_traitsISaINSt8__detail10_Hash_nodeISt4pairIKNSt7__cxx1112basic_stringIcSt11char_traitsIcESaIcEEE5TokenELb1EEEEE10deallocateERSD_PSC_m>
    35af:	48 83 c4 20          	add    rsp,0x20
    35b3:	5d                   	pop    rbp
    35b4:	c3                   	ret
    35b5:	66 2e 0f 1f 84 00 00 	cs nop WORD PTR [rax+rax*1+0x0]
    35bc:	00 00 00 
    35bf:	90                   	nop

00000000000035c0 <_ZNSt15__new_allocatorINSt8__detail10_Hash_nodeISt4pairIKNSt7__cxx1112basic_stringIcSt11char_traitsIcESaIcEEE5TokenELb1EEEE7destroyISB_EEvPT_>:
    35c0:	55                   	push   rbp
    35c1:	48 89 e5             	mov    rbp,rsp
    35c4:	48 83 ec 10          	sub    rsp,0x10
    35c8:	48 89 7d f8          	mov    QWORD PTR [rbp-0x8],rdi
    35cc:	48 89 75 f0          	mov    QWORD PTR [rbp-0x10],rsi
    35d0:	48 8b 7d f0          	mov    rdi,QWORD PTR [rbp-0x10]
    35d4:	e8 c7 f7 ff ff       	call   2da0 <_ZNSt4pairIKNSt7__cxx1112basic_stringIcSt11char_traitsIcESaIcEEE5TokenED2Ev>
    35d9:	48 83 c4 10          	add    rsp,0x10
    35dd:	5d                   	pop    rbp
    35de:	c3                   	ret
    35df:	90                   	nop

00000000000035e0 <_ZNSt8__detail21_Hashtable_ebo_helperILi0ESaINS_10_Hash_nodeISt4pairIKNSt7__cxx1112basic_stringIcSt11char_traitsIcESaIcEEE5TokenELb1EEEELb1EE6_M_getEv>:
    35e0:	55                   	push   rbp
    35e1:	48 89 e5             	mov    rbp,rsp
    35e4:	48 89 7d f8          	mov    QWORD PTR [rbp-0x8],rdi
    35e8:	48 8b 45 f8          	mov    rax,QWORD PTR [rbp-0x8]
    35ec:	5d                   	pop    rbp
    35ed:	c3                   	ret
    35ee:	66 90                	xchg   ax,ax

00000000000035f0 <_ZN9__gnu_cxx16__aligned_bufferISt4pairIKNSt7__cxx1112basic_stringIcSt11char_traitsIcESaIcEEE5TokenEE6_M_ptrEv>:
    35f0:	55                   	push   rbp
    35f1:	48 89 e5             	mov    rbp,rsp
    35f4:	48 83 ec 10          	sub    rsp,0x10
    35f8:	48 89 7d f8          	mov    QWORD PTR [rbp-0x8],rdi
    35fc:	48 8b 7d f8          	mov    rdi,QWORD PTR [rbp-0x8]
    3600:	e8 0b 00 00 00       	call   3610 <_ZN9__gnu_cxx16__aligned_bufferISt4pairIKNSt7__cxx1112basic_stringIcSt11char_traitsIcESaIcEEE5TokenEE7_M_addrEv>
    3605:	48 83 c4 10          	add    rsp,0x10
    3609:	5d                   	pop    rbp
    360a:	c3                   	ret
    360b:	0f 1f 44 00 00       	nop    DWORD PTR [rax+rax*1+0x0]

0000000000003610 <_ZN9__gnu_cxx16__aligned_bufferISt4pairIKNSt7__cxx1112basic_stringIcSt11char_traitsIcESaIcEEE5TokenEE7_M_addrEv>:
    3610:	55                   	push   rbp
    3611:	48 89 e5             	mov    rbp,rsp
    3614:	48 89 7d f8          	mov    QWORD PTR [rbp-0x8],rdi
    3618:	48 8b 45 f8          	mov    rax,QWORD PTR [rbp-0x8]
    361c:	5d                   	pop    rbp
    361d:	c3                   	ret
    361e:	66 90                	xchg   ax,ax

0000000000003620 <_ZNSt19__ptr_traits_ptr_toIPNSt8__detail10_Hash_nodeISt4pairIKNSt7__cxx1112basic_stringIcSt11char_traitsIcESaIcEEE5TokenELb1EEESC_Lb0EE10pointer_toERSC_>:
    3620:	55                   	push   rbp
    3621:	48 89 e5             	mov    rbp,rsp
    3624:	48 89 7d f8          	mov    QWORD PTR [rbp-0x8],rdi
    3628:	48 8b 45 f8          	mov    rax,QWORD PTR [rbp-0x8]
    362c:	5d                   	pop    rbp
    362d:	c3                   	ret
    362e:	66 90                	xchg   ax,ax

0000000000003630 <_ZNSt16allocator_traitsISaINSt8__detail10_Hash_nodeISt4pairIKNSt7__cxx1112basic_stringIcSt11char_traitsIcESaIcEEE5TokenELb1EEEEE10deallocateERSD_PSC_m>:
    3630:	55                   	push   rbp
    3631:	48 89 e5             	mov    rbp,rsp
    3634:	48 83 ec 20          	sub    rsp,0x20
    3638:	48 89 7d f8          	mov    QWORD PTR [rbp-0x8],rdi
    363c:	48 89 75 f0          	mov    QWORD PTR [rbp-0x10],rsi
    3640:	48 89 55 e8          	mov    QWORD PTR [rbp-0x18],rdx
    3644:	48 8b 7d f8          	mov    rdi,QWORD PTR [rbp-0x8]
    3648:	48 8b 75 f0          	mov    rsi,QWORD PTR [rbp-0x10]
    364c:	48 8b 55 e8          	mov    rdx,QWORD PTR [rbp-0x18]
    3650:	e8 0b 00 00 00       	call   3660 <_ZNSt15__new_allocatorINSt8__detail10_Hash_nodeISt4pairIKNSt7__cxx1112basic_stringIcSt11char_traitsIcESaIcEEE5TokenELb1EEEE10deallocateEPSC_m>
    3655:	48 83 c4 20          	add    rsp,0x20
    3659:	5d                   	pop    rbp
    365a:	c3                   	ret
    365b:	0f 1f 44 00 00       	nop    DWORD PTR [rax+rax*1+0x0]

0000000000003660 <_ZNSt15__new_allocatorINSt8__detail10_Hash_nodeISt4pairIKNSt7__cxx1112basic_stringIcSt11char_traitsIcESaIcEEE5TokenELb1EEEE10deallocateEPSC_m>:
    3660:	55                   	push   rbp
    3661:	48 89 e5             	mov    rbp,rsp
    3664:	48 83 ec 20          	sub    rsp,0x20
    3668:	48 89 7d f8          	mov    QWORD PTR [rbp-0x8],rdi
    366c:	48 89 75 f0          	mov    QWORD PTR [rbp-0x10],rsi
    3670:	48 89 55 e8          	mov    QWORD PTR [rbp-0x18],rdx
    3674:	48 8b 7d f0          	mov    rdi,QWORD PTR [rbp-0x10]
    3678:	e8 23 eb ff ff       	call   21a0 <_ZdlPv@plt>
    367d:	48 83 c4 20          	add    rsp,0x20
    3681:	5d                   	pop    rbp
    3682:	c3                   	ret
    3683:	66 2e 0f 1f 84 00 00 	cs nop WORD PTR [rax+rax*1+0x0]
    368a:	00 00 00 
    368d:	0f 1f 00             	nop    DWORD PTR [rax]

0000000000003690 <_ZNSt10_HashtableINSt7__cxx1112basic_stringIcSt11char_traitsIcESaIcEEESt4pairIKS5_5TokenESaIS9_ENSt8__detail10_Select1stESt8equal_toIS5_ESt4hashIS5_ENSB_18_Mod_range_hashingENSB_20_Default_ranged_hashENSB_20_Prime_rehash_policyENSB_17_Hashtable_traitsILb1ELb0ELb1EEEE21_M_deallocate_bucketsEPPNSB_15_Hash_node_baseEm>:
    3690:	55                   	push   rbp
    3691:	48 89 e5             	mov    rbp,rsp
    3694:	48 83 ec 20          	sub    rsp,0x20
    3698:	48 89 7d f8          	mov    QWORD PTR [rbp-0x8],rdi
    369c:	48 89 75 f0          	mov    QWORD PTR [rbp-0x10],rsi
    36a0:	48 89 55 e8          	mov    QWORD PTR [rbp-0x18],rdx
    36a4:	48 8b 7d f8          	mov    rdi,QWORD PTR [rbp-0x8]
    36a8:	48 89 7d e0          	mov    QWORD PTR [rbp-0x20],rdi
    36ac:	48 8b 75 f0          	mov    rsi,QWORD PTR [rbp-0x10]
    36b0:	e8 2b 00 00 00       	call   36e0 <_ZNKSt10_HashtableINSt7__cxx1112basic_stringIcSt11char_traitsIcESaIcEEESt4pairIKS5_5TokenESaIS9_ENSt8__detail10_Select1stESt8equal_toIS5_ESt4hashIS5_ENSB_18_Mod_range_hashingENSB_20_Default_ranged_hashENSB_20_Prime_rehash_policyENSB_17_Hashtable_traitsILb1ELb0ELb1EEEE21_M_uses_single_bucketEPPNSB_15_Hash_node_baseE>
    36b5:	a8 01                	test   al,0x1
    36b7:	0f 85 05 00 00 00    	jne    36c2 <_ZNSt10_HashtableINSt7__cxx1112basic_stringIcSt11char_traitsIcESaIcEEESt4pairIKS5_5TokenESaIS9_ENSt8__detail10_Select1stESt8equal_toIS5_ESt4hashIS5_ENSB_18_Mod_range_hashingENSB_20_Default_ranged_hashENSB_20_Prime_rehash_policyENSB_17_Hashtable_traitsILb1ELb0ELb1EEEE21_M_deallocate_bucketsEPPNSB_15_Hash_node_baseEm+0x32>
    36bd:	e9 05 00 00 00       	jmp    36c7 <_ZNSt10_HashtableINSt7__cxx1112basic_stringIcSt11char_traitsIcESaIcEEESt4pairIKS5_5TokenESaIS9_ENSt8__detail10_Select1stESt8equal_toIS5_ESt4hashIS5_ENSB_18_Mod_range_hashingENSB_20_Default_ranged_hashENSB_20_Prime_rehash_policyENSB_17_Hashtable_traitsILb1ELb0ELb1EEEE21_M_deallocate_bucketsEPPNSB_15_Hash_node_baseEm+0x37>
    36c2:	e9 11 00 00 00       	jmp    36d8 <_ZNSt10_HashtableINSt7__cxx1112basic_stringIcSt11char_traitsIcESaIcEEESt4pairIKS5_5TokenESaIS9_ENSt8__detail10_Select1stESt8equal_toIS5_ESt4hashIS5_ENSB_18_Mod_range_hashingENSB_20_Default_ranged_hashENSB_20_Prime_rehash_policyENSB_17_Hashtable_traitsILb1ELb0ELb1EEEE21_M_deallocate_bucketsEPPNSB_15_Hash_node_baseEm+0x48>
    36c7:	48 8b 7d e0          	mov    rdi,QWORD PTR [rbp-0x20]
    36cb:	48 8b 75 f0          	mov    rsi,QWORD PTR [rbp-0x10]
    36cf:	48 8b 55 e8          	mov    rdx,QWORD PTR [rbp-0x18]
    36d3:	e8 38 00 00 00       	call   3710 <_ZNSt8__detail16_Hashtable_allocISaINS_10_Hash_nodeISt4pairIKNSt7__cxx1112basic_stringIcSt11char_traitsIcESaIcEEE5TokenELb1EEEEE21_M_deallocate_bucketsEPPNS_15_Hash_node_baseEm>
    36d8:	48 83 c4 20          	add    rsp,0x20
    36dc:	5d                   	pop    rbp
    36dd:	c3                   	ret
    36de:	66 90                	xchg   ax,ax

00000000000036e0 <_ZNKSt10_HashtableINSt7__cxx1112basic_stringIcSt11char_traitsIcESaIcEEESt4pairIKS5_5TokenESaIS9_ENSt8__detail10_Select1stESt8equal_toIS5_ESt4hashIS5_ENSB_18_Mod_range_hashingENSB_20_Default_ranged_hashENSB_20_Prime_rehash_policyENSB_17_Hashtable_traitsILb1ELb0ELb1EEEE21_M_uses_single_bucketEPPNSB_15_Hash_node_baseE>:
    36e0:	55                   	push   rbp
    36e1:	48 89 e5             	mov    rbp,rsp
    36e4:	48 89 7d f8          	mov    QWORD PTR [rbp-0x8],rdi
    36e8:	48 89 75 f0          	mov    QWORD PTR [rbp-0x10],rsi
    36ec:	48 8b 4d f8          	mov    rcx,QWORD PTR [rbp-0x8]
    36f0:	48 8b 45 f0          	mov    rax,QWORD PTR [rbp-0x10]
    36f4:	48 83 c1 30          	add    rcx,0x30
    36f8:	48 39 c8             	cmp    rax,rcx
    36fb:	0f 94 c0             	sete   al
    36fe:	24 01                	and    al,0x1
    3700:	0f b6 c0             	movzx  eax,al
    3703:	5d                   	pop    rbp
    3704:	c3                   	ret
    3705:	66 2e 0f 1f 84 00 00 	cs nop WORD PTR [rax+rax*1+0x0]
    370c:	00 00 00 
    370f:	90                   	nop

0000000000003710 <_ZNSt8__detail16_Hashtable_allocISaINS_10_Hash_nodeISt4pairIKNSt7__cxx1112basic_stringIcSt11char_traitsIcESaIcEEE5TokenELb1EEEEE21_M_deallocate_bucketsEPPNS_15_Hash_node_baseEm>:
    3710:	55                   	push   rbp
    3711:	48 89 e5             	mov    rbp,rsp
    3714:	48 83 ec 50          	sub    rsp,0x50
    3718:	48 89 7d f8          	mov    QWORD PTR [rbp-0x8],rdi
    371c:	48 89 75 f0          	mov    QWORD PTR [rbp-0x10],rsi
    3720:	48 89 55 e8          	mov    QWORD PTR [rbp-0x18],rdx
    3724:	48 8b 45 f8          	mov    rax,QWORD PTR [rbp-0x8]
    3728:	48 89 45 b8          	mov    QWORD PTR [rbp-0x48],rax
    372c:	48 8b 7d f0          	mov    rdi,QWORD PTR [rbp-0x10]
    3730:	e8 6b 00 00 00       	call   37a0 <_ZNSt19__ptr_traits_ptr_toIPPNSt8__detail15_Hash_node_baseES2_Lb0EE10pointer_toERS2_>
    3735:	48 8b 7d b8          	mov    rdi,QWORD PTR [rbp-0x48]
    3739:	48 89 45 e0          	mov    QWORD PTR [rbp-0x20],rax
    373d:	e8 ee fd ff ff       	call   3530 <_ZNSt8__detail16_Hashtable_allocISaINS_10_Hash_nodeISt4pairIKNSt7__cxx1112basic_stringIcSt11char_traitsIcESaIcEEE5TokenELb1EEEEE17_M_node_allocatorEv>
    3742:	48 89 c6             	mov    rsi,rax
    3745:	48 8d 7d d8          	lea    rdi,[rbp-0x28]
    3749:	48 89 7d c0          	mov    QWORD PTR [rbp-0x40],rdi
    374d:	e8 5e 00 00 00       	call   37b0 <_ZNSaIPNSt8__detail15_Hash_node_baseEEC2INS_10_Hash_nodeISt4pairIKNSt7__cxx1112basic_stringIcSt11char_traitsIcESaIcEEE5TokenELb1EEEEERKSaIT_E>
    3752:	48 8b 7d c0          	mov    rdi,QWORD PTR [rbp-0x40]
    3756:	48 8b 75 e0          	mov    rsi,QWORD PTR [rbp-0x20]
    375a:	48 8b 55 e8          	mov    rdx,QWORD PTR [rbp-0x18]
    375e:	e8 6d 00 00 00       	call   37d0 <_ZNSt16allocator_traitsISaIPNSt8__detail15_Hash_node_baseEEE10deallocateERS3_PS2_m>
    3763:	e9 00 00 00 00       	jmp    3768 <_ZNSt8__detail16_Hashtable_allocISaINS_10_Hash_nodeISt4pairIKNSt7__cxx1112basic_stringIcSt11char_traitsIcESaIcEEE5TokenELb1EEEEE21_M_deallocate_bucketsEPPNS_15_Hash_node_baseEm+0x58>
    3768:	48 8d 7d d8          	lea    rdi,[rbp-0x28]
    376c:	e8 8f 00 00 00       	call   3800 <_ZNSaIPNSt8__detail15_Hash_node_baseEED2Ev>
    3771:	48 83 c4 50          	add    rsp,0x50
    3775:	5d                   	pop    rbp
    3776:	c3                   	ret
    3777:	48 89 c1             	mov    rcx,rax
    377a:	89 d0                	mov    eax,edx
    377c:	48 89 4d d0          	mov    QWORD PTR [rbp-0x30],rcx
    3780:	89 45 cc             	mov    DWORD PTR [rbp-0x34],eax
    3783:	48 8d 7d d8          	lea    rdi,[rbp-0x28]
    3787:	e8 74 00 00 00       	call   3800 <_ZNSaIPNSt8__detail15_Hash_node_baseEED2Ev>
    378c:	48 8b 7d d0          	mov    rdi,QWORD PTR [rbp-0x30]
    3790:	e8 4b eb ff ff       	call   22e0 <_Unwind_Resume@plt>
    3795:	66 2e 0f 1f 84 00 00 	cs nop WORD PTR [rax+rax*1+0x0]
    379c:	00 00 00 
    379f:	90                   	nop

00000000000037a0 <_ZNSt19__ptr_traits_ptr_toIPPNSt8__detail15_Hash_node_baseES2_Lb0EE10pointer_toERS2_>:
    37a0:	55                   	push   rbp
    37a1:	48 89 e5             	mov    rbp,rsp
    37a4:	48 89 7d f8          	mov    QWORD PTR [rbp-0x8],rdi
    37a8:	48 8b 45 f8          	mov    rax,QWORD PTR [rbp-0x8]
    37ac:	5d                   	pop    rbp
    37ad:	c3                   	ret
    37ae:	66 90                	xchg   ax,ax

00000000000037b0 <_ZNSaIPNSt8__detail15_Hash_node_baseEEC2INS_10_Hash_nodeISt4pairIKNSt7__cxx1112basic_stringIcSt11char_traitsIcESaIcEEE5TokenELb1EEEEERKSaIT_E>:
    37b0:	55                   	push   rbp
    37b1:	48 89 e5             	mov    rbp,rsp
    37b4:	48 83 ec 10          	sub    rsp,0x10
    37b8:	48 89 7d f8          	mov    QWORD PTR [rbp-0x8],rdi
    37bc:	48 89 75 f0          	mov    QWORD PTR [rbp-0x10],rsi
    37c0:	48 8b 7d f8          	mov    rdi,QWORD PTR [rbp-0x8]
    37c4:	e8 57 00 00 00       	call   3820 <_ZNSt15__new_allocatorIPNSt8__detail15_Hash_node_baseEEC2Ev>
    37c9:	48 83 c4 10          	add    rsp,0x10
    37cd:	5d                   	pop    rbp
    37ce:	c3                   	ret
    37cf:	90                   	nop

00000000000037d0 <_ZNSt16allocator_traitsISaIPNSt8__detail15_Hash_node_baseEEE10deallocateERS3_PS2_m>:
    37d0:	55                   	push   rbp
    37d1:	48 89 e5             	mov    rbp,rsp
    37d4:	48 83 ec 20          	sub    rsp,0x20
    37d8:	48 89 7d f8          	mov    QWORD PTR [rbp-0x8],rdi
    37dc:	48 89 75 f0          	mov    QWORD PTR [rbp-0x10],rsi
    37e0:	48 89 55 e8          	mov    QWORD PTR [rbp-0x18],rdx
    37e4:	48 8b 7d f8          	mov    rdi,QWORD PTR [rbp-0x8]
    37e8:	48 8b 75 f0          	mov    rsi,QWORD PTR [rbp-0x10]
    37ec:	48 8b 55 e8          	mov    rdx,QWORD PTR [rbp-0x18]
    37f0:	e8 3b 00 00 00       	call   3830 <_ZNSt15__new_allocatorIPNSt8__detail15_Hash_node_baseEE10deallocateEPS2_m>
    37f5:	48 83 c4 20          	add    rsp,0x20
    37f9:	5d                   	pop    rbp
    37fa:	c3                   	ret
    37fb:	0f 1f 44 00 00       	nop    DWORD PTR [rax+rax*1+0x0]

0000000000003800 <_ZNSaIPNSt8__detail15_Hash_node_baseEED2Ev>:
    3800:	55                   	push   rbp
    3801:	48 89 e5             	mov    rbp,rsp
    3804:	48 83 ec 10          	sub    rsp,0x10
    3808:	48 89 7d f8          	mov    QWORD PTR [rbp-0x8],rdi
    380c:	48 8b 7d f8          	mov    rdi,QWORD PTR [rbp-0x8]
    3810:	e8 4b 00 00 00       	call   3860 <_ZNSt15__new_allocatorIPNSt8__detail15_Hash_node_baseEED2Ev>
    3815:	48 83 c4 10          	add    rsp,0x10
    3819:	5d                   	pop    rbp
    381a:	c3                   	ret
    381b:	0f 1f 44 00 00       	nop    DWORD PTR [rax+rax*1+0x0]

0000000000003820 <_ZNSt15__new_allocatorIPNSt8__detail15_Hash_node_baseEEC2Ev>:
    3820:	55                   	push   rbp
    3821:	48 89 e5             	mov    rbp,rsp
    3824:	48 89 7d f8          	mov    QWORD PTR [rbp-0x8],rdi
    3828:	5d                   	pop    rbp
    3829:	c3                   	ret
    382a:	66 0f 1f 44 00 00    	nop    WORD PTR [rax+rax*1+0x0]

0000000000003830 <_ZNSt15__new_allocatorIPNSt8__detail15_Hash_node_baseEE10deallocateEPS2_m>:
    3830:	55                   	push   rbp
    3831:	48 89 e5             	mov    rbp,rsp
    3834:	48 83 ec 20          	sub    rsp,0x20
    3838:	48 89 7d f8          	mov    QWORD PTR [rbp-0x8],rdi
    383c:	48 89 75 f0          	mov    QWORD PTR [rbp-0x10],rsi
    3840:	48 89 55 e8          	mov    QWORD PTR [rbp-0x18],rdx
    3844:	48 8b 7d f0          	mov    rdi,QWORD PTR [rbp-0x10]
    3848:	e8 53 e9 ff ff       	call   21a0 <_ZdlPv@plt>
    384d:	48 83 c4 20          	add    rsp,0x20
    3851:	5d                   	pop    rbp
    3852:	c3                   	ret
    3853:	66 2e 0f 1f 84 00 00 	cs nop WORD PTR [rax+rax*1+0x0]
    385a:	00 00 00 
    385d:	0f 1f 00             	nop    DWORD PTR [rax]

0000000000003860 <_ZNSt15__new_allocatorIPNSt8__detail15_Hash_node_baseEED2Ev>:
    3860:	55                   	push   rbp
    3861:	48 89 e5             	mov    rbp,rsp
    3864:	48 89 7d f8          	mov    QWORD PTR [rbp-0x8],rdi
    3868:	5d                   	pop    rbp
    3869:	c3                   	ret
    386a:	66 0f 1f 44 00 00    	nop    WORD PTR [rax+rax*1+0x0]

0000000000003870 <_ZNSt8__detail21_Hashtable_ebo_helperILi0ESaINS_10_Hash_nodeISt4pairIKNSt7__cxx1112basic_stringIcSt11char_traitsIcESaIcEEE5TokenELb1EEEELb1EED2Ev>:
    3870:	55                   	push   rbp
    3871:	48 89 e5             	mov    rbp,rsp
    3874:	48 83 ec 10          	sub    rsp,0x10
    3878:	48 89 7d f8          	mov    QWORD PTR [rbp-0x8],rdi
    387c:	48 8b 7d f8          	mov    rdi,QWORD PTR [rbp-0x8]
    3880:	e8 ab 25 00 00       	call   5e30 <_ZNSaINSt8__detail10_Hash_nodeISt4pairIKNSt7__cxx1112basic_stringIcSt11char_traitsIcESaIcEEE5TokenELb1EEEED2Ev>
    3885:	48 83 c4 10          	add    rsp,0x10
    3889:	5d                   	pop    rbp
    388a:	c3                   	ret
    388b:	0f 1f 44 00 00       	nop    DWORD PTR [rax+rax*1+0x0]

0000000000003890 <_ZNSt15__new_allocatorINSt8__detail10_Hash_nodeISt4pairIKNSt7__cxx1112basic_stringIcSt11char_traitsIcESaIcEEE5TokenELb1EEEED2Ev>:
    3890:	55                   	push   rbp
    3891:	48 89 e5             	mov    rbp,rsp
    3894:	48 89 7d f8          	mov    QWORD PTR [rbp-0x8],rdi
    3898:	5d                   	pop    rbp
    3899:	c3                   	ret
    389a:	66 0f 1f 44 00 00    	nop    WORD PTR [rax+rax*1+0x0]

00000000000038a0 <_ZNSt6vectorIcSaIcEEC2ERKS1_>:
    38a0:	55                   	push   rbp
    38a1:	48 89 e5             	mov    rbp,rsp
    38a4:	48 83 ec 60          	sub    rsp,0x60
    38a8:	48 89 7d f8          	mov    QWORD PTR [rbp-0x8],rdi
    38ac:	48 89 75 f0          	mov    QWORD PTR [rbp-0x10],rsi
    38b0:	48 8b 45 f8          	mov    rax,QWORD PTR [rbp-0x8]
    38b4:	48 89 45 b0          	mov    QWORD PTR [rbp-0x50],rax
    38b8:	48 8b 7d f0          	mov    rdi,QWORD PTR [rbp-0x10]
    38bc:	e8 cf 00 00 00       	call   3990 <_ZNKSt6vectorIcSaIcEE4sizeEv>
    38c1:	48 89 45 b8          	mov    QWORD PTR [rbp-0x48],rax
    38c5:	48 8b 7d f0          	mov    rdi,QWORD PTR [rbp-0x10]
    38c9:	e8 12 01 00 00       	call   39e0 <_ZNKSt12_Vector_baseIcSaIcEE19_M_get_Tp_allocatorEv>
    38ce:	48 89 c6             	mov    rsi,rax
    38d1:	48 8d 7d e8          	lea    rdi,[rbp-0x18]
    38d5:	48 89 7d c0          	mov    QWORD PTR [rbp-0x40],rdi
    38d9:	e8 d2 00 00 00       	call   39b0 <_ZN9__gnu_cxx14__alloc_traitsISaIcEcE17_S_select_on_copyERKS1_>
    38de:	48 8b 7d b0          	mov    rdi,QWORD PTR [rbp-0x50]
    38e2:	48 8b 75 b8          	mov    rsi,QWORD PTR [rbp-0x48]
    38e6:	48 8b 55 c0          	mov    rdx,QWORD PTR [rbp-0x40]
    38ea:	e8 01 01 00 00       	call   39f0 <_ZNSt12_Vector_baseIcSaIcEEC2EmRKS0_>
    38ef:	e9 00 00 00 00       	jmp    38f4 <_ZNSt6vectorIcSaIcEEC2ERKS1_+0x54>
    38f4:	48 8d 7d e8          	lea    rdi,[rbp-0x18]
    38f8:	e8 f3 e8 ff ff       	call   21f0 <_ZNSaIcED1Ev@plt>
    38fd:	48 8b 7d f0          	mov    rdi,QWORD PTR [rbp-0x10]
    3901:	e8 8a 01 00 00       	call   3a90 <_ZNKSt6vectorIcSaIcEE5beginEv>
    3906:	48 89 45 d0          	mov    QWORD PTR [rbp-0x30],rax
    390a:	48 8b 7d f0          	mov    rdi,QWORD PTR [rbp-0x10]
    390e:	e8 ad 01 00 00       	call   3ac0 <_ZNKSt6vectorIcSaIcEE3endEv>
    3913:	48 8b 7d b0          	mov    rdi,QWORD PTR [rbp-0x50]
    3917:	48 89 45 c8          	mov    QWORD PTR [rbp-0x38],rax
    391b:	48 8b 07             	mov    rax,QWORD PTR [rdi]
    391e:	48 89 45 a0          	mov    QWORD PTR [rbp-0x60],rax
    3922:	e8 c9 01 00 00       	call   3af0 <_ZNSt12_Vector_baseIcSaIcEE19_M_get_Tp_allocatorEv>
    3927:	48 8b 55 a0          	mov    rdx,QWORD PTR [rbp-0x60]
    392b:	48 89 c1             	mov    rcx,rax
    392e:	48 8b 7d d0          	mov    rdi,QWORD PTR [rbp-0x30]
    3932:	48 8b 75 c8          	mov    rsi,QWORD PTR [rbp-0x38]
    3936:	e8 15 01 00 00       	call   3a50 <_ZSt22__uninitialized_copy_aIN9__gnu_cxx17__normal_iteratorIPKcSt6vectorIcSaIcEEEEPccET0_T_SA_S9_RSaIT1_E>
    393b:	48 89 45 a8          	mov    QWORD PTR [rbp-0x58],rax
    393f:	e9 00 00 00 00       	jmp    3944 <_ZNSt6vectorIcSaIcEEC2ERKS1_+0xa4>
    3944:	48 8b 45 b0          	mov    rax,QWORD PTR [rbp-0x50]
    3948:	48 8b 4d a8          	mov    rcx,QWORD PTR [rbp-0x58]
    394c:	48 89 48 08          	mov    QWORD PTR [rax+0x8],rcx
    3950:	48 83 c4 60          	add    rsp,0x60
    3954:	5d                   	pop    rbp
    3955:	c3                   	ret
    3956:	48 89 c1             	mov    rcx,rax
    3959:	89 d0                	mov    eax,edx
    395b:	48 89 4d e0          	mov    QWORD PTR [rbp-0x20],rcx
    395f:	89 45 dc             	mov    DWORD PTR [rbp-0x24],eax
    3962:	48 8d 7d e8          	lea    rdi,[rbp-0x18]
    3966:	e8 85 e8 ff ff       	call   21f0 <_ZNSaIcED1Ev@plt>
    396b:	e9 15 00 00 00       	jmp    3985 <_ZNSt6vectorIcSaIcEEC2ERKS1_+0xe5>
    3970:	48 8b 7d b0          	mov    rdi,QWORD PTR [rbp-0x50]
    3974:	48 89 c1             	mov    rcx,rax
    3977:	89 d0                	mov    eax,edx
    3979:	48 89 4d e0          	mov    QWORD PTR [rbp-0x20],rcx
    397d:	89 45 dc             	mov    DWORD PTR [rbp-0x24],eax
    3980:	e8 7b 01 00 00       	call   3b00 <_ZNSt12_Vector_baseIcSaIcEED2Ev>
    3985:	48 8b 7d e0          	mov    rdi,QWORD PTR [rbp-0x20]
    3989:	e8 52 e9 ff ff       	call   22e0 <_Unwind_Resume@plt>
    398e:	66 90                	xchg   ax,ax

0000000000003990 <_ZNKSt6vectorIcSaIcEE4sizeEv>:
    3990:	55                   	push   rbp
    3991:	48 89 e5             	mov    rbp,rsp
    3994:	48 89 7d f8          	mov    QWORD PTR [rbp-0x8],rdi
    3998:	48 8b 4d f8          	mov    rcx,QWORD PTR [rbp-0x8]
    399c:	48 8b 41 08          	mov    rax,QWORD PTR [rcx+0x8]
    39a0:	48 8b 09             	mov    rcx,QWORD PTR [rcx]
    39a3:	48 29 c8             	sub    rax,rcx
    39a6:	5d                   	pop    rbp
    39a7:	c3                   	ret
    39a8:	0f 1f 84 00 00 00 00 	nop    DWORD PTR [rax+rax*1+0x0]
    39af:	00 

00000000000039b0 <_ZN9__gnu_cxx14__alloc_traitsISaIcEcE17_S_select_on_copyERKS1_>:
    39b0:	55                   	push   rbp
    39b1:	48 89 e5             	mov    rbp,rsp
    39b4:	48 83 ec 20          	sub    rsp,0x20
    39b8:	48 89 f8             	mov    rax,rdi
    39bb:	48 89 45 e8          	mov    QWORD PTR [rbp-0x18],rax
    39bf:	48 89 7d f8          	mov    QWORD PTR [rbp-0x8],rdi
    39c3:	48 89 75 f0          	mov    QWORD PTR [rbp-0x10],rsi
    39c7:	48 8b 75 f0          	mov    rsi,QWORD PTR [rbp-0x10]
    39cb:	e8 70 01 00 00       	call   3b40 <_ZNSt16allocator_traitsISaIcEE37select_on_container_copy_constructionERKS0_>
    39d0:	48 8b 45 e8          	mov    rax,QWORD PTR [rbp-0x18]
    39d4:	48 83 c4 20          	add    rsp,0x20
    39d8:	5d                   	pop    rbp
    39d9:	c3                   	ret
    39da:	66 0f 1f 44 00 00    	nop    WORD PTR [rax+rax*1+0x0]

00000000000039e0 <_ZNKSt12_Vector_baseIcSaIcEE19_M_get_Tp_allocatorEv>:
    39e0:	55                   	push   rbp
    39e1:	48 89 e5             	mov    rbp,rsp
    39e4:	48 89 7d f8          	mov    QWORD PTR [rbp-0x8],rdi
    39e8:	48 8b 45 f8          	mov    rax,QWORD PTR [rbp-0x8]
    39ec:	5d                   	pop    rbp
    39ed:	c3                   	ret
    39ee:	66 90                	xchg   ax,ax

00000000000039f0 <_ZNSt12_Vector_baseIcSaIcEEC2EmRKS0_>:
    39f0:	55                   	push   rbp
    39f1:	48 89 e5             	mov    rbp,rsp
    39f4:	48 83 ec 30          	sub    rsp,0x30
    39f8:	48 89 7d f8          	mov    QWORD PTR [rbp-0x8],rdi
    39fc:	48 89 75 f0          	mov    QWORD PTR [rbp-0x10],rsi
    3a00:	48 89 55 e8          	mov    QWORD PTR [rbp-0x18],rdx
    3a04:	48 8b 7d f8          	mov    rdi,QWORD PTR [rbp-0x8]
    3a08:	48 89 7d d0          	mov    QWORD PTR [rbp-0x30],rdi
    3a0c:	48 8b 75 e8          	mov    rsi,QWORD PTR [rbp-0x18]
    3a10:	e8 5b 01 00 00       	call   3b70 <_ZNSt12_Vector_baseIcSaIcEE12_Vector_implC2ERKS0_>
    3a15:	48 8b 7d d0          	mov    rdi,QWORD PTR [rbp-0x30]
    3a19:	48 8b 75 f0          	mov    rsi,QWORD PTR [rbp-0x10]
    3a1d:	e8 7e 01 00 00       	call   3ba0 <_ZNSt12_Vector_baseIcSaIcEE17_M_create_storageEm>
    3a22:	e9 00 00 00 00       	jmp    3a27 <_ZNSt12_Vector_baseIcSaIcEEC2EmRKS0_+0x37>
    3a27:	48 83 c4 30          	add    rsp,0x30
    3a2b:	5d                   	pop    rbp
    3a2c:	c3                   	ret
    3a2d:	48 8b 7d d0          	mov    rdi,QWORD PTR [rbp-0x30]
    3a31:	48 89 c1             	mov    rcx,rax
    3a34:	89 d0                	mov    eax,edx
    3a36:	48 89 4d e0          	mov    QWORD PTR [rbp-0x20],rcx
    3a3a:	89 45 dc             	mov    DWORD PTR [rbp-0x24],eax
    3a3d:	e8 ae 01 00 00       	call   3bf0 <_ZNSt12_Vector_baseIcSaIcEE12_Vector_implD2Ev>
    3a42:	48 8b 7d e0          	mov    rdi,QWORD PTR [rbp-0x20]
    3a46:	e8 95 e8 ff ff       	call   22e0 <_Unwind_Resume@plt>
    3a4b:	0f 1f 44 00 00       	nop    DWORD PTR [rax+rax*1+0x0]

0000000000003a50 <_ZSt22__uninitialized_copy_aIN9__gnu_cxx17__normal_iteratorIPKcSt6vectorIcSaIcEEEEPccET0_T_SA_S9_RSaIT1_E>:
    3a50:	55                   	push   rbp
    3a51:	48 89 e5             	mov    rbp,rsp
    3a54:	48 83 ec 30          	sub    rsp,0x30
    3a58:	48 89 7d f8          	mov    QWORD PTR [rbp-0x8],rdi
    3a5c:	48 89 75 f0          	mov    QWORD PTR [rbp-0x10],rsi
    3a60:	48 89 55 e8          	mov    QWORD PTR [rbp-0x18],rdx
    3a64:	48 89 4d e0          	mov    QWORD PTR [rbp-0x20],rcx
    3a68:	48 8b 45 f8          	mov    rax,QWORD PTR [rbp-0x8]
    3a6c:	48 89 45 d8          	mov    QWORD PTR [rbp-0x28],rax
    3a70:	48 8b 45 f0          	mov    rax,QWORD PTR [rbp-0x10]
    3a74:	48 89 45 d0          	mov    QWORD PTR [rbp-0x30],rax
    3a78:	48 8b 55 e8          	mov    rdx,QWORD PTR [rbp-0x18]
    3a7c:	48 8b 7d d8          	mov    rdi,QWORD PTR [rbp-0x28]
    3a80:	48 8b 75 d0          	mov    rsi,QWORD PTR [rbp-0x30]
    3a84:	e8 b7 02 00 00       	call   3d40 <_ZSt18uninitialized_copyIN9__gnu_cxx17__normal_iteratorIPKcSt6vectorIcSaIcEEEEPcET0_T_SA_S9_>
    3a89:	48 83 c4 30          	add    rsp,0x30
    3a8d:	5d                   	pop    rbp
    3a8e:	c3                   	ret
    3a8f:	90                   	nop

0000000000003a90 <_ZNKSt6vectorIcSaIcEE5beginEv>:
    3a90:	55                   	push   rbp
    3a91:	48 89 e5             	mov    rbp,rsp
    3a94:	48 83 ec 10          	sub    rsp,0x10
    3a98:	48 89 7d f0          	mov    QWORD PTR [rbp-0x10],rdi
    3a9c:	48 8b 75 f0          	mov    rsi,QWORD PTR [rbp-0x10]
    3aa0:	48 8d 7d f8          	lea    rdi,[rbp-0x8]
    3aa4:	e8 37 05 00 00       	call   3fe0 <_ZN9__gnu_cxx17__normal_iteratorIPKcSt6vectorIcSaIcEEEC2ERKS2_>
    3aa9:	48 8b 45 f8          	mov    rax,QWORD PTR [rbp-0x8]
    3aad:	48 83 c4 10          	add    rsp,0x10
    3ab1:	5d                   	pop    rbp
    3ab2:	c3                   	ret
    3ab3:	66 2e 0f 1f 84 00 00 	cs nop WORD PTR [rax+rax*1+0x0]
    3aba:	00 00 00 
    3abd:	0f 1f 00             	nop    DWORD PTR [rax]

0000000000003ac0 <_ZNKSt6vectorIcSaIcEE3endEv>:
    3ac0:	55                   	push   rbp
    3ac1:	48 89 e5             	mov    rbp,rsp
    3ac4:	48 83 ec 10          	sub    rsp,0x10
    3ac8:	48 89 7d f0          	mov    QWORD PTR [rbp-0x10],rdi
    3acc:	48 8b 75 f0          	mov    rsi,QWORD PTR [rbp-0x10]
    3ad0:	48 83 c6 08          	add    rsi,0x8
    3ad4:	48 8d 7d f8          	lea    rdi,[rbp-0x8]
    3ad8:	e8 03 05 00 00       	call   3fe0 <_ZN9__gnu_cxx17__normal_iteratorIPKcSt6vectorIcSaIcEEEC2ERKS2_>
    3add:	48 8b 45 f8          	mov    rax,QWORD PTR [rbp-0x8]
    3ae1:	48 83 c4 10          	add    rsp,0x10
    3ae5:	5d                   	pop    rbp
    3ae6:	c3                   	ret
    3ae7:	66 0f 1f 84 00 00 00 	nop    WORD PTR [rax+rax*1+0x0]
    3aee:	00 00 

0000000000003af0 <_ZNSt12_Vector_baseIcSaIcEE19_M_get_Tp_allocatorEv>:
    3af0:	55                   	push   rbp
    3af1:	48 89 e5             	mov    rbp,rsp
    3af4:	48 89 7d f8          	mov    QWORD PTR [rbp-0x8],rdi
    3af8:	48 8b 45 f8          	mov    rax,QWORD PTR [rbp-0x8]
    3afc:	5d                   	pop    rbp
    3afd:	c3                   	ret
    3afe:	66 90                	xchg   ax,ax

0000000000003b00 <_ZNSt12_Vector_baseIcSaIcEED2Ev>:
    3b00:	55                   	push   rbp
    3b01:	48 89 e5             	mov    rbp,rsp
    3b04:	48 83 ec 10          	sub    rsp,0x10
    3b08:	48 89 7d f8          	mov    QWORD PTR [rbp-0x8],rdi
    3b0c:	48 8b 7d f8          	mov    rdi,QWORD PTR [rbp-0x8]
    3b10:	48 89 7d f0          	mov    QWORD PTR [rbp-0x10],rdi
    3b14:	48 8b 37             	mov    rsi,QWORD PTR [rdi]
    3b17:	48 8b 57 10          	mov    rdx,QWORD PTR [rdi+0x10]
    3b1b:	48 29 f2             	sub    rdx,rsi
    3b1e:	e8 dd 04 00 00       	call   4000 <_ZNSt12_Vector_baseIcSaIcEE13_M_deallocateEPcm>
    3b23:	e9 00 00 00 00       	jmp    3b28 <_ZNSt12_Vector_baseIcSaIcEED2Ev+0x28>
    3b28:	48 8b 7d f0          	mov    rdi,QWORD PTR [rbp-0x10]
    3b2c:	e8 bf 00 00 00       	call   3bf0 <_ZNSt12_Vector_baseIcSaIcEE12_Vector_implD2Ev>
    3b31:	48 83 c4 10          	add    rsp,0x10
    3b35:	5d                   	pop    rbp
    3b36:	c3                   	ret
    3b37:	48 89 c7             	mov    rdi,rax
    3b3a:	e8 b1 f8 ff ff       	call   33f0 <__clang_call_terminate>
    3b3f:	90                   	nop

0000000000003b40 <_ZNSt16allocator_traitsISaIcEE37select_on_container_copy_constructionERKS0_>:
    3b40:	55                   	push   rbp
    3b41:	48 89 e5             	mov    rbp,rsp
    3b44:	48 83 ec 20          	sub    rsp,0x20
    3b48:	48 89 f8             	mov    rax,rdi
    3b4b:	48 89 45 e8          	mov    QWORD PTR [rbp-0x18],rax
    3b4f:	48 89 7d f8          	mov    QWORD PTR [rbp-0x8],rdi
    3b53:	48 89 75 f0          	mov    QWORD PTR [rbp-0x10],rsi
    3b57:	48 8b 75 f0          	mov    rsi,QWORD PTR [rbp-0x10]
    3b5b:	e8 80 e5 ff ff       	call   20e0 <_ZNSaIcEC1ERKS_@plt>
    3b60:	48 8b 45 e8          	mov    rax,QWORD PTR [rbp-0x18]
    3b64:	48 83 c4 20          	add    rsp,0x20
    3b68:	5d                   	pop    rbp
    3b69:	c3                   	ret
    3b6a:	66 0f 1f 44 00 00    	nop    WORD PTR [rax+rax*1+0x0]

0000000000003b70 <_ZNSt12_Vector_baseIcSaIcEE12_Vector_implC2ERKS0_>:
    3b70:	55                   	push   rbp
    3b71:	48 89 e5             	mov    rbp,rsp
    3b74:	48 83 ec 20          	sub    rsp,0x20
    3b78:	48 89 7d f8          	mov    QWORD PTR [rbp-0x8],rdi
    3b7c:	48 89 75 f0          	mov    QWORD PTR [rbp-0x10],rsi
    3b80:	48 8b 7d f8          	mov    rdi,QWORD PTR [rbp-0x8]
    3b84:	48 89 7d e8          	mov    QWORD PTR [rbp-0x18],rdi
    3b88:	48 8b 75 f0          	mov    rsi,QWORD PTR [rbp-0x10]
    3b8c:	e8 cf e6 ff ff       	call   2260 <_ZNSaIcEC2ERKS_@plt>
    3b91:	48 8b 7d e8          	mov    rdi,QWORD PTR [rbp-0x18]
    3b95:	e8 76 00 00 00       	call   3c10 <_ZNSt12_Vector_baseIcSaIcEE17_Vector_impl_dataC2Ev>
    3b9a:	48 83 c4 20          	add    rsp,0x20
    3b9e:	5d                   	pop    rbp
    3b9f:	c3                   	ret

0000000000003ba0 <_ZNSt12_Vector_baseIcSaIcEE17_M_create_storageEm>:
    3ba0:	55                   	push   rbp
    3ba1:	48 89 e5             	mov    rbp,rsp
    3ba4:	48 83 ec 20          	sub    rsp,0x20
    3ba8:	48 89 7d f8          	mov    QWORD PTR [rbp-0x8],rdi
    3bac:	48 89 75 f0          	mov    QWORD PTR [rbp-0x10],rsi
    3bb0:	48 8b 7d f8          	mov    rdi,QWORD PTR [rbp-0x8]
    3bb4:	48 89 7d e8          	mov    QWORD PTR [rbp-0x18],rdi
    3bb8:	48 8b 75 f0          	mov    rsi,QWORD PTR [rbp-0x10]
    3bbc:	e8 7f 00 00 00       	call   3c40 <_ZNSt12_Vector_baseIcSaIcEE11_M_allocateEm>
    3bc1:	48 89 c1             	mov    rcx,rax
    3bc4:	48 8b 45 e8          	mov    rax,QWORD PTR [rbp-0x18]
    3bc8:	48 89 08             	mov    QWORD PTR [rax],rcx
    3bcb:	48 8b 08             	mov    rcx,QWORD PTR [rax]
    3bce:	48 89 48 08          	mov    QWORD PTR [rax+0x8],rcx
    3bd2:	48 8b 08             	mov    rcx,QWORD PTR [rax]
    3bd5:	48 03 4d f0          	add    rcx,QWORD PTR [rbp-0x10]
    3bd9:	48 89 48 10          	mov    QWORD PTR [rax+0x10],rcx
    3bdd:	48 83 c4 20          	add    rsp,0x20
    3be1:	5d                   	pop    rbp
    3be2:	c3                   	ret
    3be3:	66 2e 0f 1f 84 00 00 	cs nop WORD PTR [rax+rax*1+0x0]
    3bea:	00 00 00 
    3bed:	0f 1f 00             	nop    DWORD PTR [rax]

0000000000003bf0 <_ZNSt12_Vector_baseIcSaIcEE12_Vector_implD2Ev>:
    3bf0:	55                   	push   rbp
    3bf1:	48 89 e5             	mov    rbp,rsp
    3bf4:	48 83 ec 10          	sub    rsp,0x10
    3bf8:	48 89 7d f8          	mov    QWORD PTR [rbp-0x8],rdi
    3bfc:	48 8b 7d f8          	mov    rdi,QWORD PTR [rbp-0x8]
    3c00:	e8 2b e4 ff ff       	call   2030 <_ZNSaIcED2Ev@plt>
    3c05:	48 83 c4 10          	add    rsp,0x10
    3c09:	5d                   	pop    rbp
    3c0a:	c3                   	ret
    3c0b:	0f 1f 44 00 00       	nop    DWORD PTR [rax+rax*1+0x0]

0000000000003c10 <_ZNSt12_Vector_baseIcSaIcEE17_Vector_impl_dataC2Ev>:
    3c10:	55                   	push   rbp
    3c11:	48 89 e5             	mov    rbp,rsp
    3c14:	48 89 7d f8          	mov    QWORD PTR [rbp-0x8],rdi
    3c18:	48 8b 45 f8          	mov    rax,QWORD PTR [rbp-0x8]
    3c1c:	48 c7 00 00 00 00 00 	mov    QWORD PTR [rax],0x0
    3c23:	48 c7 40 08 00 00 00 	mov    QWORD PTR [rax+0x8],0x0
    3c2a:	00 
    3c2b:	48 c7 40 10 00 00 00 	mov    QWORD PTR [rax+0x10],0x0
    3c32:	00 
    3c33:	5d                   	pop    rbp
    3c34:	c3                   	ret
    3c35:	66 2e 0f 1f 84 00 00 	cs nop WORD PTR [rax+rax*1+0x0]
    3c3c:	00 00 00 
    3c3f:	90                   	nop

0000000000003c40 <_ZNSt12_Vector_baseIcSaIcEE11_M_allocateEm>:
    3c40:	55                   	push   rbp
    3c41:	48 89 e5             	mov    rbp,rsp
    3c44:	48 83 ec 20          	sub    rsp,0x20
    3c48:	48 89 7d f8          	mov    QWORD PTR [rbp-0x8],rdi
    3c4c:	48 89 75 f0          	mov    QWORD PTR [rbp-0x10],rsi
    3c50:	48 8b 45 f8          	mov    rax,QWORD PTR [rbp-0x8]
    3c54:	48 89 45 e8          	mov    QWORD PTR [rbp-0x18],rax
    3c58:	48 83 7d f0 00       	cmp    QWORD PTR [rbp-0x10],0x0
    3c5d:	0f 84 16 00 00 00    	je     3c79 <_ZNSt12_Vector_baseIcSaIcEE11_M_allocateEm+0x39>
    3c63:	48 8b 7d e8          	mov    rdi,QWORD PTR [rbp-0x18]
    3c67:	48 8b 75 f0          	mov    rsi,QWORD PTR [rbp-0x10]
    3c6b:	e8 20 00 00 00       	call   3c90 <_ZNSt16allocator_traitsISaIcEE8allocateERS0_m>
    3c70:	48 89 45 e0          	mov    QWORD PTR [rbp-0x20],rax
    3c74:	e9 0b 00 00 00       	jmp    3c84 <_ZNSt12_Vector_baseIcSaIcEE11_M_allocateEm+0x44>
    3c79:	31 c0                	xor    eax,eax
    3c7b:	48 89 45 e0          	mov    QWORD PTR [rbp-0x20],rax
    3c7f:	e9 00 00 00 00       	jmp    3c84 <_ZNSt12_Vector_baseIcSaIcEE11_M_allocateEm+0x44>
    3c84:	48 8b 45 e0          	mov    rax,QWORD PTR [rbp-0x20]
    3c88:	48 83 c4 20          	add    rsp,0x20
    3c8c:	5d                   	pop    rbp
    3c8d:	c3                   	ret
    3c8e:	66 90                	xchg   ax,ax

0000000000003c90 <_ZNSt16allocator_traitsISaIcEE8allocateERS0_m>:
    3c90:	55                   	push   rbp
    3c91:	48 89 e5             	mov    rbp,rsp
    3c94:	48 83 ec 10          	sub    rsp,0x10
    3c98:	48 89 7d f8          	mov    QWORD PTR [rbp-0x8],rdi
    3c9c:	48 89 75 f0          	mov    QWORD PTR [rbp-0x10],rsi
    3ca0:	48 8b 7d f8          	mov    rdi,QWORD PTR [rbp-0x8]
    3ca4:	48 8b 75 f0          	mov    rsi,QWORD PTR [rbp-0x10]
    3ca8:	31 c0                	xor    eax,eax
    3caa:	89 c2                	mov    edx,eax
    3cac:	e8 0f 00 00 00       	call   3cc0 <_ZNSt15__new_allocatorIcE8allocateEmPKv>
    3cb1:	48 83 c4 10          	add    rsp,0x10
    3cb5:	5d                   	pop    rbp
    3cb6:	c3                   	ret
    3cb7:	66 0f 1f 84 00 00 00 	nop    WORD PTR [rax+rax*1+0x0]
    3cbe:	00 00 

0000000000003cc0 <_ZNSt15__new_allocatorIcE8allocateEmPKv>:
    3cc0:	55                   	push   rbp
    3cc1:	48 89 e5             	mov    rbp,rsp
    3cc4:	48 83 ec 20          	sub    rsp,0x20
    3cc8:	48 89 7d f8          	mov    QWORD PTR [rbp-0x8],rdi
    3ccc:	48 89 75 f0          	mov    QWORD PTR [rbp-0x10],rsi
    3cd0:	48 89 55 e8          	mov    QWORD PTR [rbp-0x18],rdx
    3cd4:	48 8b 7d f8          	mov    rdi,QWORD PTR [rbp-0x8]
    3cd8:	48 8b 45 f0          	mov    rax,QWORD PTR [rbp-0x10]
    3cdc:	48 89 45 e0          	mov    QWORD PTR [rbp-0x20],rax
    3ce0:	e8 3b 00 00 00       	call   3d20 <_ZNKSt15__new_allocatorIcE11_M_max_sizeEv>
    3ce5:	48 89 c1             	mov    rcx,rax
    3ce8:	48 8b 45 e0          	mov    rax,QWORD PTR [rbp-0x20]
    3cec:	48 39 c8             	cmp    rax,rcx
    3cef:	0f 86 15 00 00 00    	jbe    3d0a <_ZNSt15__new_allocatorIcE8allocateEmPKv+0x4a>
    3cf5:	48 83 7d f0 ff       	cmp    QWORD PTR [rbp-0x10],0xffffffffffffffff
    3cfa:	0f 86 05 00 00 00    	jbe    3d05 <_ZNSt15__new_allocatorIcE8allocateEmPKv+0x45>
    3d00:	e8 4b e4 ff ff       	call   2150 <_ZSt28__throw_bad_array_new_lengthv@plt>
    3d05:	e8 66 e3 ff ff       	call   2070 <_ZSt17__throw_bad_allocv@plt>
    3d0a:	48 8b 7d f0          	mov    rdi,QWORD PTR [rbp-0x10]
    3d0e:	48 c1 e7 00          	shl    rdi,0x0
    3d12:	e8 a9 e4 ff ff       	call   21c0 <_Znwm@plt>
    3d17:	48 83 c4 20          	add    rsp,0x20
    3d1b:	5d                   	pop    rbp
    3d1c:	c3                   	ret
    3d1d:	0f 1f 00             	nop    DWORD PTR [rax]

0000000000003d20 <_ZNKSt15__new_allocatorIcE11_M_max_sizeEv>:
    3d20:	55                   	push   rbp
    3d21:	48 89 e5             	mov    rbp,rsp
    3d24:	48 89 7d f8          	mov    QWORD PTR [rbp-0x8],rdi
    3d28:	48 b8 ff ff ff ff ff 	movabs rax,0x7fffffffffffffff
    3d2f:	ff ff 7f 
    3d32:	5d                   	pop    rbp
    3d33:	c3                   	ret
    3d34:	66 2e 0f 1f 84 00 00 	cs nop WORD PTR [rax+rax*1+0x0]
    3d3b:	00 00 00 
    3d3e:	66 90                	xchg   ax,ax

0000000000003d40 <_ZSt18uninitialized_copyIN9__gnu_cxx17__normal_iteratorIPKcSt6vectorIcSaIcEEEEPcET0_T_SA_S9_>:
    3d40:	55                   	push   rbp
    3d41:	48 89 e5             	mov    rbp,rsp
    3d44:	48 83 ec 30          	sub    rsp,0x30
    3d48:	48 89 7d f8          	mov    QWORD PTR [rbp-0x8],rdi
    3d4c:	48 89 75 f0          	mov    QWORD PTR [rbp-0x10],rsi
    3d50:	48 89 55 e8          	mov    QWORD PTR [rbp-0x18],rdx
    3d54:	c6 45 e7 01          	mov    BYTE PTR [rbp-0x19],0x1
    3d58:	c6 45 e6 01          	mov    BYTE PTR [rbp-0x1a],0x1
    3d5c:	48 8b 45 f8          	mov    rax,QWORD PTR [rbp-0x8]
    3d60:	48 89 45 d8          	mov    QWORD PTR [rbp-0x28],rax
    3d64:	48 8b 45 f0          	mov    rax,QWORD PTR [rbp-0x10]
    3d68:	48 89 45 d0          	mov    QWORD PTR [rbp-0x30],rax
    3d6c:	48 8b 55 e8          	mov    rdx,QWORD PTR [rbp-0x18]
    3d70:	48 8b 7d d8          	mov    rdi,QWORD PTR [rbp-0x28]
    3d74:	48 8b 75 d0          	mov    rsi,QWORD PTR [rbp-0x30]
    3d78:	e8 13 00 00 00       	call   3d90 <_ZNSt20__uninitialized_copyILb1EE13__uninit_copyIN9__gnu_cxx17__normal_iteratorIPKcSt6vectorIcSaIcEEEEPcEET0_T_SC_SB_>
    3d7d:	48 83 c4 30          	add    rsp,0x30
    3d81:	5d                   	pop    rbp
    3d82:	c3                   	ret
    3d83:	66 2e 0f 1f 84 00 00 	cs nop WORD PTR [rax+rax*1+0x0]
    3d8a:	00 00 00 
    3d8d:	0f 1f 00             	nop    DWORD PTR [rax]

0000000000003d90 <_ZNSt20__uninitialized_copyILb1EE13__uninit_copyIN9__gnu_cxx17__normal_iteratorIPKcSt6vectorIcSaIcEEEEPcEET0_T_SC_SB_>:
    3d90:	55                   	push   rbp
    3d91:	48 89 e5             	mov    rbp,rsp
    3d94:	48 83 ec 30          	sub    rsp,0x30
    3d98:	48 89 7d f8          	mov    QWORD PTR [rbp-0x8],rdi
    3d9c:	48 89 75 f0          	mov    QWORD PTR [rbp-0x10],rsi
    3da0:	48 89 55 e8          	mov    QWORD PTR [rbp-0x18],rdx
    3da4:	48 8b 45 f8          	mov    rax,QWORD PTR [rbp-0x8]
    3da8:	48 89 45 e0          	mov    QWORD PTR [rbp-0x20],rax
    3dac:	48 8b 45 f0          	mov    rax,QWORD PTR [rbp-0x10]
    3db0:	48 89 45 d8          	mov    QWORD PTR [rbp-0x28],rax
    3db4:	48 8b 55 e8          	mov    rdx,QWORD PTR [rbp-0x18]
    3db8:	48 8b 7d e0          	mov    rdi,QWORD PTR [rbp-0x20]
    3dbc:	48 8b 75 d8          	mov    rsi,QWORD PTR [rbp-0x28]
    3dc0:	e8 0b 00 00 00       	call   3dd0 <_ZSt4copyIN9__gnu_cxx17__normal_iteratorIPKcSt6vectorIcSaIcEEEEPcET0_T_SA_S9_>
    3dc5:	48 83 c4 30          	add    rsp,0x30
    3dc9:	5d                   	pop    rbp
    3dca:	c3                   	ret
    3dcb:	0f 1f 44 00 00       	nop    DWORD PTR [rax+rax*1+0x0]

0000000000003dd0 <_ZSt4copyIN9__gnu_cxx17__normal_iteratorIPKcSt6vectorIcSaIcEEEEPcET0_T_SA_S9_>:
    3dd0:	55                   	push   rbp
    3dd1:	48 89 e5             	mov    rbp,rsp
    3dd4:	48 83 ec 40          	sub    rsp,0x40
    3dd8:	48 89 7d f8          	mov    QWORD PTR [rbp-0x8],rdi
    3ddc:	48 89 75 f0          	mov    QWORD PTR [rbp-0x10],rsi
    3de0:	48 89 55 e8          	mov    QWORD PTR [rbp-0x18],rdx
    3de4:	48 8b 45 f8          	mov    rax,QWORD PTR [rbp-0x8]
    3de8:	48 89 45 d8          	mov    QWORD PTR [rbp-0x28],rax
    3dec:	48 8b 7d d8          	mov    rdi,QWORD PTR [rbp-0x28]
    3df0:	e8 ab 00 00 00       	call   3ea0 <_ZSt12__miter_baseIN9__gnu_cxx17__normal_iteratorIPKcSt6vectorIcSaIcEEEEET_S8_>
    3df5:	48 89 45 e0          	mov    QWORD PTR [rbp-0x20],rax
    3df9:	48 8b 45 f0          	mov    rax,QWORD PTR [rbp-0x10]
    3dfd:	48 89 45 c8          	mov    QWORD PTR [rbp-0x38],rax
    3e01:	48 8b 7d c8          	mov    rdi,QWORD PTR [rbp-0x38]
    3e05:	e8 96 00 00 00       	call   3ea0 <_ZSt12__miter_baseIN9__gnu_cxx17__normal_iteratorIPKcSt6vectorIcSaIcEEEEET_S8_>
    3e0a:	48 89 45 d0          	mov    QWORD PTR [rbp-0x30],rax
    3e0e:	48 8b 55 e8          	mov    rdx,QWORD PTR [rbp-0x18]
    3e12:	48 8b 7d e0          	mov    rdi,QWORD PTR [rbp-0x20]
    3e16:	48 8b 75 d0          	mov    rsi,QWORD PTR [rbp-0x30]
    3e1a:	e8 11 00 00 00       	call   3e30 <_ZSt13__copy_move_aILb0EN9__gnu_cxx17__normal_iteratorIPKcSt6vectorIcSaIcEEEEPcET1_T0_SA_S9_>
    3e1f:	48 83 c4 40          	add    rsp,0x40
    3e23:	5d                   	pop    rbp
    3e24:	c3                   	ret
    3e25:	66 2e 0f 1f 84 00 00 	cs nop WORD PTR [rax+rax*1+0x0]
    3e2c:	00 00 00 
    3e2f:	90                   	nop

0000000000003e30 <_ZSt13__copy_move_aILb0EN9__gnu_cxx17__normal_iteratorIPKcSt6vectorIcSaIcEEEEPcET1_T0_SA_S9_>:
    3e30:	55                   	push   rbp
    3e31:	48 89 e5             	mov    rbp,rsp
    3e34:	48 83 ec 40          	sub    rsp,0x40
    3e38:	48 89 7d f8          	mov    QWORD PTR [rbp-0x8],rdi
    3e3c:	48 89 75 f0          	mov    QWORD PTR [rbp-0x10],rsi
    3e40:	48 89 55 e8          	mov    QWORD PTR [rbp-0x18],rdx
    3e44:	48 8b 45 f8          	mov    rax,QWORD PTR [rbp-0x8]
    3e48:	48 89 45 e0          	mov    QWORD PTR [rbp-0x20],rax
    3e4c:	48 8b 7d e0          	mov    rdi,QWORD PTR [rbp-0x20]
    3e50:	e8 bb 00 00 00       	call   3f10 <_ZSt12__niter_baseIPKcSt6vectorIcSaIcEEET_N9__gnu_cxx17__normal_iteratorIS5_T0_EE>
    3e55:	48 89 45 c8          	mov    QWORD PTR [rbp-0x38],rax
    3e59:	48 8b 45 f0          	mov    rax,QWORD PTR [rbp-0x10]
    3e5d:	48 89 45 d8          	mov    QWORD PTR [rbp-0x28],rax
    3e61:	48 8b 7d d8          	mov    rdi,QWORD PTR [rbp-0x28]
    3e65:	e8 a6 00 00 00       	call   3f10 <_ZSt12__niter_baseIPKcSt6vectorIcSaIcEEET_N9__gnu_cxx17__normal_iteratorIS5_T0_EE>
    3e6a:	48 89 45 d0          	mov    QWORD PTR [rbp-0x30],rax
    3e6e:	48 8b 7d e8          	mov    rdi,QWORD PTR [rbp-0x18]
    3e72:	e8 b9 00 00 00       	call   3f30 <_ZSt12__niter_baseIPcET_S1_>
    3e77:	48 8b 7d c8          	mov    rdi,QWORD PTR [rbp-0x38]
    3e7b:	48 8b 75 d0          	mov    rsi,QWORD PTR [rbp-0x30]
    3e7f:	48 89 c2             	mov    rdx,rax
    3e82:	e8 59 00 00 00       	call   3ee0 <_ZSt14__copy_move_a1ILb0EPKcPcET1_T0_S4_S3_>
    3e87:	48 89 c6             	mov    rsi,rax
    3e8a:	48 8d 7d e8          	lea    rdi,[rbp-0x18]
    3e8e:	e8 2d 00 00 00       	call   3ec0 <_ZSt12__niter_wrapIPcET_RKS1_S1_>
    3e93:	48 83 c4 40          	add    rsp,0x40
    3e97:	5d                   	pop    rbp
    3e98:	c3                   	ret
    3e99:	0f 1f 80 00 00 00 00 	nop    DWORD PTR [rax+0x0]

0000000000003ea0 <_ZSt12__miter_baseIN9__gnu_cxx17__normal_iteratorIPKcSt6vectorIcSaIcEEEEET_S8_>:
    3ea0:	55                   	push   rbp
    3ea1:	48 89 e5             	mov    rbp,rsp
    3ea4:	48 89 7d f0          	mov    QWORD PTR [rbp-0x10],rdi
    3ea8:	48 8b 45 f0          	mov    rax,QWORD PTR [rbp-0x10]
    3eac:	48 89 45 f8          	mov    QWORD PTR [rbp-0x8],rax
    3eb0:	48 8b 45 f8          	mov    rax,QWORD PTR [rbp-0x8]
    3eb4:	5d                   	pop    rbp
    3eb5:	c3                   	ret
    3eb6:	66 2e 0f 1f 84 00 00 	cs nop WORD PTR [rax+rax*1+0x0]
    3ebd:	00 00 00 

0000000000003ec0 <_ZSt12__niter_wrapIPcET_RKS1_S1_>:
    3ec0:	55                   	push   rbp
    3ec1:	48 89 e5             	mov    rbp,rsp
    3ec4:	48 89 7d f8          	mov    QWORD PTR [rbp-0x8],rdi
    3ec8:	48 89 75 f0          	mov    QWORD PTR [rbp-0x10],rsi
    3ecc:	48 8b 45 f0          	mov    rax,QWORD PTR [rbp-0x10]
    3ed0:	5d                   	pop    rbp
    3ed1:	c3                   	ret
    3ed2:	66 2e 0f 1f 84 00 00 	cs nop WORD PTR [rax+rax*1+0x0]
    3ed9:	00 00 00 
    3edc:	0f 1f 40 00          	nop    DWORD PTR [rax+0x0]

0000000000003ee0 <_ZSt14__copy_move_a1ILb0EPKcPcET1_T0_S4_S3_>:
    3ee0:	55                   	push   rbp
    3ee1:	48 89 e5             	mov    rbp,rsp
    3ee4:	48 83 ec 20          	sub    rsp,0x20
    3ee8:	48 89 7d f8          	mov    QWORD PTR [rbp-0x8],rdi
    3eec:	48 89 75 f0          	mov    QWORD PTR [rbp-0x10],rsi
    3ef0:	48 89 55 e8          	mov    QWORD PTR [rbp-0x18],rdx
    3ef4:	48 8b 7d f8          	mov    rdi,QWORD PTR [rbp-0x8]
    3ef8:	48 8b 75 f0          	mov    rsi,QWORD PTR [rbp-0x10]
    3efc:	48 8b 55 e8          	mov    rdx,QWORD PTR [rbp-0x18]
    3f00:	e8 3b 00 00 00       	call   3f40 <_ZSt14__copy_move_a2ILb0EPKcPcET1_T0_S4_S3_>
    3f05:	48 83 c4 20          	add    rsp,0x20
    3f09:	5d                   	pop    rbp
    3f0a:	c3                   	ret
    3f0b:	0f 1f 44 00 00       	nop    DWORD PTR [rax+rax*1+0x0]

0000000000003f10 <_ZSt12__niter_baseIPKcSt6vectorIcSaIcEEET_N9__gnu_cxx17__normal_iteratorIS5_T0_EE>:
    3f10:	55                   	push   rbp
    3f11:	48 89 e5             	mov    rbp,rsp
    3f14:	48 83 ec 10          	sub    rsp,0x10
    3f18:	48 89 7d f8          	mov    QWORD PTR [rbp-0x8],rdi
    3f1c:	48 8d 7d f8          	lea    rdi,[rbp-0x8]
    3f20:	e8 ab 00 00 00       	call   3fd0 <_ZNK9__gnu_cxx17__normal_iteratorIPKcSt6vectorIcSaIcEEE4baseEv>
    3f25:	48 8b 00             	mov    rax,QWORD PTR [rax]
    3f28:	48 83 c4 10          	add    rsp,0x10
    3f2c:	5d                   	pop    rbp
    3f2d:	c3                   	ret
    3f2e:	66 90                	xchg   ax,ax

0000000000003f30 <_ZSt12__niter_baseIPcET_S1_>:
    3f30:	55                   	push   rbp
    3f31:	48 89 e5             	mov    rbp,rsp
    3f34:	48 89 7d f8          	mov    QWORD PTR [rbp-0x8],rdi
    3f38:	48 8b 45 f8          	mov    rax,QWORD PTR [rbp-0x8]
    3f3c:	5d                   	pop    rbp
    3f3d:	c3                   	ret
    3f3e:	66 90                	xchg   ax,ax

0000000000003f40 <_ZSt14__copy_move_a2ILb0EPKcPcET1_T0_S4_S3_>:
    3f40:	55                   	push   rbp
    3f41:	48 89 e5             	mov    rbp,rsp
    3f44:	48 83 ec 20          	sub    rsp,0x20
    3f48:	48 89 7d f8          	mov    QWORD PTR [rbp-0x8],rdi
    3f4c:	48 89 75 f0          	mov    QWORD PTR [rbp-0x10],rsi
    3f50:	48 89 55 e8          	mov    QWORD PTR [rbp-0x18],rdx
    3f54:	48 8b 7d f8          	mov    rdi,QWORD PTR [rbp-0x8]
    3f58:	48 8b 75 f0          	mov    rsi,QWORD PTR [rbp-0x10]
    3f5c:	48 8b 55 e8          	mov    rdx,QWORD PTR [rbp-0x18]
    3f60:	e8 0b 00 00 00       	call   3f70 <_ZNSt11__copy_moveILb0ELb1ESt26random_access_iterator_tagE8__copy_mIcEEPT_PKS3_S6_S4_>
    3f65:	48 83 c4 20          	add    rsp,0x20
    3f69:	5d                   	pop    rbp
    3f6a:	c3                   	ret
    3f6b:	0f 1f 44 00 00       	nop    DWORD PTR [rax+rax*1+0x0]

0000000000003f70 <_ZNSt11__copy_moveILb0ELb1ESt26random_access_iterator_tagE8__copy_mIcEEPT_PKS3_S6_S4_>:
    3f70:	55                   	push   rbp
    3f71:	48 89 e5             	mov    rbp,rsp
    3f74:	48 83 ec 20          	sub    rsp,0x20
    3f78:	48 89 7d f8          	mov    QWORD PTR [rbp-0x8],rdi
    3f7c:	48 89 75 f0          	mov    QWORD PTR [rbp-0x10],rsi
    3f80:	48 89 55 e8          	mov    QWORD PTR [rbp-0x18],rdx
    3f84:	48 8b 45 f0          	mov    rax,QWORD PTR [rbp-0x10]
    3f88:	48 8b 4d f8          	mov    rcx,QWORD PTR [rbp-0x8]
    3f8c:	48 29 c8             	sub    rax,rcx
    3f8f:	48 89 45 e0          	mov    QWORD PTR [rbp-0x20],rax
    3f93:	48 83 7d e0 00       	cmp    QWORD PTR [rbp-0x20],0x0
    3f98:	0f 84 15 00 00 00    	je     3fb3 <_ZNSt11__copy_moveILb0ELb1ESt26random_access_iterator_tagE8__copy_mIcEEPT_PKS3_S6_S4_+0x43>
    3f9e:	48 8b 7d e8          	mov    rdi,QWORD PTR [rbp-0x18]
    3fa2:	48 8b 75 f8          	mov    rsi,QWORD PTR [rbp-0x8]
    3fa6:	48 8b 55 e0          	mov    rdx,QWORD PTR [rbp-0x20]
    3faa:	48 c1 e2 00          	shl    rdx,0x0
    3fae:	e8 ed e2 ff ff       	call   22a0 <memmove@plt>
    3fb3:	48 8b 45 e8          	mov    rax,QWORD PTR [rbp-0x18]
    3fb7:	48 03 45 e0          	add    rax,QWORD PTR [rbp-0x20]
    3fbb:	48 83 c4 20          	add    rsp,0x20
    3fbf:	5d                   	pop    rbp
    3fc0:	c3                   	ret
    3fc1:	66 2e 0f 1f 84 00 00 	cs nop WORD PTR [rax+rax*1+0x0]
    3fc8:	00 00 00 
    3fcb:	0f 1f 44 00 00       	nop    DWORD PTR [rax+rax*1+0x0]

0000000000003fd0 <_ZNK9__gnu_cxx17__normal_iteratorIPKcSt6vectorIcSaIcEEE4baseEv>:
    3fd0:	55                   	push   rbp
    3fd1:	48 89 e5             	mov    rbp,rsp
    3fd4:	48 89 7d f8          	mov    QWORD PTR [rbp-0x8],rdi
    3fd8:	48 8b 45 f8          	mov    rax,QWORD PTR [rbp-0x8]
    3fdc:	5d                   	pop    rbp
    3fdd:	c3                   	ret
    3fde:	66 90                	xchg   ax,ax

0000000000003fe0 <_ZN9__gnu_cxx17__normal_iteratorIPKcSt6vectorIcSaIcEEEC2ERKS2_>:
    3fe0:	55                   	push   rbp
    3fe1:	48 89 e5             	mov    rbp,rsp
    3fe4:	48 89 7d f8          	mov    QWORD PTR [rbp-0x8],rdi
    3fe8:	48 89 75 f0          	mov    QWORD PTR [rbp-0x10],rsi
    3fec:	48 8b 45 f8          	mov    rax,QWORD PTR [rbp-0x8]
    3ff0:	48 8b 4d f0          	mov    rcx,QWORD PTR [rbp-0x10]
    3ff4:	48 8b 09             	mov    rcx,QWORD PTR [rcx]
    3ff7:	48 89 08             	mov    QWORD PTR [rax],rcx
    3ffa:	5d                   	pop    rbp
    3ffb:	c3                   	ret
    3ffc:	0f 1f 40 00          	nop    DWORD PTR [rax+0x0]

0000000000004000 <_ZNSt12_Vector_baseIcSaIcEE13_M_deallocateEPcm>:
    4000:	55                   	push   rbp
    4001:	48 89 e5             	mov    rbp,rsp
    4004:	48 83 ec 20          	sub    rsp,0x20
    4008:	48 89 7d f8          	mov    QWORD PTR [rbp-0x8],rdi
    400c:	48 89 75 f0          	mov    QWORD PTR [rbp-0x10],rsi
    4010:	48 89 55 e8          	mov    QWORD PTR [rbp-0x18],rdx
    4014:	48 8b 45 f8          	mov    rax,QWORD PTR [rbp-0x8]
    4018:	48 89 45 e0          	mov    QWORD PTR [rbp-0x20],rax
    401c:	48 83 7d f0 00       	cmp    QWORD PTR [rbp-0x10],0x0
    4021:	0f 84 11 00 00 00    	je     4038 <_ZNSt12_Vector_baseIcSaIcEE13_M_deallocateEPcm+0x38>
    4027:	48 8b 7d e0          	mov    rdi,QWORD PTR [rbp-0x20]
    402b:	48 8b 75 f0          	mov    rsi,QWORD PTR [rbp-0x10]
    402f:	48 8b 55 e8          	mov    rdx,QWORD PTR [rbp-0x18]
    4033:	e8 08 00 00 00       	call   4040 <_ZNSt16allocator_traitsISaIcEE10deallocateERS0_Pcm>
    4038:	48 83 c4 20          	add    rsp,0x20
    403c:	5d                   	pop    rbp
    403d:	c3                   	ret
    403e:	66 90                	xchg   ax,ax

0000000000004040 <_ZNSt16allocator_traitsISaIcEE10deallocateERS0_Pcm>:
    4040:	55                   	push   rbp
    4041:	48 89 e5             	mov    rbp,rsp
    4044:	48 83 ec 20          	sub    rsp,0x20
    4048:	48 89 7d f8          	mov    QWORD PTR [rbp-0x8],rdi
    404c:	48 89 75 f0          	mov    QWORD PTR [rbp-0x10],rsi
    4050:	48 89 55 e8          	mov    QWORD PTR [rbp-0x18],rdx
    4054:	48 8b 7d f8          	mov    rdi,QWORD PTR [rbp-0x8]
    4058:	48 8b 75 f0          	mov    rsi,QWORD PTR [rbp-0x10]
    405c:	48 8b 55 e8          	mov    rdx,QWORD PTR [rbp-0x18]
    4060:	e8 0b 00 00 00       	call   4070 <_ZNSt15__new_allocatorIcE10deallocateEPcm>
    4065:	48 83 c4 20          	add    rsp,0x20
    4069:	5d                   	pop    rbp
    406a:	c3                   	ret
    406b:	0f 1f 44 00 00       	nop    DWORD PTR [rax+rax*1+0x0]

0000000000004070 <_ZNSt15__new_allocatorIcE10deallocateEPcm>:
    4070:	55                   	push   rbp
    4071:	48 89 e5             	mov    rbp,rsp
    4074:	48 83 ec 20          	sub    rsp,0x20
    4078:	48 89 7d f8          	mov    QWORD PTR [rbp-0x8],rdi
    407c:	48 89 75 f0          	mov    QWORD PTR [rbp-0x10],rsi
    4080:	48 89 55 e8          	mov    QWORD PTR [rbp-0x18],rdx
    4084:	48 8b 7d f0          	mov    rdi,QWORD PTR [rbp-0x10]
    4088:	e8 13 e1 ff ff       	call   21a0 <_ZdlPv@plt>
    408d:	48 83 c4 20          	add    rsp,0x20
    4091:	5d                   	pop    rbp
    4092:	c3                   	ret
    4093:	66 2e 0f 1f 84 00 00 	cs nop WORD PTR [rax+rax*1+0x0]
    409a:	00 00 00 
    409d:	0f 1f 00             	nop    DWORD PTR [rax]

00000000000040a0 <_ZNSt6vectorIcSaIcEEixEm>:
    40a0:	55                   	push   rbp
    40a1:	48 89 e5             	mov    rbp,rsp
    40a4:	48 89 7d f8          	mov    QWORD PTR [rbp-0x8],rdi
    40a8:	48 89 75 f0          	mov    QWORD PTR [rbp-0x10],rsi
    40ac:	48 8b 45 f8          	mov    rax,QWORD PTR [rbp-0x8]
    40b0:	48 8b 00             	mov    rax,QWORD PTR [rax]
    40b3:	48 03 45 f0          	add    rax,QWORD PTR [rbp-0x10]
    40b7:	5d                   	pop    rbp
    40b8:	c3                   	ret
    40b9:	0f 1f 80 00 00 00 00 	nop    DWORD PTR [rax+0x0]

00000000000040c0 <_ZN5lexer5Lexer15skip_whitespaceEv>:
    40c0:	55                   	push   rbp
    40c1:	48 89 e5             	mov    rbp,rsp
    40c4:	48 83 ec 20          	sub    rsp,0x20
    40c8:	48 89 7d f8          	mov    QWORD PTR [rbp-0x8],rdi
    40cc:	48 8b 45 f8          	mov    rax,QWORD PTR [rbp-0x8]
    40d0:	48 89 45 e8          	mov    QWORD PTR [rbp-0x18],rax
    40d4:	8a 40 28             	mov    al,BYTE PTR [rax+0x28]
    40d7:	88 45 f7             	mov    BYTE PTR [rbp-0x9],al
    40da:	0f be 45 f7          	movsx  eax,BYTE PTR [rbp-0x9]
    40de:	83 f8 20             	cmp    eax,0x20
    40e1:	0f 84 27 00 00 00    	je     410e <_ZN5lexer5Lexer15skip_whitespaceEv+0x4e>
    40e7:	0f be 45 f7          	movsx  eax,BYTE PTR [rbp-0x9]
    40eb:	83 f8 09             	cmp    eax,0x9
    40ee:	0f 84 1a 00 00 00    	je     410e <_ZN5lexer5Lexer15skip_whitespaceEv+0x4e>
    40f4:	0f be 45 f7          	movsx  eax,BYTE PTR [rbp-0x9]
    40f8:	83 f8 0a             	cmp    eax,0xa
    40fb:	0f 84 0d 00 00 00    	je     410e <_ZN5lexer5Lexer15skip_whitespaceEv+0x4e>
    4101:	0f be 45 f7          	movsx  eax,BYTE PTR [rbp-0x9]
    4105:	83 f8 0d             	cmp    eax,0xd
    4108:	0f 85 09 00 00 00    	jne    4117 <_ZN5lexer5Lexer15skip_whitespaceEv+0x57>
    410e:	48 8b 7d e8          	mov    rdi,QWORD PTR [rbp-0x18]
    4112:	e8 39 ee ff ff       	call   2f50 <_ZN5lexer5Lexer9read_charEv>
    4117:	48 83 c4 20          	add    rsp,0x20
    411b:	5d                   	pop    rbp
    411c:	c3                   	ret
    411d:	0f 1f 00             	nop    DWORD PTR [rax]

0000000000004120 <_ZN5lexer5Lexer9is_letterEc>:
    4120:	55                   	push   rbp
    4121:	48 89 e5             	mov    rbp,rsp
    4124:	40 88 f8             	mov    al,dil
    4127:	88 45 ff             	mov    BYTE PTR [rbp-0x1],al
    412a:	0f be 4d ff          	movsx  ecx,BYTE PTR [rbp-0x1]
    412e:	b8 61 00 00 00       	mov    eax,0x61
    4133:	39 c8                	cmp    eax,ecx
    4135:	0f 8f 12 00 00 00    	jg     414d <_ZN5lexer5Lexer9is_letterEc+0x2d>
    413b:	0f be 4d ff          	movsx  ecx,BYTE PTR [rbp-0x1]
    413f:	b0 01                	mov    al,0x1
    4141:	83 f9 7a             	cmp    ecx,0x7a
    4144:	88 45 fe             	mov    BYTE PTR [rbp-0x2],al
    4147:	0f 8e 30 00 00 00    	jle    417d <_ZN5lexer5Lexer9is_letterEc+0x5d>
    414d:	0f be 4d ff          	movsx  ecx,BYTE PTR [rbp-0x1]
    4151:	b8 41 00 00 00       	mov    eax,0x41
    4156:	39 c8                	cmp    eax,ecx
    4158:	0f 8f 12 00 00 00    	jg     4170 <_ZN5lexer5Lexer9is_letterEc+0x50>
    415e:	0f be 4d ff          	movsx  ecx,BYTE PTR [rbp-0x1]
    4162:	b0 01                	mov    al,0x1
    4164:	83 f9 5a             	cmp    ecx,0x5a
    4167:	88 45 fe             	mov    BYTE PTR [rbp-0x2],al
    416a:	0f 8e 0d 00 00 00    	jle    417d <_ZN5lexer5Lexer9is_letterEc+0x5d>
    4170:	0f be 45 ff          	movsx  eax,BYTE PTR [rbp-0x1]
    4174:	83 f8 5f             	cmp    eax,0x5f
    4177:	0f 94 c0             	sete   al
    417a:	88 45 fe             	mov    BYTE PTR [rbp-0x2],al
    417d:	8a 45 fe             	mov    al,BYTE PTR [rbp-0x2]
    4180:	24 01                	and    al,0x1
    4182:	0f b6 c0             	movzx  eax,al
    4185:	5d                   	pop    rbp
    4186:	c3                   	ret
    4187:	66 0f 1f 84 00 00 00 	nop    WORD PTR [rax+rax*1+0x0]
    418e:	00 00 

0000000000004190 <_ZZN5lexer5Lexer10next_tokenEvENKUlvE_clEv>:
    4190:	55                   	push   rbp
    4191:	48 89 e5             	mov    rbp,rsp
    4194:	48 81 ec 80 00 00 00 	sub    rsp,0x80
    419b:	48 89 7d 98          	mov    QWORD PTR [rbp-0x68],rdi
    419f:	48 89 f8             	mov    rax,rdi
    41a2:	48 89 45 a0          	mov    QWORD PTR [rbp-0x60],rax
    41a6:	48 89 7d f8          	mov    QWORD PTR [rbp-0x8],rdi
    41aa:	48 89 75 f0          	mov    QWORD PTR [rbp-0x10],rsi
    41ae:	48 8b 45 f0          	mov    rax,QWORD PTR [rbp-0x10]
    41b2:	48 8b 00             	mov    rax,QWORD PTR [rax]
    41b5:	48 89 45 a8          	mov    QWORD PTR [rbp-0x58],rax
    41b9:	48 8b 40 18          	mov    rax,QWORD PTR [rax+0x18]
    41bd:	48 89 45 e8          	mov    QWORD PTR [rbp-0x18],rax
    41c1:	48 8b 7d a8          	mov    rdi,QWORD PTR [rbp-0x58]
    41c5:	48 8b 47 18          	mov    rax,QWORD PTR [rdi+0x18]
    41c9:	48 89 45 88          	mov    QWORD PTR [rbp-0x78],rax
    41cd:	e8 be f7 ff ff       	call   3990 <_ZNKSt6vectorIcSaIcEE4sizeEv>
    41d2:	48 8b 4d 88          	mov    rcx,QWORD PTR [rbp-0x78]
    41d6:	48 89 c2             	mov    rdx,rax
    41d9:	31 c0                	xor    eax,eax
    41db:	48 39 d1             	cmp    rcx,rdx
    41de:	88 45 97             	mov    BYTE PTR [rbp-0x69],al
    41e1:	0f 83 10 00 00 00    	jae    41f7 <_ZZN5lexer5Lexer10next_tokenEvENKUlvE_clEv+0x67>
    41e7:	48 8b 45 a8          	mov    rax,QWORD PTR [rbp-0x58]
    41eb:	0f be 78 28          	movsx  edi,BYTE PTR [rax+0x28]
    41ef:	e8 2c ff ff ff       	call   4120 <_ZN5lexer5Lexer9is_letterEc>
    41f4:	88 45 97             	mov    BYTE PTR [rbp-0x69],al
    41f7:	8a 45 97             	mov    al,BYTE PTR [rbp-0x69]
    41fa:	a8 01                	test   al,0x1
    41fc:	0f 85 05 00 00 00    	jne    4207 <_ZZN5lexer5Lexer10next_tokenEvENKUlvE_clEv+0x77>
    4202:	e9 0e 00 00 00       	jmp    4215 <_ZZN5lexer5Lexer10next_tokenEvENKUlvE_clEv+0x85>
    4207:	48 8b 7d a8          	mov    rdi,QWORD PTR [rbp-0x58]
    420b:	e8 40 ed ff ff       	call   2f50 <_ZN5lexer5Lexer9read_charEv>
    4210:	e9 ac ff ff ff       	jmp    41c1 <_ZZN5lexer5Lexer10next_tokenEvENKUlvE_clEv+0x31>
    4215:	48 8b 7d a8          	mov    rdi,QWORD PTR [rbp-0x58]
    4219:	e8 72 03 00 00       	call   4590 <_ZNSt6vectorIcSaIcEE5beginEv>
    421e:	48 89 45 d8          	mov    QWORD PTR [rbp-0x28],rax
    4222:	48 8b 75 e8          	mov    rsi,QWORD PTR [rbp-0x18]
    4226:	48 8d 7d d8          	lea    rdi,[rbp-0x28]
    422a:	e8 91 03 00 00       	call   45c0 <_ZNK9__gnu_cxx17__normal_iteratorIPcSt6vectorIcSaIcEEEplEl>
    422f:	48 8b 7d a8          	mov    rdi,QWORD PTR [rbp-0x58]
    4233:	48 89 45 e0          	mov    QWORD PTR [rbp-0x20],rax
    4237:	e8 54 03 00 00       	call   4590 <_ZNSt6vectorIcSaIcEE5beginEv>
    423c:	48 89 c1             	mov    rcx,rax
    423f:	48 8b 45 a8          	mov    rax,QWORD PTR [rbp-0x58]
    4243:	48 89 4d c8          	mov    QWORD PTR [rbp-0x38],rcx
    4247:	48 8b 70 18          	mov    rsi,QWORD PTR [rax+0x18]
    424b:	48 8d 7d c8          	lea    rdi,[rbp-0x38]
    424f:	e8 6c 03 00 00       	call   45c0 <_ZNK9__gnu_cxx17__normal_iteratorIPcSt6vectorIcSaIcEEEplEl>
    4254:	48 89 45 d0          	mov    QWORD PTR [rbp-0x30],rax
    4258:	48 8d 7d c0          	lea    rdi,[rbp-0x40]
    425c:	48 89 7d 80          	mov    QWORD PTR [rbp-0x80],rdi
    4260:	e8 8b e0 ff ff       	call   22f0 <_ZNSaIcEC1Ev@plt>
    4265:	48 8b 7d 98          	mov    rdi,QWORD PTR [rbp-0x68]
    4269:	48 8b 4d 80          	mov    rcx,QWORD PTR [rbp-0x80]
    426d:	48 8b 75 e0          	mov    rsi,QWORD PTR [rbp-0x20]
    4271:	48 8b 55 d0          	mov    rdx,QWORD PTR [rbp-0x30]
    4275:	e8 86 03 00 00       	call   4600 <_ZNSt6vectorIcSaIcEEC2IN9__gnu_cxx17__normal_iteratorIPcS1_EEvEET_S7_RKS0_>
    427a:	e9 00 00 00 00       	jmp    427f <_ZZN5lexer5Lexer10next_tokenEvENKUlvE_clEv+0xef>
    427f:	48 8d 7d c0          	lea    rdi,[rbp-0x40]
    4283:	e8 68 df ff ff       	call   21f0 <_ZNSaIcED1Ev@plt>
    4288:	48 8b 45 a0          	mov    rax,QWORD PTR [rbp-0x60]
    428c:	48 81 c4 80 00 00 00 	add    rsp,0x80
    4293:	5d                   	pop    rbp
    4294:	c3                   	ret
    4295:	48 89 c1             	mov    rcx,rax
    4298:	89 d0                	mov    eax,edx
    429a:	48 89 4d b8          	mov    QWORD PTR [rbp-0x48],rcx
    429e:	89 45 b4             	mov    DWORD PTR [rbp-0x4c],eax
    42a1:	48 8d 7d c0          	lea    rdi,[rbp-0x40]
    42a5:	e8 46 df ff ff       	call   21f0 <_ZNSaIcED1Ev@plt>
    42aa:	48 8b 7d b8          	mov    rdi,QWORD PTR [rbp-0x48]
    42ae:	e8 2d e0 ff ff       	call   22e0 <_Unwind_Resume@plt>
    42b3:	66 2e 0f 1f 84 00 00 	cs nop WORD PTR [rax+rax*1+0x0]
    42ba:	00 00 00 
    42bd:	0f 1f 00             	nop    DWORD PTR [rax]

00000000000042c0 <_Z17get_keyword_tokenRKSt6vectorIcSaIcEE>:
    42c0:	55                   	push   rbp
    42c1:	48 89 e5             	mov    rbp,rsp
    42c4:	48 81 ec 80 00 00 00 	sub    rsp,0x80
    42cb:	48 89 7d f8          	mov    QWORD PTR [rbp-0x8],rdi
    42cf:	48 8b 7d f8          	mov    rdi,QWORD PTR [rbp-0x8]
    42d3:	e8 b8 f7 ff ff       	call   3a90 <_ZNKSt6vectorIcSaIcEE5beginEv>
    42d8:	48 89 45 d0          	mov    QWORD PTR [rbp-0x30],rax
    42dc:	48 8b 7d f8          	mov    rdi,QWORD PTR [rbp-0x8]
    42e0:	e8 db f7 ff ff       	call   3ac0 <_ZNKSt6vectorIcSaIcEE3endEv>
    42e5:	48 89 45 c8          	mov    QWORD PTR [rbp-0x38],rax
    42e9:	48 8d 7d c0          	lea    rdi,[rbp-0x40]
    42ed:	48 89 7d 98          	mov    QWORD PTR [rbp-0x68],rdi
    42f1:	e8 fa df ff ff       	call   22f0 <_ZNSaIcEC1Ev@plt>
    42f6:	48 8b 4d 98          	mov    rcx,QWORD PTR [rbp-0x68]
    42fa:	48 8b 75 d0          	mov    rsi,QWORD PTR [rbp-0x30]
    42fe:	48 8b 55 c8          	mov    rdx,QWORD PTR [rbp-0x38]
    4302:	48 8d 7d d8          	lea    rdi,[rbp-0x28]
    4306:	e8 f5 08 00 00       	call   4c00 <_ZNSt7__cxx1112basic_stringIcSt11char_traitsIcESaIcEEC2IN9__gnu_cxx17__normal_iteratorIPKcSt6vectorIcS3_EEEvEET_SD_RKS3_>
    430b:	e9 00 00 00 00       	jmp    4310 <_Z17get_keyword_tokenRKSt6vectorIcSaIcEE+0x50>
    4310:	48 8d 7d c0          	lea    rdi,[rbp-0x40]
    4314:	e8 d7 de ff ff       	call   21f0 <_ZNSaIcED1Ev@plt>
    4319:	48 8d 3d 90 7e 00 00 	lea    rdi,[rip+0x7e90]        # c1b0 <_ZL10keywordMapB5cxx11>
    4320:	48 8d 75 d8          	lea    rsi,[rbp-0x28]
    4324:	e8 77 09 00 00       	call   4ca0 <_ZNKSt13unordered_mapINSt7__cxx1112basic_stringIcSt11char_traitsIcESaIcEEE5TokenSt4hashIS5_ESt8equal_toIS5_ESaISt4pairIKS5_S6_EEE4findERSC_>
    4329:	48 89 45 90          	mov    QWORD PTR [rbp-0x70],rax
    432d:	e9 00 00 00 00       	jmp    4332 <_Z17get_keyword_tokenRKSt6vectorIcSaIcEE+0x72>
    4332:	48 8b 45 90          	mov    rax,QWORD PTR [rbp-0x70]
    4336:	48 89 45 a8          	mov    QWORD PTR [rbp-0x58],rax
    433a:	48 8d 3d 6f 7e 00 00 	lea    rdi,[rip+0x7e6f]        # c1b0 <_ZL10keywordMapB5cxx11>
    4341:	e8 ba 09 00 00       	call   4d00 <_ZNKSt13unordered_mapINSt7__cxx1112basic_stringIcSt11char_traitsIcESaIcEEE5TokenSt4hashIS5_ESt8equal_toIS5_ESaISt4pairIKS5_S6_EEE3endEv>
    4346:	48 89 45 a0          	mov    QWORD PTR [rbp-0x60],rax
    434a:	48 8d 7d a8          	lea    rdi,[rbp-0x58]
    434e:	48 8d 75 a0          	lea    rsi,[rbp-0x60]
    4352:	e8 79 09 00 00       	call   4cd0 <_ZNSt8__detailneERKNS_19_Node_iterator_baseISt4pairIKNSt7__cxx1112basic_stringIcSt11char_traitsIcESaIcEEE5TokenELb1EEESD_>
    4357:	a8 01                	test   al,0x1
    4359:	0f 85 05 00 00 00    	jne    4364 <_Z17get_keyword_tokenRKSt6vectorIcSaIcEE+0xa4>
    435f:	e9 4f 00 00 00       	jmp    43b3 <_Z17get_keyword_tokenRKSt6vectorIcSaIcEE+0xf3>
    4364:	48 8d 7d a8          	lea    rdi,[rbp-0x58]
    4368:	e8 c3 09 00 00       	call   4d30 <_ZNKSt8__detail20_Node_const_iteratorISt4pairIKNSt7__cxx1112basic_stringIcSt11char_traitsIcESaIcEEE5TokenELb0ELb1EEptEv>
    436d:	8b 40 20             	mov    eax,DWORD PTR [rax+0x20]
    4370:	89 45 8c             	mov    DWORD PTR [rbp-0x74],eax
    4373:	48 8d 7d d8          	lea    rdi,[rbp-0x28]
    4377:	e8 84 dd ff ff       	call   2100 <_ZNSt7__cxx1112basic_stringIcSt11char_traitsIcESaIcEED1Ev@plt>
    437c:	8b 45 8c             	mov    eax,DWORD PTR [rbp-0x74]
    437f:	48 81 c4 80 00 00 00 	add    rsp,0x80
    4386:	5d                   	pop    rbp
    4387:	c3                   	ret
    4388:	48 89 c1             	mov    rcx,rax
    438b:	89 d0                	mov    eax,edx
    438d:	48 89 4d b8          	mov    QWORD PTR [rbp-0x48],rcx
    4391:	89 45 b4             	mov    DWORD PTR [rbp-0x4c],eax
    4394:	48 8d 7d c0          	lea    rdi,[rbp-0x40]
    4398:	e8 53 de ff ff       	call   21f0 <_ZNSaIcED1Ev@plt>
    439d:	e9 70 00 00 00       	jmp    4412 <_Z17get_keyword_tokenRKSt6vectorIcSaIcEE+0x152>
    43a2:	48 89 c1             	mov    rcx,rax
    43a5:	89 d0                	mov    eax,edx
    43a7:	48 89 4d b8          	mov    QWORD PTR [rbp-0x48],rcx
    43ab:	89 45 b4             	mov    DWORD PTR [rbp-0x4c],eax
    43ae:	e9 56 00 00 00       	jmp    4409 <_Z17get_keyword_tokenRKSt6vectorIcSaIcEE+0x149>
    43b3:	bf 10 00 00 00       	mov    edi,0x10
    43b8:	e8 f3 dc ff ff       	call   20b0 <__cxa_allocate_exception@plt>
    43bd:	48 89 c7             	mov    rdi,rax
    43c0:	48 89 f8             	mov    rax,rdi
    43c3:	48 89 45 80          	mov    QWORD PTR [rbp-0x80],rax
    43c7:	48 8d 35 32 3e 00 00 	lea    rsi,[rip+0x3e32]        # 8200 <_IO_stdin_used+0x200>
    43ce:	e8 3d df ff ff       	call   2310 <_ZNSt16invalid_argumentC1EPKc@plt>
    43d3:	e9 00 00 00 00       	jmp    43d8 <_Z17get_keyword_tokenRKSt6vectorIcSaIcEE+0x118>
    43d8:	48 8b 7d 80          	mov    rdi,QWORD PTR [rbp-0x80]
    43dc:	48 8b 35 e5 7b 00 00 	mov    rsi,QWORD PTR [rip+0x7be5]        # bfc8 <_ZTISt16invalid_argument@GLIBCXX_3.4>
    43e3:	48 8b 15 ce 7b 00 00 	mov    rdx,QWORD PTR [rip+0x7bce]        # bfb8 <_ZNSt16invalid_argumentD1Ev@GLIBCXX_3.4>
    43ea:	e8 d1 de ff ff       	call   22c0 <__cxa_throw@plt>
    43ef:	e9 27 00 00 00       	jmp    441b <_Z17get_keyword_tokenRKSt6vectorIcSaIcEE+0x15b>
    43f4:	48 8b 7d 80          	mov    rdi,QWORD PTR [rbp-0x80]
    43f8:	48 89 c1             	mov    rcx,rax
    43fb:	89 d0                	mov    eax,edx
    43fd:	48 89 4d b8          	mov    QWORD PTR [rbp-0x48],rcx
    4401:	89 45 b4             	mov    DWORD PTR [rbp-0x4c],eax
    4404:	e8 37 dd ff ff       	call   2140 <__cxa_free_exception@plt>
    4409:	48 8d 7d d8          	lea    rdi,[rbp-0x28]
    440d:	e8 ee dc ff ff       	call   2100 <_ZNSt7__cxx1112basic_stringIcSt11char_traitsIcESaIcEED1Ev@plt>
    4412:	48 8b 7d b8          	mov    rdi,QWORD PTR [rbp-0x48]
    4416:	e8 c5 de ff ff       	call   22e0 <_Unwind_Resume@plt>
    441b:	0f 1f 44 00 00       	nop    DWORD PTR [rax+rax*1+0x0]

0000000000004420 <_ZN5lexer5Lexer8is_digitEc>:
    4420:	55                   	push   rbp
    4421:	48 89 e5             	mov    rbp,rsp
    4424:	40 88 f8             	mov    al,dil
    4427:	88 45 ff             	mov    BYTE PTR [rbp-0x1],al
    442a:	0f be 55 ff          	movsx  edx,BYTE PTR [rbp-0x1]
    442e:	31 c0                	xor    eax,eax
    4430:	b9 30 00 00 00       	mov    ecx,0x30
    4435:	39 d1                	cmp    ecx,edx
    4437:	88 45 fe             	mov    BYTE PTR [rbp-0x2],al
    443a:	0f 8f 0d 00 00 00    	jg     444d <_ZN5lexer5Lexer8is_digitEc+0x2d>
    4440:	0f be 45 ff          	movsx  eax,BYTE PTR [rbp-0x1]
    4444:	83 f8 39             	cmp    eax,0x39
    4447:	0f 9e c0             	setle  al
    444a:	88 45 fe             	mov    BYTE PTR [rbp-0x2],al
    444d:	8a 45 fe             	mov    al,BYTE PTR [rbp-0x2]
    4450:	24 01                	and    al,0x1
    4452:	0f b6 c0             	movzx  eax,al
    4455:	5d                   	pop    rbp
    4456:	c3                   	ret
    4457:	66 0f 1f 84 00 00 00 	nop    WORD PTR [rax+rax*1+0x0]
    445e:	00 00 

0000000000004460 <_ZZN5lexer5Lexer10next_tokenEvENKUlvE0_clEv>:
    4460:	55                   	push   rbp
    4461:	48 89 e5             	mov    rbp,rsp
    4464:	48 81 ec 80 00 00 00 	sub    rsp,0x80
    446b:	48 89 7d 98          	mov    QWORD PTR [rbp-0x68],rdi
    446f:	48 89 f8             	mov    rax,rdi
    4472:	48 89 45 a0          	mov    QWORD PTR [rbp-0x60],rax
    4476:	48 89 7d f8          	mov    QWORD PTR [rbp-0x8],rdi
    447a:	48 89 75 f0          	mov    QWORD PTR [rbp-0x10],rsi
    447e:	48 8b 45 f0          	mov    rax,QWORD PTR [rbp-0x10]
    4482:	48 8b 00             	mov    rax,QWORD PTR [rax]
    4485:	48 89 45 a8          	mov    QWORD PTR [rbp-0x58],rax
    4489:	48 8b 40 18          	mov    rax,QWORD PTR [rax+0x18]
    448d:	48 89 45 e8          	mov    QWORD PTR [rbp-0x18],rax
    4491:	48 8b 7d a8          	mov    rdi,QWORD PTR [rbp-0x58]
    4495:	48 8b 47 18          	mov    rax,QWORD PTR [rdi+0x18]
    4499:	48 89 45 88          	mov    QWORD PTR [rbp-0x78],rax
    449d:	e8 ee f4 ff ff       	call   3990 <_ZNKSt6vectorIcSaIcEE4sizeEv>
    44a2:	48 8b 4d 88          	mov    rcx,QWORD PTR [rbp-0x78]
    44a6:	48 89 c2             	mov    rdx,rax
    44a9:	31 c0                	xor    eax,eax
    44ab:	48 39 d1             	cmp    rcx,rdx
    44ae:	88 45 97             	mov    BYTE PTR [rbp-0x69],al
    44b1:	0f 83 10 00 00 00    	jae    44c7 <_ZZN5lexer5Lexer10next_tokenEvENKUlvE0_clEv+0x67>
    44b7:	48 8b 45 a8          	mov    rax,QWORD PTR [rbp-0x58]
    44bb:	0f be 78 28          	movsx  edi,BYTE PTR [rax+0x28]
    44bf:	e8 5c ff ff ff       	call   4420 <_ZN5lexer5Lexer8is_digitEc>
    44c4:	88 45 97             	mov    BYTE PTR [rbp-0x69],al
    44c7:	8a 45 97             	mov    al,BYTE PTR [rbp-0x69]
    44ca:	a8 01                	test   al,0x1
    44cc:	0f 85 05 00 00 00    	jne    44d7 <_ZZN5lexer5Lexer10next_tokenEvENKUlvE0_clEv+0x77>
    44d2:	e9 0e 00 00 00       	jmp    44e5 <_ZZN5lexer5Lexer10next_tokenEvENKUlvE0_clEv+0x85>
    44d7:	48 8b 7d a8          	mov    rdi,QWORD PTR [rbp-0x58]
    44db:	e8 70 ea ff ff       	call   2f50 <_ZN5lexer5Lexer9read_charEv>
    44e0:	e9 ac ff ff ff       	jmp    4491 <_ZZN5lexer5Lexer10next_tokenEvENKUlvE0_clEv+0x31>
    44e5:	48 8b 7d a8          	mov    rdi,QWORD PTR [rbp-0x58]
    44e9:	e8 a2 00 00 00       	call   4590 <_ZNSt6vectorIcSaIcEE5beginEv>
    44ee:	48 89 45 d8          	mov    QWORD PTR [rbp-0x28],rax
    44f2:	48 8b 75 e8          	mov    rsi,QWORD PTR [rbp-0x18]
    44f6:	48 8d 7d d8          	lea    rdi,[rbp-0x28]
    44fa:	e8 c1 00 00 00       	call   45c0 <_ZNK9__gnu_cxx17__normal_iteratorIPcSt6vectorIcSaIcEEEplEl>
    44ff:	48 8b 7d a8          	mov    rdi,QWORD PTR [rbp-0x58]
    4503:	48 89 45 e0          	mov    QWORD PTR [rbp-0x20],rax
    4507:	e8 84 00 00 00       	call   4590 <_ZNSt6vectorIcSaIcEE5beginEv>
    450c:	48 89 c1             	mov    rcx,rax
    450f:	48 8b 45 a8          	mov    rax,QWORD PTR [rbp-0x58]
    4513:	48 89 4d c8          	mov    QWORD PTR [rbp-0x38],rcx
    4517:	48 8b 70 18          	mov    rsi,QWORD PTR [rax+0x18]
    451b:	48 8d 7d c8          	lea    rdi,[rbp-0x38]
    451f:	e8 9c 00 00 00       	call   45c0 <_ZNK9__gnu_cxx17__normal_iteratorIPcSt6vectorIcSaIcEEEplEl>
    4524:	48 89 45 d0          	mov    QWORD PTR [rbp-0x30],rax
    4528:	48 8d 7d c0          	lea    rdi,[rbp-0x40]
    452c:	48 89 7d 80          	mov    QWORD PTR [rbp-0x80],rdi
    4530:	e8 bb dd ff ff       	call   22f0 <_ZNSaIcEC1Ev@plt>
    4535:	48 8b 7d 98          	mov    rdi,QWORD PTR [rbp-0x68]
    4539:	48 8b 4d 80          	mov    rcx,QWORD PTR [rbp-0x80]
    453d:	48 8b 75 e0          	mov    rsi,QWORD PTR [rbp-0x20]
    4541:	48 8b 55 d0          	mov    rdx,QWORD PTR [rbp-0x30]
    4545:	e8 b6 00 00 00       	call   4600 <_ZNSt6vectorIcSaIcEEC2IN9__gnu_cxx17__normal_iteratorIPcS1_EEvEET_S7_RKS0_>
    454a:	e9 00 00 00 00       	jmp    454f <_ZZN5lexer5Lexer10next_tokenEvENKUlvE0_clEv+0xef>
    454f:	48 8d 7d c0          	lea    rdi,[rbp-0x40]
    4553:	e8 98 dc ff ff       	call   21f0 <_ZNSaIcED1Ev@plt>
    4558:	48 8b 45 a0          	mov    rax,QWORD PTR [rbp-0x60]
    455c:	48 81 c4 80 00 00 00 	add    rsp,0x80
    4563:	5d                   	pop    rbp
    4564:	c3                   	ret
    4565:	48 89 c1             	mov    rcx,rax
    4568:	89 d0                	mov    eax,edx
    456a:	48 89 4d b8          	mov    QWORD PTR [rbp-0x48],rcx
    456e:	89 45 b4             	mov    DWORD PTR [rbp-0x4c],eax
    4571:	48 8d 7d c0          	lea    rdi,[rbp-0x40]
    4575:	e8 76 dc ff ff       	call   21f0 <_ZNSaIcED1Ev@plt>
    457a:	48 8b 7d b8          	mov    rdi,QWORD PTR [rbp-0x48]
    457e:	e8 5d dd ff ff       	call   22e0 <_Unwind_Resume@plt>
    4583:	66 2e 0f 1f 84 00 00 	cs nop WORD PTR [rax+rax*1+0x0]
    458a:	00 00 00 
    458d:	0f 1f 00             	nop    DWORD PTR [rax]

0000000000004590 <_ZNSt6vectorIcSaIcEE5beginEv>:
    4590:	55                   	push   rbp
    4591:	48 89 e5             	mov    rbp,rsp
    4594:	48 83 ec 10          	sub    rsp,0x10
    4598:	48 89 7d f0          	mov    QWORD PTR [rbp-0x10],rdi
    459c:	48 8b 75 f0          	mov    rsi,QWORD PTR [rbp-0x10]
    45a0:	48 8d 7d f8          	lea    rdi,[rbp-0x8]
    45a4:	e8 e7 00 00 00       	call   4690 <_ZN9__gnu_cxx17__normal_iteratorIPcSt6vectorIcSaIcEEEC2ERKS1_>
    45a9:	48 8b 45 f8          	mov    rax,QWORD PTR [rbp-0x8]
    45ad:	48 83 c4 10          	add    rsp,0x10
    45b1:	5d                   	pop    rbp
    45b2:	c3                   	ret
    45b3:	66 2e 0f 1f 84 00 00 	cs nop WORD PTR [rax+rax*1+0x0]
    45ba:	00 00 00 
    45bd:	0f 1f 00             	nop    DWORD PTR [rax]

00000000000045c0 <_ZNK9__gnu_cxx17__normal_iteratorIPcSt6vectorIcSaIcEEEplEl>:
    45c0:	55                   	push   rbp
    45c1:	48 89 e5             	mov    rbp,rsp
    45c4:	48 83 ec 20          	sub    rsp,0x20
    45c8:	48 89 7d f0          	mov    QWORD PTR [rbp-0x10],rdi
    45cc:	48 89 75 e8          	mov    QWORD PTR [rbp-0x18],rsi
    45d0:	48 8b 45 f0          	mov    rax,QWORD PTR [rbp-0x10]
    45d4:	48 8b 00             	mov    rax,QWORD PTR [rax]
    45d7:	48 03 45 e8          	add    rax,QWORD PTR [rbp-0x18]
    45db:	48 89 45 e0          	mov    QWORD PTR [rbp-0x20],rax
    45df:	48 8d 7d f8          	lea    rdi,[rbp-0x8]
    45e3:	48 8d 75 e0          	lea    rsi,[rbp-0x20]
    45e7:	e8 a4 00 00 00       	call   4690 <_ZN9__gnu_cxx17__normal_iteratorIPcSt6vectorIcSaIcEEEC2ERKS1_>
    45ec:	48 8b 45 f8          	mov    rax,QWORD PTR [rbp-0x8]
    45f0:	48 83 c4 20          	add    rsp,0x20
    45f4:	5d                   	pop    rbp
    45f5:	c3                   	ret
    45f6:	66 2e 0f 1f 84 00 00 	cs nop WORD PTR [rax+rax*1+0x0]
    45fd:	00 00 00 

0000000000004600 <_ZNSt6vectorIcSaIcEEC2IN9__gnu_cxx17__normal_iteratorIPcS1_EEvEET_S7_RKS0_>:
    4600:	55                   	push   rbp
    4601:	48 89 e5             	mov    rbp,rsp
    4604:	48 83 ec 60          	sub    rsp,0x60
    4608:	48 89 75 f8          	mov    QWORD PTR [rbp-0x8],rsi
    460c:	48 89 55 f0          	mov    QWORD PTR [rbp-0x10],rdx
    4610:	48 89 7d e8          	mov    QWORD PTR [rbp-0x18],rdi
    4614:	48 89 4d e0          	mov    QWORD PTR [rbp-0x20],rcx
    4618:	48 8b 7d e8          	mov    rdi,QWORD PTR [rbp-0x18]
    461c:	48 89 7d a8          	mov    QWORD PTR [rbp-0x58],rdi
    4620:	48 8b 75 e0          	mov    rsi,QWORD PTR [rbp-0x20]
    4624:	e8 87 00 00 00       	call   46b0 <_ZNSt12_Vector_baseIcSaIcEEC2ERKS0_>
    4629:	48 8b 45 f8          	mov    rax,QWORD PTR [rbp-0x8]
    462d:	48 89 45 d8          	mov    QWORD PTR [rbp-0x28],rax
    4631:	48 8b 45 f0          	mov    rax,QWORD PTR [rbp-0x10]
    4635:	48 89 45 d0          	mov    QWORD PTR [rbp-0x30],rax
    4639:	48 8d 7d f8          	lea    rdi,[rbp-0x8]
    463d:	e8 5e 01 00 00       	call   47a0 <_ZSt19__iterator_categoryIN9__gnu_cxx17__normal_iteratorIPcSt6vectorIcSaIcEEEEENSt15iterator_traitsIT_E17iterator_categoryERKS8_>
    4642:	e9 00 00 00 00       	jmp    4647 <_ZNSt6vectorIcSaIcEEC2IN9__gnu_cxx17__normal_iteratorIPcS1_EEvEET_S7_RKS0_+0x47>
    4647:	48 8b 7d a8          	mov    rdi,QWORD PTR [rbp-0x58]
    464b:	48 8b 75 d8          	mov    rsi,QWORD PTR [rbp-0x28]
    464f:	48 8b 55 d0          	mov    rdx,QWORD PTR [rbp-0x30]
    4653:	e8 88 00 00 00       	call   46e0 <_ZNSt6vectorIcSaIcEE19_M_range_initializeIN9__gnu_cxx17__normal_iteratorIPcS1_EEEEvT_S7_St20forward_iterator_tag>
    4658:	e9 00 00 00 00       	jmp    465d <_ZNSt6vectorIcSaIcEEC2IN9__gnu_cxx17__normal_iteratorIPcS1_EEvEET_S7_RKS0_+0x5d>
    465d:	48 83 c4 60          	add    rsp,0x60
    4661:	5d                   	pop    rbp
    4662:	c3                   	ret
    4663:	48 8b 7d a8          	mov    rdi,QWORD PTR [rbp-0x58]
    4667:	48 89 c1             	mov    rcx,rax
    466a:	89 d0                	mov    eax,edx
    466c:	48 89 4d b8          	mov    QWORD PTR [rbp-0x48],rcx
    4670:	89 45 b4             	mov    DWORD PTR [rbp-0x4c],eax
    4673:	e8 88 f4 ff ff       	call   3b00 <_ZNSt12_Vector_baseIcSaIcEED2Ev>
    4678:	48 8b 7d b8          	mov    rdi,QWORD PTR [rbp-0x48]
    467c:	e8 5f dc ff ff       	call   22e0 <_Unwind_Resume@plt>
    4681:	66 2e 0f 1f 84 00 00 	cs nop WORD PTR [rax+rax*1+0x0]
    4688:	00 00 00 
    468b:	0f 1f 44 00 00       	nop    DWORD PTR [rax+rax*1+0x0]

0000000000004690 <_ZN9__gnu_cxx17__normal_iteratorIPcSt6vectorIcSaIcEEEC2ERKS1_>:
    4690:	55                   	push   rbp
    4691:	48 89 e5             	mov    rbp,rsp
    4694:	48 89 7d f8          	mov    QWORD PTR [rbp-0x8],rdi
    4698:	48 89 75 f0          	mov    QWORD PTR [rbp-0x10],rsi
    469c:	48 8b 45 f8          	mov    rax,QWORD PTR [rbp-0x8]
    46a0:	48 8b 4d f0          	mov    rcx,QWORD PTR [rbp-0x10]
    46a4:	48 8b 09             	mov    rcx,QWORD PTR [rcx]
    46a7:	48 89 08             	mov    QWORD PTR [rax],rcx
    46aa:	5d                   	pop    rbp
    46ab:	c3                   	ret
    46ac:	0f 1f 40 00          	nop    DWORD PTR [rax+0x0]

00000000000046b0 <_ZNSt12_Vector_baseIcSaIcEEC2ERKS0_>:
    46b0:	55                   	push   rbp
    46b1:	48 89 e5             	mov    rbp,rsp
    46b4:	48 83 ec 10          	sub    rsp,0x10
    46b8:	48 89 7d f8          	mov    QWORD PTR [rbp-0x8],rdi
    46bc:	48 89 75 f0          	mov    QWORD PTR [rbp-0x10],rsi
    46c0:	48 8b 7d f8          	mov    rdi,QWORD PTR [rbp-0x8]
    46c4:	48 8b 75 f0          	mov    rsi,QWORD PTR [rbp-0x10]
    46c8:	e8 a3 f4 ff ff       	call   3b70 <_ZNSt12_Vector_baseIcSaIcEE12_Vector_implC2ERKS0_>
    46cd:	48 83 c4 10          	add    rsp,0x10
    46d1:	5d                   	pop    rbp
    46d2:	c3                   	ret
    46d3:	66 2e 0f 1f 84 00 00 	cs nop WORD PTR [rax+rax*1+0x0]
    46da:	00 00 00 
    46dd:	0f 1f 00             	nop    DWORD PTR [rax]

00000000000046e0 <_ZNSt6vectorIcSaIcEE19_M_range_initializeIN9__gnu_cxx17__normal_iteratorIPcS1_EEEEvT_S7_St20forward_iterator_tag>:
    46e0:	55                   	push   rbp
    46e1:	48 89 e5             	mov    rbp,rsp
    46e4:	48 83 ec 60          	sub    rsp,0x60
    46e8:	48 89 75 f8          	mov    QWORD PTR [rbp-0x8],rsi
    46ec:	48 89 55 f0          	mov    QWORD PTR [rbp-0x10],rdx
    46f0:	48 89 7d e0          	mov    QWORD PTR [rbp-0x20],rdi
    46f4:	48 8b 45 e0          	mov    rax,QWORD PTR [rbp-0x20]
    46f8:	48 89 45 b0          	mov    QWORD PTR [rbp-0x50],rax
    46fc:	48 8b 45 f8          	mov    rax,QWORD PTR [rbp-0x8]
    4700:	48 89 45 d0          	mov    QWORD PTR [rbp-0x30],rax
    4704:	48 8b 45 f0          	mov    rax,QWORD PTR [rbp-0x10]
    4708:	48 89 45 c8          	mov    QWORD PTR [rbp-0x38],rax
    470c:	48 8b 7d d0          	mov    rdi,QWORD PTR [rbp-0x30]
    4710:	48 8b 75 c8          	mov    rsi,QWORD PTR [rbp-0x38]
    4714:	e8 97 00 00 00       	call   47b0 <_ZSt8distanceIN9__gnu_cxx17__normal_iteratorIPcSt6vectorIcSaIcEEEEENSt15iterator_traitsIT_E15difference_typeES8_S8_>
    4719:	48 8b 7d b0          	mov    rdi,QWORD PTR [rbp-0x50]
    471d:	48 89 45 d8          	mov    QWORD PTR [rbp-0x28],rax
    4721:	48 8b 45 d8          	mov    rax,QWORD PTR [rbp-0x28]
    4725:	48 89 45 a0          	mov    QWORD PTR [rbp-0x60],rax
    4729:	e8 c2 f3 ff ff       	call   3af0 <_ZNSt12_Vector_baseIcSaIcEE19_M_get_Tp_allocatorEv>
    472e:	48 8b 7d a0          	mov    rdi,QWORD PTR [rbp-0x60]
    4732:	48 89 c6             	mov    rsi,rax
    4735:	e8 b6 00 00 00       	call   47f0 <_ZNSt6vectorIcSaIcEE17_S_check_init_lenEmRKS0_>
    473a:	48 8b 7d b0          	mov    rdi,QWORD PTR [rbp-0x50]
    473e:	48 89 c6             	mov    rsi,rax
    4741:	e8 fa f4 ff ff       	call   3c40 <_ZNSt12_Vector_baseIcSaIcEE11_M_allocateEm>
    4746:	48 8b 7d b0          	mov    rdi,QWORD PTR [rbp-0x50]
    474a:	48 89 07             	mov    QWORD PTR [rdi],rax
    474d:	48 8b 07             	mov    rax,QWORD PTR [rdi]
    4750:	48 03 45 d8          	add    rax,QWORD PTR [rbp-0x28]
    4754:	48 89 47 10          	mov    QWORD PTR [rdi+0x10],rax
    4758:	48 8b 45 f8          	mov    rax,QWORD PTR [rbp-0x8]
    475c:	48 89 45 c0          	mov    QWORD PTR [rbp-0x40],rax
    4760:	48 8b 45 f0          	mov    rax,QWORD PTR [rbp-0x10]
    4764:	48 89 45 b8          	mov    QWORD PTR [rbp-0x48],rax
    4768:	48 8b 07             	mov    rax,QWORD PTR [rdi]
    476b:	48 89 45 a8          	mov    QWORD PTR [rbp-0x58],rax
    476f:	e8 7c f3 ff ff       	call   3af0 <_ZNSt12_Vector_baseIcSaIcEE19_M_get_Tp_allocatorEv>
    4774:	48 8b 55 a8          	mov    rdx,QWORD PTR [rbp-0x58]
    4778:	48 89 c1             	mov    rcx,rax
    477b:	48 8b 7d c0          	mov    rdi,QWORD PTR [rbp-0x40]
    477f:	48 8b 75 b8          	mov    rsi,QWORD PTR [rbp-0x48]
    4783:	e8 d8 00 00 00       	call   4860 <_ZSt22__uninitialized_copy_aIN9__gnu_cxx17__normal_iteratorIPcSt6vectorIcSaIcEEEES2_cET0_T_S8_S7_RSaIT1_E>
    4788:	48 89 c1             	mov    rcx,rax
    478b:	48 8b 45 b0          	mov    rax,QWORD PTR [rbp-0x50]
    478f:	48 89 48 08          	mov    QWORD PTR [rax+0x8],rcx
    4793:	48 83 c4 60          	add    rsp,0x60
    4797:	5d                   	pop    rbp
    4798:	c3                   	ret
    4799:	0f 1f 80 00 00 00 00 	nop    DWORD PTR [rax+0x0]

00000000000047a0 <_ZSt19__iterator_categoryIN9__gnu_cxx17__normal_iteratorIPcSt6vectorIcSaIcEEEEENSt15iterator_traitsIT_E17iterator_categoryERKS8_>:
    47a0:	55                   	push   rbp
    47a1:	48 89 e5             	mov    rbp,rsp
    47a4:	48 89 7d f8          	mov    QWORD PTR [rbp-0x8],rdi
    47a8:	5d                   	pop    rbp
    47a9:	c3                   	ret
    47aa:	66 0f 1f 44 00 00    	nop    WORD PTR [rax+rax*1+0x0]

00000000000047b0 <_ZSt8distanceIN9__gnu_cxx17__normal_iteratorIPcSt6vectorIcSaIcEEEEENSt15iterator_traitsIT_E15difference_typeES8_S8_>:
    47b0:	55                   	push   rbp
    47b1:	48 89 e5             	mov    rbp,rsp
    47b4:	48 83 ec 30          	sub    rsp,0x30
    47b8:	48 89 7d f8          	mov    QWORD PTR [rbp-0x8],rdi
    47bc:	48 89 75 f0          	mov    QWORD PTR [rbp-0x10],rsi
    47c0:	48 8b 45 f8          	mov    rax,QWORD PTR [rbp-0x8]
    47c4:	48 89 45 e8          	mov    QWORD PTR [rbp-0x18],rax
    47c8:	48 8b 45 f0          	mov    rax,QWORD PTR [rbp-0x10]
    47cc:	48 89 45 e0          	mov    QWORD PTR [rbp-0x20],rax
    47d0:	48 8d 7d f8          	lea    rdi,[rbp-0x8]
    47d4:	e8 c7 ff ff ff       	call   47a0 <_ZSt19__iterator_categoryIN9__gnu_cxx17__normal_iteratorIPcSt6vectorIcSaIcEEEEENSt15iterator_traitsIT_E17iterator_categoryERKS8_>
    47d9:	48 8b 7d e8          	mov    rdi,QWORD PTR [rbp-0x18]
    47dd:	48 8b 75 e0          	mov    rsi,QWORD PTR [rbp-0x20]
    47e1:	e8 ba 00 00 00       	call   48a0 <_ZSt10__distanceIN9__gnu_cxx17__normal_iteratorIPcSt6vectorIcSaIcEEEEENSt15iterator_traitsIT_E15difference_typeES8_S8_St26random_access_iterator_tag>
    47e6:	48 83 c4 30          	add    rsp,0x30
    47ea:	5d                   	pop    rbp
    47eb:	c3                   	ret
    47ec:	0f 1f 40 00          	nop    DWORD PTR [rax+0x0]

00000000000047f0 <_ZNSt6vectorIcSaIcEE17_S_check_init_lenEmRKS0_>:
    47f0:	55                   	push   rbp
    47f1:	48 89 e5             	mov    rbp,rsp
    47f4:	48 83 ec 30          	sub    rsp,0x30
    47f8:	48 89 7d f8          	mov    QWORD PTR [rbp-0x8],rdi
    47fc:	48 89 75 f0          	mov    QWORD PTR [rbp-0x10],rsi
    4800:	48 8b 45 f8          	mov    rax,QWORD PTR [rbp-0x8]
    4804:	48 89 45 e0          	mov    QWORD PTR [rbp-0x20],rax
    4808:	48 8b 75 f0          	mov    rsi,QWORD PTR [rbp-0x10]
    480c:	48 8d 7d e8          	lea    rdi,[rbp-0x18]
    4810:	e8 cb d8 ff ff       	call   20e0 <_ZNSaIcEC1ERKS_@plt>
    4815:	48 8d 7d e8          	lea    rdi,[rbp-0x18]
    4819:	e8 02 01 00 00       	call   4920 <_ZNSt6vectorIcSaIcEE11_S_max_sizeERKS0_>
    481e:	48 89 45 d8          	mov    QWORD PTR [rbp-0x28],rax
    4822:	48 8d 7d e8          	lea    rdi,[rbp-0x18]
    4826:	e8 c5 d9 ff ff       	call   21f0 <_ZNSaIcED1Ev@plt>
    482b:	48 8b 4d d8          	mov    rcx,QWORD PTR [rbp-0x28]
    482f:	48 8b 45 e0          	mov    rax,QWORD PTR [rbp-0x20]
    4833:	48 39 c8             	cmp    rax,rcx
    4836:	0f 86 0c 00 00 00    	jbe    4848 <_ZNSt6vectorIcSaIcEE17_S_check_init_lenEmRKS0_+0x58>
    483c:	48 8d 3d 8c 39 00 00 	lea    rdi,[rip+0x398c]        # 81cf <_IO_stdin_used+0x1cf>
    4843:	e8 78 d8 ff ff       	call   20c0 <_ZSt20__throw_length_errorPKc@plt>
    4848:	48 8b 45 f8          	mov    rax,QWORD PTR [rbp-0x8]
    484c:	48 83 c4 30          	add    rsp,0x30
    4850:	5d                   	pop    rbp
    4851:	c3                   	ret
    4852:	66 2e 0f 1f 84 00 00 	cs nop WORD PTR [rax+rax*1+0x0]
    4859:	00 00 00 
    485c:	0f 1f 40 00          	nop    DWORD PTR [rax+0x0]

0000000000004860 <_ZSt22__uninitialized_copy_aIN9__gnu_cxx17__normal_iteratorIPcSt6vectorIcSaIcEEEES2_cET0_T_S8_S7_RSaIT1_E>:
    4860:	55                   	push   rbp
    4861:	48 89 e5             	mov    rbp,rsp
    4864:	48 83 ec 30          	sub    rsp,0x30
    4868:	48 89 7d f8          	mov    QWORD PTR [rbp-0x8],rdi
    486c:	48 89 75 f0          	mov    QWORD PTR [rbp-0x10],rsi
    4870:	48 89 55 e8          	mov    QWORD PTR [rbp-0x18],rdx
    4874:	48 89 4d e0          	mov    QWORD PTR [rbp-0x20],rcx
    4878:	48 8b 45 f8          	mov    rax,QWORD PTR [rbp-0x8]
    487c:	48 89 45 d8          	mov    QWORD PTR [rbp-0x28],rax
    4880:	48 8b 45 f0          	mov    rax,QWORD PTR [rbp-0x10]
    4884:	48 89 45 d0          	mov    QWORD PTR [rbp-0x30],rax
    4888:	48 8b 55 e8          	mov    rdx,QWORD PTR [rbp-0x18]
    488c:	48 8b 7d d8          	mov    rdi,QWORD PTR [rbp-0x28]
    4890:	48 8b 75 d0          	mov    rsi,QWORD PTR [rbp-0x30]
    4894:	e8 67 01 00 00       	call   4a00 <_ZSt18uninitialized_copyIN9__gnu_cxx17__normal_iteratorIPcSt6vectorIcSaIcEEEES2_ET0_T_S8_S7_>
    4899:	48 83 c4 30          	add    rsp,0x30
    489d:	5d                   	pop    rbp
    489e:	c3                   	ret
    489f:	90                   	nop

00000000000048a0 <_ZSt10__distanceIN9__gnu_cxx17__normal_iteratorIPcSt6vectorIcSaIcEEEEENSt15iterator_traitsIT_E15difference_typeES8_S8_St26random_access_iterator_tag>:
    48a0:	55                   	push   rbp
    48a1:	48 89 e5             	mov    rbp,rsp
    48a4:	48 83 ec 20          	sub    rsp,0x20
    48a8:	48 89 7d f8          	mov    QWORD PTR [rbp-0x8],rdi
    48ac:	48 89 75 f0          	mov    QWORD PTR [rbp-0x10],rsi
    48b0:	48 8d 7d f0          	lea    rdi,[rbp-0x10]
    48b4:	48 8d 75 f8          	lea    rsi,[rbp-0x8]
    48b8:	e8 13 00 00 00       	call   48d0 <_ZN9__gnu_cxxmiIPcSt6vectorIcSaIcEEEENS_17__normal_iteratorIT_T0_E15difference_typeERKS8_SB_>
    48bd:	48 83 c4 20          	add    rsp,0x20
    48c1:	5d                   	pop    rbp
    48c2:	c3                   	ret
    48c3:	66 2e 0f 1f 84 00 00 	cs nop WORD PTR [rax+rax*1+0x0]
    48ca:	00 00 00 
    48cd:	0f 1f 00             	nop    DWORD PTR [rax]

00000000000048d0 <_ZN9__gnu_cxxmiIPcSt6vectorIcSaIcEEEENS_17__normal_iteratorIT_T0_E15difference_typeERKS8_SB_>:
    48d0:	55                   	push   rbp
    48d1:	48 89 e5             	mov    rbp,rsp
    48d4:	48 83 ec 20          	sub    rsp,0x20
    48d8:	48 89 7d f8          	mov    QWORD PTR [rbp-0x8],rdi
    48dc:	48 89 75 f0          	mov    QWORD PTR [rbp-0x10],rsi
    48e0:	48 8b 7d f8          	mov    rdi,QWORD PTR [rbp-0x8]
    48e4:	e8 27 00 00 00       	call   4910 <_ZNK9__gnu_cxx17__normal_iteratorIPcSt6vectorIcSaIcEEE4baseEv>
    48e9:	48 8b 00             	mov    rax,QWORD PTR [rax]
    48ec:	48 89 45 e8          	mov    QWORD PTR [rbp-0x18],rax
    48f0:	48 8b 7d f0          	mov    rdi,QWORD PTR [rbp-0x10]
    48f4:	e8 17 00 00 00       	call   4910 <_ZNK9__gnu_cxx17__normal_iteratorIPcSt6vectorIcSaIcEEE4baseEv>
    48f9:	48 89 c1             	mov    rcx,rax
    48fc:	48 8b 45 e8          	mov    rax,QWORD PTR [rbp-0x18]
    4900:	48 8b 09             	mov    rcx,QWORD PTR [rcx]
    4903:	48 29 c8             	sub    rax,rcx
    4906:	48 83 c4 20          	add    rsp,0x20
    490a:	5d                   	pop    rbp
    490b:	c3                   	ret
    490c:	0f 1f 40 00          	nop    DWORD PTR [rax+0x0]

0000000000004910 <_ZNK9__gnu_cxx17__normal_iteratorIPcSt6vectorIcSaIcEEE4baseEv>:
    4910:	55                   	push   rbp
    4911:	48 89 e5             	mov    rbp,rsp
    4914:	48 89 7d f8          	mov    QWORD PTR [rbp-0x8],rdi
    4918:	48 8b 45 f8          	mov    rax,QWORD PTR [rbp-0x8]
    491c:	5d                   	pop    rbp
    491d:	c3                   	ret
    491e:	66 90                	xchg   ax,ax

0000000000004920 <_ZNSt6vectorIcSaIcEE11_S_max_sizeERKS0_>:
    4920:	55                   	push   rbp
    4921:	48 89 e5             	mov    rbp,rsp
    4924:	48 83 ec 20          	sub    rsp,0x20
    4928:	48 89 7d f8          	mov    QWORD PTR [rbp-0x8],rdi
    492c:	48 b8 ff ff ff ff ff 	movabs rax,0x7fffffffffffffff
    4933:	ff ff 7f 
    4936:	48 89 45 f0          	mov    QWORD PTR [rbp-0x10],rax
    493a:	48 8b 7d f8          	mov    rdi,QWORD PTR [rbp-0x8]
    493e:	e8 3d 00 00 00       	call   4980 <_ZNSt16allocator_traitsISaIcEE8max_sizeERKS0_>
    4943:	48 89 45 e8          	mov    QWORD PTR [rbp-0x18],rax
    4947:	48 8d 7d f0          	lea    rdi,[rbp-0x10]
    494b:	48 8d 75 e8          	lea    rsi,[rbp-0x18]
    494f:	e8 4c 00 00 00       	call   49a0 <_ZSt3minImERKT_S2_S2_>
    4954:	48 89 45 e0          	mov    QWORD PTR [rbp-0x20],rax
    4958:	e9 00 00 00 00       	jmp    495d <_ZNSt6vectorIcSaIcEE11_S_max_sizeERKS0_+0x3d>
    495d:	48 8b 45 e0          	mov    rax,QWORD PTR [rbp-0x20]
    4961:	48 8b 00             	mov    rax,QWORD PTR [rax]
    4964:	48 83 c4 20          	add    rsp,0x20
    4968:	5d                   	pop    rbp
    4969:	c3                   	ret
    496a:	48 89 c7             	mov    rdi,rax
    496d:	e8 7e ea ff ff       	call   33f0 <__clang_call_terminate>
    4972:	66 2e 0f 1f 84 00 00 	cs nop WORD PTR [rax+rax*1+0x0]
    4979:	00 00 00 
    497c:	0f 1f 40 00          	nop    DWORD PTR [rax+0x0]

0000000000004980 <_ZNSt16allocator_traitsISaIcEE8max_sizeERKS0_>:
    4980:	55                   	push   rbp
    4981:	48 89 e5             	mov    rbp,rsp
    4984:	48 83 ec 10          	sub    rsp,0x10
    4988:	48 89 7d f8          	mov    QWORD PTR [rbp-0x8],rdi
    498c:	48 8b 7d f8          	mov    rdi,QWORD PTR [rbp-0x8]
    4990:	e8 4b 00 00 00       	call   49e0 <_ZNKSt15__new_allocatorIcE8max_sizeEv>
    4995:	48 83 c4 10          	add    rsp,0x10
    4999:	5d                   	pop    rbp
    499a:	c3                   	ret
    499b:	0f 1f 44 00 00       	nop    DWORD PTR [rax+rax*1+0x0]

00000000000049a0 <_ZSt3minImERKT_S2_S2_>:
    49a0:	55                   	push   rbp
    49a1:	48 89 e5             	mov    rbp,rsp
    49a4:	48 89 7d f0          	mov    QWORD PTR [rbp-0x10],rdi
    49a8:	48 89 75 e8          	mov    QWORD PTR [rbp-0x18],rsi
    49ac:	48 8b 45 e8          	mov    rax,QWORD PTR [rbp-0x18]
    49b0:	48 8b 00             	mov    rax,QWORD PTR [rax]
    49b3:	48 8b 4d f0          	mov    rcx,QWORD PTR [rbp-0x10]
    49b7:	48 3b 01             	cmp    rax,QWORD PTR [rcx]
    49ba:	0f 83 0d 00 00 00    	jae    49cd <_ZSt3minImERKT_S2_S2_+0x2d>
    49c0:	48 8b 45 e8          	mov    rax,QWORD PTR [rbp-0x18]
    49c4:	48 89 45 f8          	mov    QWORD PTR [rbp-0x8],rax
    49c8:	e9 08 00 00 00       	jmp    49d5 <_ZSt3minImERKT_S2_S2_+0x35>
    49cd:	48 8b 45 f0          	mov    rax,QWORD PTR [rbp-0x10]
    49d1:	48 89 45 f8          	mov    QWORD PTR [rbp-0x8],rax
    49d5:	48 8b 45 f8          	mov    rax,QWORD PTR [rbp-0x8]
    49d9:	5d                   	pop    rbp
    49da:	c3                   	ret
    49db:	0f 1f 44 00 00       	nop    DWORD PTR [rax+rax*1+0x0]

00000000000049e0 <_ZNKSt15__new_allocatorIcE8max_sizeEv>:
    49e0:	55                   	push   rbp
    49e1:	48 89 e5             	mov    rbp,rsp
    49e4:	48 83 ec 10          	sub    rsp,0x10
    49e8:	48 89 7d f8          	mov    QWORD PTR [rbp-0x8],rdi
    49ec:	48 8b 7d f8          	mov    rdi,QWORD PTR [rbp-0x8]
    49f0:	e8 2b f3 ff ff       	call   3d20 <_ZNKSt15__new_allocatorIcE11_M_max_sizeEv>
    49f5:	48 83 c4 10          	add    rsp,0x10
    49f9:	5d                   	pop    rbp
    49fa:	c3                   	ret
    49fb:	0f 1f 44 00 00       	nop    DWORD PTR [rax+rax*1+0x0]

0000000000004a00 <_ZSt18uninitialized_copyIN9__gnu_cxx17__normal_iteratorIPcSt6vectorIcSaIcEEEES2_ET0_T_S8_S7_>:
    4a00:	55                   	push   rbp
    4a01:	48 89 e5             	mov    rbp,rsp
    4a04:	48 83 ec 30          	sub    rsp,0x30
    4a08:	48 89 7d f8          	mov    QWORD PTR [rbp-0x8],rdi
    4a0c:	48 89 75 f0          	mov    QWORD PTR [rbp-0x10],rsi
    4a10:	48 89 55 e8          	mov    QWORD PTR [rbp-0x18],rdx
    4a14:	c6 45 e7 01          	mov    BYTE PTR [rbp-0x19],0x1
    4a18:	c6 45 e6 01          	mov    BYTE PTR [rbp-0x1a],0x1
    4a1c:	48 8b 45 f8          	mov    rax,QWORD PTR [rbp-0x8]
    4a20:	48 89 45 d8          	mov    QWORD PTR [rbp-0x28],rax
    4a24:	48 8b 45 f0          	mov    rax,QWORD PTR [rbp-0x10]
    4a28:	48 89 45 d0          	mov    QWORD PTR [rbp-0x30],rax
    4a2c:	48 8b 55 e8          	mov    rdx,QWORD PTR [rbp-0x18]
    4a30:	48 8b 7d d8          	mov    rdi,QWORD PTR [rbp-0x28]
    4a34:	48 8b 75 d0          	mov    rsi,QWORD PTR [rbp-0x30]
    4a38:	e8 13 00 00 00       	call   4a50 <_ZNSt20__uninitialized_copyILb1EE13__uninit_copyIN9__gnu_cxx17__normal_iteratorIPcSt6vectorIcSaIcEEEES4_EET0_T_SA_S9_>
    4a3d:	48 83 c4 30          	add    rsp,0x30
    4a41:	5d                   	pop    rbp
    4a42:	c3                   	ret
    4a43:	66 2e 0f 1f 84 00 00 	cs nop WORD PTR [rax+rax*1+0x0]
    4a4a:	00 00 00 
    4a4d:	0f 1f 00             	nop    DWORD PTR [rax]

0000000000004a50 <_ZNSt20__uninitialized_copyILb1EE13__uninit_copyIN9__gnu_cxx17__normal_iteratorIPcSt6vectorIcSaIcEEEES4_EET0_T_SA_S9_>:
    4a50:	55                   	push   rbp
    4a51:	48 89 e5             	mov    rbp,rsp
    4a54:	48 83 ec 30          	sub    rsp,0x30
    4a58:	48 89 7d f8          	mov    QWORD PTR [rbp-0x8],rdi
    4a5c:	48 89 75 f0          	mov    QWORD PTR [rbp-0x10],rsi
    4a60:	48 89 55 e8          	mov    QWORD PTR [rbp-0x18],rdx
    4a64:	48 8b 45 f8          	mov    rax,QWORD PTR [rbp-0x8]
    4a68:	48 89 45 e0          	mov    QWORD PTR [rbp-0x20],rax
    4a6c:	48 8b 45 f0          	mov    rax,QWORD PTR [rbp-0x10]
    4a70:	48 89 45 d8          	mov    QWORD PTR [rbp-0x28],rax
    4a74:	48 8b 55 e8          	mov    rdx,QWORD PTR [rbp-0x18]
    4a78:	48 8b 7d e0          	mov    rdi,QWORD PTR [rbp-0x20]
    4a7c:	48 8b 75 d8          	mov    rsi,QWORD PTR [rbp-0x28]
    4a80:	e8 0b 00 00 00       	call   4a90 <_ZSt4copyIN9__gnu_cxx17__normal_iteratorIPcSt6vectorIcSaIcEEEES2_ET0_T_S8_S7_>
    4a85:	48 83 c4 30          	add    rsp,0x30
    4a89:	5d                   	pop    rbp
    4a8a:	c3                   	ret
    4a8b:	0f 1f 44 00 00       	nop    DWORD PTR [rax+rax*1+0x0]

0000000000004a90 <_ZSt4copyIN9__gnu_cxx17__normal_iteratorIPcSt6vectorIcSaIcEEEES2_ET0_T_S8_S7_>:
    4a90:	55                   	push   rbp
    4a91:	48 89 e5             	mov    rbp,rsp
    4a94:	48 83 ec 40          	sub    rsp,0x40
    4a98:	48 89 7d f8          	mov    QWORD PTR [rbp-0x8],rdi
    4a9c:	48 89 75 f0          	mov    QWORD PTR [rbp-0x10],rsi
    4aa0:	48 89 55 e8          	mov    QWORD PTR [rbp-0x18],rdx
    4aa4:	48 8b 45 f8          	mov    rax,QWORD PTR [rbp-0x8]
    4aa8:	48 89 45 d8          	mov    QWORD PTR [rbp-0x28],rax
    4aac:	48 8b 7d d8          	mov    rdi,QWORD PTR [rbp-0x28]
    4ab0:	e8 ab 00 00 00       	call   4b60 <_ZSt12__miter_baseIN9__gnu_cxx17__normal_iteratorIPcSt6vectorIcSaIcEEEEET_S7_>
    4ab5:	48 89 45 e0          	mov    QWORD PTR [rbp-0x20],rax
    4ab9:	48 8b 45 f0          	mov    rax,QWORD PTR [rbp-0x10]
    4abd:	48 89 45 c8          	mov    QWORD PTR [rbp-0x38],rax
    4ac1:	48 8b 7d c8          	mov    rdi,QWORD PTR [rbp-0x38]
    4ac5:	e8 96 00 00 00       	call   4b60 <_ZSt12__miter_baseIN9__gnu_cxx17__normal_iteratorIPcSt6vectorIcSaIcEEEEET_S7_>
    4aca:	48 89 45 d0          	mov    QWORD PTR [rbp-0x30],rax
    4ace:	48 8b 55 e8          	mov    rdx,QWORD PTR [rbp-0x18]
    4ad2:	48 8b 7d e0          	mov    rdi,QWORD PTR [rbp-0x20]
    4ad6:	48 8b 75 d0          	mov    rsi,QWORD PTR [rbp-0x30]
    4ada:	e8 11 00 00 00       	call   4af0 <_ZSt13__copy_move_aILb0EN9__gnu_cxx17__normal_iteratorIPcSt6vectorIcSaIcEEEES2_ET1_T0_S8_S7_>
    4adf:	48 83 c4 40          	add    rsp,0x40
    4ae3:	5d                   	pop    rbp
    4ae4:	c3                   	ret
    4ae5:	66 2e 0f 1f 84 00 00 	cs nop WORD PTR [rax+rax*1+0x0]
    4aec:	00 00 00 
    4aef:	90                   	nop

0000000000004af0 <_ZSt13__copy_move_aILb0EN9__gnu_cxx17__normal_iteratorIPcSt6vectorIcSaIcEEEES2_ET1_T0_S8_S7_>:
    4af0:	55                   	push   rbp
    4af1:	48 89 e5             	mov    rbp,rsp
    4af4:	48 83 ec 40          	sub    rsp,0x40
    4af8:	48 89 7d f8          	mov    QWORD PTR [rbp-0x8],rdi
    4afc:	48 89 75 f0          	mov    QWORD PTR [rbp-0x10],rsi
    4b00:	48 89 55 e8          	mov    QWORD PTR [rbp-0x18],rdx
    4b04:	48 8b 45 f8          	mov    rax,QWORD PTR [rbp-0x8]
    4b08:	48 89 45 e0          	mov    QWORD PTR [rbp-0x20],rax
    4b0c:	48 8b 7d e0          	mov    rdi,QWORD PTR [rbp-0x20]
    4b10:	e8 9b 00 00 00       	call   4bb0 <_ZSt12__niter_baseIPcSt6vectorIcSaIcEEET_N9__gnu_cxx17__normal_iteratorIS4_T0_EE>
    4b15:	48 89 45 c8          	mov    QWORD PTR [rbp-0x38],rax
    4b19:	48 8b 45 f0          	mov    rax,QWORD PTR [rbp-0x10]
    4b1d:	48 89 45 d8          	mov    QWORD PTR [rbp-0x28],rax
    4b21:	48 8b 7d d8          	mov    rdi,QWORD PTR [rbp-0x28]
    4b25:	e8 86 00 00 00       	call   4bb0 <_ZSt12__niter_baseIPcSt6vectorIcSaIcEEET_N9__gnu_cxx17__normal_iteratorIS4_T0_EE>
    4b2a:	48 89 45 d0          	mov    QWORD PTR [rbp-0x30],rax
    4b2e:	48 8b 7d e8          	mov    rdi,QWORD PTR [rbp-0x18]
    4b32:	e8 f9 f3 ff ff       	call   3f30 <_ZSt12__niter_baseIPcET_S1_>
    4b37:	48 8b 7d c8          	mov    rdi,QWORD PTR [rbp-0x38]
    4b3b:	48 8b 75 d0          	mov    rsi,QWORD PTR [rbp-0x30]
    4b3f:	48 89 c2             	mov    rdx,rax
    4b42:	e8 39 00 00 00       	call   4b80 <_ZSt14__copy_move_a1ILb0EPcS0_ET1_T0_S2_S1_>
    4b47:	48 89 c6             	mov    rsi,rax
    4b4a:	48 8d 7d e8          	lea    rdi,[rbp-0x18]
    4b4e:	e8 6d f3 ff ff       	call   3ec0 <_ZSt12__niter_wrapIPcET_RKS1_S1_>
    4b53:	48 83 c4 40          	add    rsp,0x40
    4b57:	5d                   	pop    rbp
    4b58:	c3                   	ret
    4b59:	0f 1f 80 00 00 00 00 	nop    DWORD PTR [rax+0x0]

0000000000004b60 <_ZSt12__miter_baseIN9__gnu_cxx17__normal_iteratorIPcSt6vectorIcSaIcEEEEET_S7_>:
    4b60:	55                   	push   rbp
    4b61:	48 89 e5             	mov    rbp,rsp
    4b64:	48 89 7d f0          	mov    QWORD PTR [rbp-0x10],rdi
    4b68:	48 8b 45 f0          	mov    rax,QWORD PTR [rbp-0x10]
    4b6c:	48 89 45 f8          	mov    QWORD PTR [rbp-0x8],rax
    4b70:	48 8b 45 f8          	mov    rax,QWORD PTR [rbp-0x8]
    4b74:	5d                   	pop    rbp
    4b75:	c3                   	ret
    4b76:	66 2e 0f 1f 84 00 00 	cs nop WORD PTR [rax+rax*1+0x0]
    4b7d:	00 00 00 

0000000000004b80 <_ZSt14__copy_move_a1ILb0EPcS0_ET1_T0_S2_S1_>:
    4b80:	55                   	push   rbp
    4b81:	48 89 e5             	mov    rbp,rsp
    4b84:	48 83 ec 20          	sub    rsp,0x20
    4b88:	48 89 7d f8          	mov    QWORD PTR [rbp-0x8],rdi
    4b8c:	48 89 75 f0          	mov    QWORD PTR [rbp-0x10],rsi
    4b90:	48 89 55 e8          	mov    QWORD PTR [rbp-0x18],rdx
    4b94:	48 8b 7d f8          	mov    rdi,QWORD PTR [rbp-0x8]
    4b98:	48 8b 75 f0          	mov    rsi,QWORD PTR [rbp-0x10]
    4b9c:	48 8b 55 e8          	mov    rdx,QWORD PTR [rbp-0x18]
    4ba0:	e8 2b 00 00 00       	call   4bd0 <_ZSt14__copy_move_a2ILb0EPcS0_ET1_T0_S2_S1_>
    4ba5:	48 83 c4 20          	add    rsp,0x20
    4ba9:	5d                   	pop    rbp
    4baa:	c3                   	ret
    4bab:	0f 1f 44 00 00       	nop    DWORD PTR [rax+rax*1+0x0]

0000000000004bb0 <_ZSt12__niter_baseIPcSt6vectorIcSaIcEEET_N9__gnu_cxx17__normal_iteratorIS4_T0_EE>:
    4bb0:	55                   	push   rbp
    4bb1:	48 89 e5             	mov    rbp,rsp
    4bb4:	48 83 ec 10          	sub    rsp,0x10
    4bb8:	48 89 7d f8          	mov    QWORD PTR [rbp-0x8],rdi
    4bbc:	48 8d 7d f8          	lea    rdi,[rbp-0x8]
    4bc0:	e8 4b fd ff ff       	call   4910 <_ZNK9__gnu_cxx17__normal_iteratorIPcSt6vectorIcSaIcEEE4baseEv>
    4bc5:	48 8b 00             	mov    rax,QWORD PTR [rax]
    4bc8:	48 83 c4 10          	add    rsp,0x10
    4bcc:	5d                   	pop    rbp
    4bcd:	c3                   	ret
    4bce:	66 90                	xchg   ax,ax

0000000000004bd0 <_ZSt14__copy_move_a2ILb0EPcS0_ET1_T0_S2_S1_>:
    4bd0:	55                   	push   rbp
    4bd1:	48 89 e5             	mov    rbp,rsp
    4bd4:	48 83 ec 20          	sub    rsp,0x20
    4bd8:	48 89 7d f8          	mov    QWORD PTR [rbp-0x8],rdi
    4bdc:	48 89 75 f0          	mov    QWORD PTR [rbp-0x10],rsi
    4be0:	48 89 55 e8          	mov    QWORD PTR [rbp-0x18],rdx
    4be4:	48 8b 7d f8          	mov    rdi,QWORD PTR [rbp-0x8]
    4be8:	48 8b 75 f0          	mov    rsi,QWORD PTR [rbp-0x10]
    4bec:	48 8b 55 e8          	mov    rdx,QWORD PTR [rbp-0x18]
    4bf0:	e8 7b f3 ff ff       	call   3f70 <_ZNSt11__copy_moveILb0ELb1ESt26random_access_iterator_tagE8__copy_mIcEEPT_PKS3_S6_S4_>
    4bf5:	48 83 c4 20          	add    rsp,0x20
    4bf9:	5d                   	pop    rbp
    4bfa:	c3                   	ret
    4bfb:	0f 1f 44 00 00       	nop    DWORD PTR [rax+rax*1+0x0]

0000000000004c00 <_ZNSt7__cxx1112basic_stringIcSt11char_traitsIcESaIcEEC2IN9__gnu_cxx17__normal_iteratorIPKcSt6vectorIcS3_EEEvEET_SD_RKS3_>:
    4c00:	55                   	push   rbp
    4c01:	48 89 e5             	mov    rbp,rsp
    4c04:	48 83 ec 60          	sub    rsp,0x60
    4c08:	48 89 75 f8          	mov    QWORD PTR [rbp-0x8],rsi
    4c0c:	48 89 55 f0          	mov    QWORD PTR [rbp-0x10],rdx
    4c10:	48 89 7d e8          	mov    QWORD PTR [rbp-0x18],rdi
    4c14:	48 89 4d e0          	mov    QWORD PTR [rbp-0x20],rcx
    4c18:	48 8b 7d e8          	mov    rdi,QWORD PTR [rbp-0x18]
    4c1c:	48 89 7d a8          	mov    QWORD PTR [rbp-0x58],rdi
    4c20:	48 89 f8             	mov    rax,rdi
    4c23:	48 89 45 a0          	mov    QWORD PTR [rbp-0x60],rax
    4c27:	e8 34 d5 ff ff       	call   2160 <_ZNSt7__cxx1112basic_stringIcSt11char_traitsIcESaIcEE13_M_local_dataEv@plt>
    4c2c:	48 8b 7d a8          	mov    rdi,QWORD PTR [rbp-0x58]
    4c30:	48 89 c6             	mov    rsi,rax
    4c33:	48 8b 55 e0          	mov    rdx,QWORD PTR [rbp-0x20]
    4c37:	e8 a4 d5 ff ff       	call   21e0 <_ZNSt7__cxx1112basic_stringIcSt11char_traitsIcESaIcEE12_Alloc_hiderC1EPcRKS3_@plt>
    4c3c:	48 8b 45 a8          	mov    rax,QWORD PTR [rbp-0x58]
    4c40:	48 c7 40 08 00 00 00 	mov    QWORD PTR [rax+0x8],0x0
    4c47:	00 
    4c48:	48 8b 45 f8          	mov    rax,QWORD PTR [rbp-0x8]
    4c4c:	48 89 45 d8          	mov    QWORD PTR [rbp-0x28],rax
    4c50:	48 8b 45 f0          	mov    rax,QWORD PTR [rbp-0x10]
    4c54:	48 89 45 d0          	mov    QWORD PTR [rbp-0x30],rax
    4c58:	48 8d 7d f8          	lea    rdi,[rbp-0x8]
    4c5c:	e8 2f 02 00 00       	call   4e90 <_ZSt19__iterator_categoryIN9__gnu_cxx17__normal_iteratorIPKcSt6vectorIcSaIcEEEEENSt15iterator_traitsIT_E17iterator_categoryERKS9_>
    4c61:	e9 00 00 00 00       	jmp    4c66 <_ZNSt7__cxx1112basic_stringIcSt11char_traitsIcESaIcEEC2IN9__gnu_cxx17__normal_iteratorIPKcSt6vectorIcS3_EEEvEET_SD_RKS3_+0x66>
    4c66:	48 8b 7d a0          	mov    rdi,QWORD PTR [rbp-0x60]
    4c6a:	48 8b 75 d8          	mov    rsi,QWORD PTR [rbp-0x28]
    4c6e:	48 8b 55 d0          	mov    rdx,QWORD PTR [rbp-0x30]
    4c72:	e8 e9 00 00 00       	call   4d60 <_ZNSt7__cxx1112basic_stringIcSt11char_traitsIcESaIcEE12_M_constructIN9__gnu_cxx17__normal_iteratorIPKcSt6vectorIcS3_EEEEEvT_SD_St20forward_iterator_tag>
    4c77:	e9 00 00 00 00       	jmp    4c7c <_ZNSt7__cxx1112basic_stringIcSt11char_traitsIcESaIcEEC2IN9__gnu_cxx17__normal_iteratorIPKcSt6vectorIcS3_EEEvEET_SD_RKS3_+0x7c>
    4c7c:	48 83 c4 60          	add    rsp,0x60
    4c80:	5d                   	pop    rbp
    4c81:	c3                   	ret
    4c82:	48 8b 7d a8          	mov    rdi,QWORD PTR [rbp-0x58]
    4c86:	48 89 c1             	mov    rcx,rax
    4c89:	89 d0                	mov    eax,edx
    4c8b:	48 89 4d b8          	mov    QWORD PTR [rbp-0x48],rcx
    4c8f:	89 45 b4             	mov    DWORD PTR [rbp-0x4c],eax
    4c92:	e8 09 02 00 00       	call   4ea0 <_ZNSt7__cxx1112basic_stringIcSt11char_traitsIcESaIcEE12_Alloc_hiderD2Ev>
    4c97:	48 8b 7d b8          	mov    rdi,QWORD PTR [rbp-0x48]
    4c9b:	e8 40 d6 ff ff       	call   22e0 <_Unwind_Resume@plt>

0000000000004ca0 <_ZNKSt13unordered_mapINSt7__cxx1112basic_stringIcSt11char_traitsIcESaIcEEE5TokenSt4hashIS5_ESt8equal_toIS5_ESaISt4pairIKS5_S6_EEE4findERSC_>:
    4ca0:	55                   	push   rbp
    4ca1:	48 89 e5             	mov    rbp,rsp
    4ca4:	48 83 ec 20          	sub    rsp,0x20
    4ca8:	48 89 7d f0          	mov    QWORD PTR [rbp-0x10],rdi
    4cac:	48 89 75 e8          	mov    QWORD PTR [rbp-0x18],rsi
    4cb0:	48 8b 7d f0          	mov    rdi,QWORD PTR [rbp-0x10]
    4cb4:	48 8b 75 e8          	mov    rsi,QWORD PTR [rbp-0x18]
    4cb8:	e8 43 04 00 00       	call   5100 <_ZNKSt10_HashtableINSt7__cxx1112basic_stringIcSt11char_traitsIcESaIcEEESt4pairIKS5_5TokenESaIS9_ENSt8__detail10_Select1stESt8equal_toIS5_ESt4hashIS5_ENSB_18_Mod_range_hashingENSB_20_Default_ranged_hashENSB_20_Prime_rehash_policyENSB_17_Hashtable_traitsILb1ELb0ELb1EEEE4findERS7_>
    4cbd:	48 89 45 f8          	mov    QWORD PTR [rbp-0x8],rax
    4cc1:	48 8b 45 f8          	mov    rax,QWORD PTR [rbp-0x8]
    4cc5:	48 83 c4 20          	add    rsp,0x20
    4cc9:	5d                   	pop    rbp
    4cca:	c3                   	ret
    4ccb:	0f 1f 44 00 00       	nop    DWORD PTR [rax+rax*1+0x0]

0000000000004cd0 <_ZNSt8__detailneERKNS_19_Node_iterator_baseISt4pairIKNSt7__cxx1112basic_stringIcSt11char_traitsIcESaIcEEE5TokenELb1EEESD_>:
    4cd0:	55                   	push   rbp
    4cd1:	48 89 e5             	mov    rbp,rsp
    4cd4:	48 89 7d f8          	mov    QWORD PTR [rbp-0x8],rdi
    4cd8:	48 89 75 f0          	mov    QWORD PTR [rbp-0x10],rsi
    4cdc:	48 8b 45 f8          	mov    rax,QWORD PTR [rbp-0x8]
    4ce0:	48 8b 00             	mov    rax,QWORD PTR [rax]
    4ce3:	48 8b 4d f0          	mov    rcx,QWORD PTR [rbp-0x10]
    4ce7:	48 3b 01             	cmp    rax,QWORD PTR [rcx]
    4cea:	0f 95 c0             	setne  al
    4ced:	24 01                	and    al,0x1
    4cef:	0f b6 c0             	movzx  eax,al
    4cf2:	5d                   	pop    rbp
    4cf3:	c3                   	ret
    4cf4:	66 2e 0f 1f 84 00 00 	cs nop WORD PTR [rax+rax*1+0x0]
    4cfb:	00 00 00 
    4cfe:	66 90                	xchg   ax,ax

0000000000004d00 <_ZNKSt13unordered_mapINSt7__cxx1112basic_stringIcSt11char_traitsIcESaIcEEE5TokenSt4hashIS5_ESt8equal_toIS5_ESaISt4pairIKS5_S6_EEE3endEv>:
    4d00:	55                   	push   rbp
    4d01:	48 89 e5             	mov    rbp,rsp
    4d04:	48 83 ec 10          	sub    rsp,0x10
    4d08:	48 89 7d f0          	mov    QWORD PTR [rbp-0x10],rdi
    4d0c:	48 8b 7d f0          	mov    rdi,QWORD PTR [rbp-0x10]
    4d10:	e8 5b 05 00 00       	call   5270 <_ZNKSt10_HashtableINSt7__cxx1112basic_stringIcSt11char_traitsIcESaIcEEESt4pairIKS5_5TokenESaIS9_ENSt8__detail10_Select1stESt8equal_toIS5_ESt4hashIS5_ENSB_18_Mod_range_hashingENSB_20_Default_ranged_hashENSB_20_Prime_rehash_policyENSB_17_Hashtable_traitsILb1ELb0ELb1EEEE3endEv>
    4d15:	48 89 45 f8          	mov    QWORD PTR [rbp-0x8],rax
    4d19:	48 8b 45 f8          	mov    rax,QWORD PTR [rbp-0x8]
    4d1d:	48 83 c4 10          	add    rsp,0x10
    4d21:	5d                   	pop    rbp
    4d22:	c3                   	ret
    4d23:	66 2e 0f 1f 84 00 00 	cs nop WORD PTR [rax+rax*1+0x0]
    4d2a:	00 00 00 
    4d2d:	0f 1f 00             	nop    DWORD PTR [rax]

0000000000004d30 <_ZNKSt8__detail20_Node_const_iteratorISt4pairIKNSt7__cxx1112basic_stringIcSt11char_traitsIcESaIcEEE5TokenELb0ELb1EEptEv>:
    4d30:	55                   	push   rbp
    4d31:	48 89 e5             	mov    rbp,rsp
    4d34:	48 83 ec 10          	sub    rsp,0x10
    4d38:	48 89 7d f8          	mov    QWORD PTR [rbp-0x8],rdi
    4d3c:	48 8b 45 f8          	mov    rax,QWORD PTR [rbp-0x8]
    4d40:	48 8b 38             	mov    rdi,QWORD PTR [rax]
    4d43:	48 83 c7 08          	add    rdi,0x8
    4d47:	e8 04 e8 ff ff       	call   3550 <_ZNSt8__detail21_Hash_node_value_baseISt4pairIKNSt7__cxx1112basic_stringIcSt11char_traitsIcESaIcEEE5TokenEE9_M_valptrEv>
    4d4c:	48 83 c4 10          	add    rsp,0x10
    4d50:	5d                   	pop    rbp
    4d51:	c3                   	ret
    4d52:	66 2e 0f 1f 84 00 00 	cs nop WORD PTR [rax+rax*1+0x0]
    4d59:	00 00 00 
    4d5c:	0f 1f 40 00          	nop    DWORD PTR [rax+0x0]

0000000000004d60 <_ZNSt7__cxx1112basic_stringIcSt11char_traitsIcESaIcEE12_M_constructIN9__gnu_cxx17__normal_iteratorIPKcSt6vectorIcS3_EEEEEvT_SD_St20forward_iterator_tag>:
    4d60:	55                   	push   rbp
    4d61:	48 89 e5             	mov    rbp,rsp
    4d64:	48 81 ec 80 00 00 00 	sub    rsp,0x80
    4d6b:	48 89 75 f0          	mov    QWORD PTR [rbp-0x10],rsi
    4d6f:	48 89 55 e8          	mov    QWORD PTR [rbp-0x18],rdx
    4d73:	48 89 7d d8          	mov    QWORD PTR [rbp-0x28],rdi
    4d77:	48 8b 45 d8          	mov    rax,QWORD PTR [rbp-0x28]
    4d7b:	48 89 45 90          	mov    QWORD PTR [rbp-0x70],rax
    4d7f:	48 8b 45 f0          	mov    rax,QWORD PTR [rbp-0x10]
    4d83:	48 89 45 c8          	mov    QWORD PTR [rbp-0x38],rax
    4d87:	48 8b 45 e8          	mov    rax,QWORD PTR [rbp-0x18]
    4d8b:	48 89 45 c0          	mov    QWORD PTR [rbp-0x40],rax
    4d8f:	48 8b 7d c8          	mov    rdi,QWORD PTR [rbp-0x38]
    4d93:	48 8b 75 c0          	mov    rsi,QWORD PTR [rbp-0x40]
    4d97:	e8 24 01 00 00       	call   4ec0 <_ZSt8distanceIN9__gnu_cxx17__normal_iteratorIPKcSt6vectorIcSaIcEEEEENSt15iterator_traitsIT_E15difference_typeES9_S9_>
    4d9c:	48 89 45 d0          	mov    QWORD PTR [rbp-0x30],rax
    4da0:	48 83 7d d0 0f       	cmp    QWORD PTR [rbp-0x30],0xf
    4da5:	0f 86 2f 00 00 00    	jbe    4dda <_ZNSt7__cxx1112basic_stringIcSt11char_traitsIcESaIcEE12_M_constructIN9__gnu_cxx17__normal_iteratorIPKcSt6vectorIcS3_EEEEEvT_SD_St20forward_iterator_tag+0x7a>
    4dab:	48 8b 7d 90          	mov    rdi,QWORD PTR [rbp-0x70]
    4daf:	48 8d 75 d0          	lea    rsi,[rbp-0x30]
    4db3:	31 c0                	xor    eax,eax
    4db5:	89 c2                	mov    edx,eax
    4db7:	e8 44 d5 ff ff       	call   2300 <_ZNSt7__cxx1112basic_stringIcSt11char_traitsIcESaIcEE9_M_createERmm@plt>
    4dbc:	48 8b 7d 90          	mov    rdi,QWORD PTR [rbp-0x70]
    4dc0:	48 89 c6             	mov    rsi,rax
    4dc3:	e8 a8 d3 ff ff       	call   2170 <_ZNSt7__cxx1112basic_stringIcSt11char_traitsIcESaIcEE7_M_dataEPc@plt>
    4dc8:	48 8b 7d 90          	mov    rdi,QWORD PTR [rbp-0x70]
    4dcc:	48 8b 75 d0          	mov    rsi,QWORD PTR [rbp-0x30]
    4dd0:	e8 4b d5 ff ff       	call   2320 <_ZNSt7__cxx1112basic_stringIcSt11char_traitsIcESaIcEE11_M_capacityEm@plt>
    4dd5:	e9 23 00 00 00       	jmp    4dfd <_ZNSt7__cxx1112basic_stringIcSt11char_traitsIcESaIcEE12_M_constructIN9__gnu_cxx17__normal_iteratorIPKcSt6vectorIcS3_EEEEEvT_SD_St20forward_iterator_tag+0x9d>
    4dda:	48 8b 45 90          	mov    rax,QWORD PTR [rbp-0x70]
    4dde:	48 89 45 f8          	mov    QWORD PTR [rbp-0x8],rax
    4de2:	48 8b 7d f8          	mov    rdi,QWORD PTR [rbp-0x8]
    4de6:	e8 75 d3 ff ff       	call   2160 <_ZNSt7__cxx1112basic_stringIcSt11char_traitsIcESaIcEE13_M_local_dataEv@plt>
    4deb:	e9 08 00 00 00       	jmp    4df8 <_ZNSt7__cxx1112basic_stringIcSt11char_traitsIcESaIcEE12_M_constructIN9__gnu_cxx17__normal_iteratorIPKcSt6vectorIcS3_EEEEEvT_SD_St20forward_iterator_tag+0x98>
    4df0:	48 89 c7             	mov    rdi,rax
    4df3:	e8 f8 e5 ff ff       	call   33f0 <__clang_call_terminate>
    4df8:	e9 00 00 00 00       	jmp    4dfd <_ZNSt7__cxx1112basic_stringIcSt11char_traitsIcESaIcEE12_M_constructIN9__gnu_cxx17__normal_iteratorIPKcSt6vectorIcS3_EEEEEvT_SD_St20forward_iterator_tag+0x9d>
    4dfd:	48 8b 75 90          	mov    rsi,QWORD PTR [rbp-0x70]
    4e01:	48 8d 7d b8          	lea    rdi,[rbp-0x48]
    4e05:	e8 f6 00 00 00       	call   4f00 <_ZZNSt7__cxx1112basic_stringIcSt11char_traitsIcESaIcEE12_M_constructIN9__gnu_cxx17__normal_iteratorIPKcSt6vectorIcS3_EEEEEvT_SD_St20forward_iterator_tagEN6_GuardC2EPS4_>
    4e0a:	48 8b 7d 90          	mov    rdi,QWORD PTR [rbp-0x70]
    4e0e:	e8 ed d3 ff ff       	call   2200 <_ZNKSt7__cxx1112basic_stringIcSt11char_traitsIcESaIcEE7_M_dataEv@plt>
    4e13:	48 89 45 88          	mov    QWORD PTR [rbp-0x78],rax
    4e17:	e9 00 00 00 00       	jmp    4e1c <_ZNSt7__cxx1112basic_stringIcSt11char_traitsIcESaIcEE12_M_constructIN9__gnu_cxx17__normal_iteratorIPKcSt6vectorIcS3_EEEEEvT_SD_St20forward_iterator_tag+0xbc>
    4e1c:	48 8b 7d 88          	mov    rdi,QWORD PTR [rbp-0x78]
    4e20:	48 8b 45 f0          	mov    rax,QWORD PTR [rbp-0x10]
    4e24:	48 89 45 a0          	mov    QWORD PTR [rbp-0x60],rax
    4e28:	48 8b 45 e8          	mov    rax,QWORD PTR [rbp-0x18]
    4e2c:	48 89 45 98          	mov    QWORD PTR [rbp-0x68],rax
    4e30:	48 8b 75 a0          	mov    rsi,QWORD PTR [rbp-0x60]
    4e34:	48 8b 55 98          	mov    rdx,QWORD PTR [rbp-0x68]
    4e38:	e8 e3 00 00 00       	call   4f20 <_ZNSt7__cxx1112basic_stringIcSt11char_traitsIcESaIcEE13_S_copy_charsIN9__gnu_cxx17__normal_iteratorIPKcSt6vectorIcS3_EEEEEvPcT_SE_>
    4e3d:	e9 00 00 00 00       	jmp    4e42 <_ZNSt7__cxx1112basic_stringIcSt11char_traitsIcESaIcEE12_M_constructIN9__gnu_cxx17__normal_iteratorIPKcSt6vectorIcS3_EEEEEvT_SD_St20forward_iterator_tag+0xe2>
    4e42:	48 8b 7d 90          	mov    rdi,QWORD PTR [rbp-0x70]
    4e46:	48 c7 45 b8 00 00 00 	mov    QWORD PTR [rbp-0x48],0x0
    4e4d:	00 
    4e4e:	48 8b 75 d0          	mov    rsi,QWORD PTR [rbp-0x30]
    4e52:	e8 b9 d2 ff ff       	call   2110 <_ZNSt7__cxx1112basic_stringIcSt11char_traitsIcESaIcEE13_M_set_lengthEm@plt>
    4e57:	e9 00 00 00 00       	jmp    4e5c <_ZNSt7__cxx1112basic_stringIcSt11char_traitsIcESaIcEE12_M_constructIN9__gnu_cxx17__normal_iteratorIPKcSt6vectorIcS3_EEEEEvT_SD_St20forward_iterator_tag+0xfc>
    4e5c:	48 8d 7d b8          	lea    rdi,[rbp-0x48]
    4e60:	e8 2b 01 00 00       	call   4f90 <_ZZNSt7__cxx1112basic_stringIcSt11char_traitsIcESaIcEE12_M_constructIN9__gnu_cxx17__normal_iteratorIPKcSt6vectorIcS3_EEEEEvT_SD_St20forward_iterator_tagEN6_GuardD2Ev>
    4e65:	48 81 c4 80 00 00 00 	add    rsp,0x80
    4e6c:	5d                   	pop    rbp
    4e6d:	c3                   	ret
    4e6e:	48 89 c1             	mov    rcx,rax
    4e71:	89 d0                	mov    eax,edx
    4e73:	48 89 4d b0          	mov    QWORD PTR [rbp-0x50],rcx
    4e77:	89 45 ac             	mov    DWORD PTR [rbp-0x54],eax
    4e7a:	48 8d 7d b8          	lea    rdi,[rbp-0x48]
    4e7e:	e8 0d 01 00 00       	call   4f90 <_ZZNSt7__cxx1112basic_stringIcSt11char_traitsIcESaIcEE12_M_constructIN9__gnu_cxx17__normal_iteratorIPKcSt6vectorIcS3_EEEEEvT_SD_St20forward_iterator_tagEN6_GuardD2Ev>
    4e83:	48 8b 7d b0          	mov    rdi,QWORD PTR [rbp-0x50]
    4e87:	e8 54 d4 ff ff       	call   22e0 <_Unwind_Resume@plt>
    4e8c:	0f 1f 40 00          	nop    DWORD PTR [rax+0x0]

0000000000004e90 <_ZSt19__iterator_categoryIN9__gnu_cxx17__normal_iteratorIPKcSt6vectorIcSaIcEEEEENSt15iterator_traitsIT_E17iterator_categoryERKS9_>:
    4e90:	55                   	push   rbp
    4e91:	48 89 e5             	mov    rbp,rsp
    4e94:	48 89 7d f8          	mov    QWORD PTR [rbp-0x8],rdi
    4e98:	5d                   	pop    rbp
    4e99:	c3                   	ret
    4e9a:	66 0f 1f 44 00 00    	nop    WORD PTR [rax+rax*1+0x0]

0000000000004ea0 <_ZNSt7__cxx1112basic_stringIcSt11char_traitsIcESaIcEE12_Alloc_hiderD2Ev>:
    4ea0:	55                   	push   rbp
    4ea1:	48 89 e5             	mov    rbp,rsp
    4ea4:	48 83 ec 10          	sub    rsp,0x10
    4ea8:	48 89 7d f8          	mov    QWORD PTR [rbp-0x8],rdi
    4eac:	48 8b 7d f8          	mov    rdi,QWORD PTR [rbp-0x8]
    4eb0:	e8 7b d1 ff ff       	call   2030 <_ZNSaIcED2Ev@plt>
    4eb5:	48 83 c4 10          	add    rsp,0x10
    4eb9:	5d                   	pop    rbp
    4eba:	c3                   	ret
    4ebb:	0f 1f 44 00 00       	nop    DWORD PTR [rax+rax*1+0x0]

0000000000004ec0 <_ZSt8distanceIN9__gnu_cxx17__normal_iteratorIPKcSt6vectorIcSaIcEEEEENSt15iterator_traitsIT_E15difference_typeES9_S9_>:
    4ec0:	55                   	push   rbp
    4ec1:	48 89 e5             	mov    rbp,rsp
    4ec4:	48 83 ec 30          	sub    rsp,0x30
    4ec8:	48 89 7d f8          	mov    QWORD PTR [rbp-0x8],rdi
    4ecc:	48 89 75 f0          	mov    QWORD PTR [rbp-0x10],rsi
    4ed0:	48 8b 45 f8          	mov    rax,QWORD PTR [rbp-0x8]
    4ed4:	48 89 45 e8          	mov    QWORD PTR [rbp-0x18],rax
    4ed8:	48 8b 45 f0          	mov    rax,QWORD PTR [rbp-0x10]
    4edc:	48 89 45 e0          	mov    QWORD PTR [rbp-0x20],rax
    4ee0:	48 8d 7d f8          	lea    rdi,[rbp-0x8]
    4ee4:	e8 a7 ff ff ff       	call   4e90 <_ZSt19__iterator_categoryIN9__gnu_cxx17__normal_iteratorIPKcSt6vectorIcSaIcEEEEENSt15iterator_traitsIT_E17iterator_categoryERKS9_>
    4ee9:	48 8b 7d e8          	mov    rdi,QWORD PTR [rbp-0x18]
    4eed:	48 8b 75 e0          	mov    rsi,QWORD PTR [rbp-0x20]
    4ef1:	e8 ea 00 00 00       	call   4fe0 <_ZSt10__distanceIN9__gnu_cxx17__normal_iteratorIPKcSt6vectorIcSaIcEEEEENSt15iterator_traitsIT_E15difference_typeES9_S9_St26random_access_iterator_tag>
    4ef6:	48 83 c4 30          	add    rsp,0x30
    4efa:	5d                   	pop    rbp
    4efb:	c3                   	ret
    4efc:	0f 1f 40 00          	nop    DWORD PTR [rax+0x0]

0000000000004f00 <_ZZNSt7__cxx1112basic_stringIcSt11char_traitsIcESaIcEE12_M_constructIN9__gnu_cxx17__normal_iteratorIPKcSt6vectorIcS3_EEEEEvT_SD_St20forward_iterator_tagEN6_GuardC2EPS4_>:
    4f00:	55                   	push   rbp
    4f01:	48 89 e5             	mov    rbp,rsp
    4f04:	48 89 7d f8          	mov    QWORD PTR [rbp-0x8],rdi
    4f08:	48 89 75 f0          	mov    QWORD PTR [rbp-0x10],rsi
    4f0c:	48 8b 45 f8          	mov    rax,QWORD PTR [rbp-0x8]
    4f10:	48 8b 4d f0          	mov    rcx,QWORD PTR [rbp-0x10]
    4f14:	48 89 08             	mov    QWORD PTR [rax],rcx
    4f17:	5d                   	pop    rbp
    4f18:	c3                   	ret
    4f19:	0f 1f 80 00 00 00 00 	nop    DWORD PTR [rax+0x0]

0000000000004f20 <_ZNSt7__cxx1112basic_stringIcSt11char_traitsIcESaIcEE13_S_copy_charsIN9__gnu_cxx17__normal_iteratorIPKcSt6vectorIcS3_EEEEEvPcT_SE_>:
    4f20:	55                   	push   rbp
    4f21:	48 89 e5             	mov    rbp,rsp
    4f24:	48 83 ec 20          	sub    rsp,0x20
    4f28:	48 89 75 f8          	mov    QWORD PTR [rbp-0x8],rsi
    4f2c:	48 89 55 f0          	mov    QWORD PTR [rbp-0x10],rdx
    4f30:	48 89 7d e8          	mov    QWORD PTR [rbp-0x18],rdi
    4f34:	48 8d 7d f8          	lea    rdi,[rbp-0x8]
    4f38:	48 8d 75 f0          	lea    rsi,[rbp-0x10]
    4f3c:	e8 0f 01 00 00       	call   5050 <_ZN9__gnu_cxxneIPKcSt6vectorIcSaIcEEEEbRKNS_17__normal_iteratorIT_T0_EESB_>
    4f41:	a8 01                	test   al,0x1
    4f43:	0f 85 05 00 00 00    	jne    4f4e <_ZNSt7__cxx1112basic_stringIcSt11char_traitsIcESaIcEE13_S_copy_charsIN9__gnu_cxx17__normal_iteratorIPKcSt6vectorIcS3_EEEEEvPcT_SE_+0x2e>
    4f49:	e9 37 00 00 00       	jmp    4f85 <_ZNSt7__cxx1112basic_stringIcSt11char_traitsIcESaIcEE13_S_copy_charsIN9__gnu_cxx17__normal_iteratorIPKcSt6vectorIcS3_EEEEEvPcT_SE_+0x65>
    4f4e:	48 8b 45 e8          	mov    rax,QWORD PTR [rbp-0x18]
    4f52:	48 89 45 e0          	mov    QWORD PTR [rbp-0x20],rax
    4f56:	48 8d 7d f8          	lea    rdi,[rbp-0x8]
    4f5a:	e8 61 01 00 00       	call   50c0 <_ZNK9__gnu_cxx17__normal_iteratorIPKcSt6vectorIcSaIcEEEdeEv>
    4f5f:	48 8b 7d e0          	mov    rdi,QWORD PTR [rbp-0x20]
    4f63:	48 89 c6             	mov    rsi,rax
    4f66:	e8 35 01 00 00       	call   50a0 <_ZNSt11char_traitsIcE6assignERcRKc>
    4f6b:	48 8d 7d f8          	lea    rdi,[rbp-0x8]
    4f6f:	e8 6c 01 00 00       	call   50e0 <_ZN9__gnu_cxx17__normal_iteratorIPKcSt6vectorIcSaIcEEEppEv>
    4f74:	48 8b 45 e8          	mov    rax,QWORD PTR [rbp-0x18]
    4f78:	48 83 c0 01          	add    rax,0x1
    4f7c:	48 89 45 e8          	mov    QWORD PTR [rbp-0x18],rax
    4f80:	e9 af ff ff ff       	jmp    4f34 <_ZNSt7__cxx1112basic_stringIcSt11char_traitsIcESaIcEE13_S_copy_charsIN9__gnu_cxx17__normal_iteratorIPKcSt6vectorIcS3_EEEEEvPcT_SE_+0x14>
    4f85:	48 83 c4 20          	add    rsp,0x20
    4f89:	5d                   	pop    rbp
    4f8a:	c3                   	ret
    4f8b:	0f 1f 44 00 00       	nop    DWORD PTR [rax+rax*1+0x0]

0000000000004f90 <_ZZNSt7__cxx1112basic_stringIcSt11char_traitsIcESaIcEE12_M_constructIN9__gnu_cxx17__normal_iteratorIPKcSt6vectorIcS3_EEEEEvT_SD_St20forward_iterator_tagEN6_GuardD2Ev>:
    4f90:	55                   	push   rbp
    4f91:	48 89 e5             	mov    rbp,rsp
    4f94:	48 83 ec 10          	sub    rsp,0x10
    4f98:	48 89 7d f8          	mov    QWORD PTR [rbp-0x8],rdi
    4f9c:	48 8b 45 f8          	mov    rax,QWORD PTR [rbp-0x8]
    4fa0:	48 89 45 f0          	mov    QWORD PTR [rbp-0x10],rax
    4fa4:	48 83 38 00          	cmp    QWORD PTR [rax],0x0
    4fa8:	0f 84 16 00 00 00    	je     4fc4 <_ZZNSt7__cxx1112basic_stringIcSt11char_traitsIcESaIcEE12_M_constructIN9__gnu_cxx17__normal_iteratorIPKcSt6vectorIcS3_EEEEEvT_SD_St20forward_iterator_tagEN6_GuardD2Ev+0x34>
    4fae:	48 8b 45 f0          	mov    rax,QWORD PTR [rbp-0x10]
    4fb2:	48 8b 38             	mov    rdi,QWORD PTR [rax]
    4fb5:	e8 66 d2 ff ff       	call   2220 <_ZNSt7__cxx1112basic_stringIcSt11char_traitsIcESaIcEE10_M_disposeEv@plt>
    4fba:	e9 00 00 00 00       	jmp    4fbf <_ZZNSt7__cxx1112basic_stringIcSt11char_traitsIcESaIcEE12_M_constructIN9__gnu_cxx17__normal_iteratorIPKcSt6vectorIcS3_EEEEEvT_SD_St20forward_iterator_tagEN6_GuardD2Ev+0x2f>
    4fbf:	e9 00 00 00 00       	jmp    4fc4 <_ZZNSt7__cxx1112basic_stringIcSt11char_traitsIcESaIcEE12_M_constructIN9__gnu_cxx17__normal_iteratorIPKcSt6vectorIcS3_EEEEEvT_SD_St20forward_iterator_tagEN6_GuardD2Ev+0x34>
    4fc4:	48 83 c4 10          	add    rsp,0x10
    4fc8:	5d                   	pop    rbp
    4fc9:	c3                   	ret
    4fca:	48 89 c7             	mov    rdi,rax
    4fcd:	e8 1e e4 ff ff       	call   33f0 <__clang_call_terminate>
    4fd2:	66 2e 0f 1f 84 00 00 	cs nop WORD PTR [rax+rax*1+0x0]
    4fd9:	00 00 00 
    4fdc:	0f 1f 40 00          	nop    DWORD PTR [rax+0x0]

0000000000004fe0 <_ZSt10__distanceIN9__gnu_cxx17__normal_iteratorIPKcSt6vectorIcSaIcEEEEENSt15iterator_traitsIT_E15difference_typeES9_S9_St26random_access_iterator_tag>:
    4fe0:	55                   	push   rbp
    4fe1:	48 89 e5             	mov    rbp,rsp
    4fe4:	48 83 ec 20          	sub    rsp,0x20
    4fe8:	48 89 7d f8          	mov    QWORD PTR [rbp-0x8],rdi
    4fec:	48 89 75 f0          	mov    QWORD PTR [rbp-0x10],rsi
    4ff0:	48 8d 7d f0          	lea    rdi,[rbp-0x10]
    4ff4:	48 8d 75 f8          	lea    rsi,[rbp-0x8]
    4ff8:	e8 13 00 00 00       	call   5010 <_ZN9__gnu_cxxmiIPKcSt6vectorIcSaIcEEEENS_17__normal_iteratorIT_T0_E15difference_typeERKS9_SC_>
    4ffd:	48 83 c4 20          	add    rsp,0x20
    5001:	5d                   	pop    rbp
    5002:	c3                   	ret
    5003:	66 2e 0f 1f 84 00 00 	cs nop WORD PTR [rax+rax*1+0x0]
    500a:	00 00 00 
    500d:	0f 1f 00             	nop    DWORD PTR [rax]

0000000000005010 <_ZN9__gnu_cxxmiIPKcSt6vectorIcSaIcEEEENS_17__normal_iteratorIT_T0_E15difference_typeERKS9_SC_>:
    5010:	55                   	push   rbp
    5011:	48 89 e5             	mov    rbp,rsp
    5014:	48 83 ec 20          	sub    rsp,0x20
    5018:	48 89 7d f8          	mov    QWORD PTR [rbp-0x8],rdi
    501c:	48 89 75 f0          	mov    QWORD PTR [rbp-0x10],rsi
    5020:	48 8b 7d f8          	mov    rdi,QWORD PTR [rbp-0x8]
    5024:	e8 a7 ef ff ff       	call   3fd0 <_ZNK9__gnu_cxx17__normal_iteratorIPKcSt6vectorIcSaIcEEE4baseEv>
    5029:	48 8b 00             	mov    rax,QWORD PTR [rax]
    502c:	48 89 45 e8          	mov    QWORD PTR [rbp-0x18],rax
    5030:	48 8b 7d f0          	mov    rdi,QWORD PTR [rbp-0x10]
    5034:	e8 97 ef ff ff       	call   3fd0 <_ZNK9__gnu_cxx17__normal_iteratorIPKcSt6vectorIcSaIcEEE4baseEv>
    5039:	48 89 c1             	mov    rcx,rax
    503c:	48 8b 45 e8          	mov    rax,QWORD PTR [rbp-0x18]
    5040:	48 8b 09             	mov    rcx,QWORD PTR [rcx]
    5043:	48 29 c8             	sub    rax,rcx
    5046:	48 83 c4 20          	add    rsp,0x20
    504a:	5d                   	pop    rbp
    504b:	c3                   	ret
    504c:	0f 1f 40 00          	nop    DWORD PTR [rax+0x0]

0000000000005050 <_ZN9__gnu_cxxneIPKcSt6vectorIcSaIcEEEEbRKNS_17__normal_iteratorIT_T0_EESB_>:
    5050:	55                   	push   rbp
    5051:	48 89 e5             	mov    rbp,rsp
    5054:	48 83 ec 20          	sub    rsp,0x20
    5058:	48 89 7d f8          	mov    QWORD PTR [rbp-0x8],rdi
    505c:	48 89 75 f0          	mov    QWORD PTR [rbp-0x10],rsi
    5060:	48 8b 7d f8          	mov    rdi,QWORD PTR [rbp-0x8]
    5064:	e8 67 ef ff ff       	call   3fd0 <_ZNK9__gnu_cxx17__normal_iteratorIPKcSt6vectorIcSaIcEEE4baseEv>
    5069:	48 8b 00             	mov    rax,QWORD PTR [rax]
    506c:	48 89 45 e8          	mov    QWORD PTR [rbp-0x18],rax
    5070:	48 8b 7d f0          	mov    rdi,QWORD PTR [rbp-0x10]
    5074:	e8 57 ef ff ff       	call   3fd0 <_ZNK9__gnu_cxx17__normal_iteratorIPKcSt6vectorIcSaIcEEE4baseEv>
    5079:	48 89 c1             	mov    rcx,rax
    507c:	48 8b 45 e8          	mov    rax,QWORD PTR [rbp-0x18]
    5080:	48 3b 01             	cmp    rax,QWORD PTR [rcx]
    5083:	0f 95 c0             	setne  al
    5086:	24 01                	and    al,0x1
    5088:	0f b6 c0             	movzx  eax,al
    508b:	48 83 c4 20          	add    rsp,0x20
    508f:	5d                   	pop    rbp
    5090:	c3                   	ret
    5091:	66 2e 0f 1f 84 00 00 	cs nop WORD PTR [rax+rax*1+0x0]
    5098:	00 00 00 
    509b:	0f 1f 44 00 00       	nop    DWORD PTR [rax+rax*1+0x0]

00000000000050a0 <_ZNSt11char_traitsIcE6assignERcRKc>:
    50a0:	55                   	push   rbp
    50a1:	48 89 e5             	mov    rbp,rsp
    50a4:	48 89 7d f8          	mov    QWORD PTR [rbp-0x8],rdi
    50a8:	48 89 75 f0          	mov    QWORD PTR [rbp-0x10],rsi
    50ac:	48 8b 45 f0          	mov    rax,QWORD PTR [rbp-0x10]
    50b0:	8a 08                	mov    cl,BYTE PTR [rax]
    50b2:	48 8b 45 f8          	mov    rax,QWORD PTR [rbp-0x8]
    50b6:	88 08                	mov    BYTE PTR [rax],cl
    50b8:	5d                   	pop    rbp
    50b9:	c3                   	ret
    50ba:	66 0f 1f 44 00 00    	nop    WORD PTR [rax+rax*1+0x0]

00000000000050c0 <_ZNK9__gnu_cxx17__normal_iteratorIPKcSt6vectorIcSaIcEEEdeEv>:
    50c0:	55                   	push   rbp
    50c1:	48 89 e5             	mov    rbp,rsp
    50c4:	48 89 7d f8          	mov    QWORD PTR [rbp-0x8],rdi
    50c8:	48 8b 45 f8          	mov    rax,QWORD PTR [rbp-0x8]
    50cc:	48 8b 00             	mov    rax,QWORD PTR [rax]
    50cf:	5d                   	pop    rbp
    50d0:	c3                   	ret
    50d1:	66 2e 0f 1f 84 00 00 	cs nop WORD PTR [rax+rax*1+0x0]
    50d8:	00 00 00 
    50db:	0f 1f 44 00 00       	nop    DWORD PTR [rax+rax*1+0x0]

00000000000050e0 <_ZN9__gnu_cxx17__normal_iteratorIPKcSt6vectorIcSaIcEEEppEv>:
    50e0:	55                   	push   rbp
    50e1:	48 89 e5             	mov    rbp,rsp
    50e4:	48 89 7d f8          	mov    QWORD PTR [rbp-0x8],rdi
    50e8:	48 8b 45 f8          	mov    rax,QWORD PTR [rbp-0x8]
    50ec:	48 8b 08             	mov    rcx,QWORD PTR [rax]
    50ef:	48 83 c1 01          	add    rcx,0x1
    50f3:	48 89 08             	mov    QWORD PTR [rax],rcx
    50f6:	5d                   	pop    rbp
    50f7:	c3                   	ret
    50f8:	0f 1f 84 00 00 00 00 	nop    DWORD PTR [rax+rax*1+0x0]
    50ff:	00 

0000000000005100 <_ZNKSt10_HashtableINSt7__cxx1112basic_stringIcSt11char_traitsIcESaIcEEESt4pairIKS5_5TokenESaIS9_ENSt8__detail10_Select1stESt8equal_toIS5_ESt4hashIS5_ENSB_18_Mod_range_hashingENSB_20_Default_ranged_hashENSB_20_Prime_rehash_policyENSB_17_Hashtable_traitsILb1ELb0ELb1EEEE4findERS7_>:
    5100:	55                   	push   rbp
    5101:	48 89 e5             	mov    rbp,rsp
    5104:	48 83 ec 40          	sub    rsp,0x40
    5108:	48 89 7d f0          	mov    QWORD PTR [rbp-0x10],rdi
    510c:	48 89 75 e8          	mov    QWORD PTR [rbp-0x18],rsi
    5110:	48 8b 7d f0          	mov    rdi,QWORD PTR [rbp-0x10]
    5114:	48 89 7d c0          	mov    QWORD PTR [rbp-0x40],rdi
    5118:	e8 f3 00 00 00       	call   5210 <_ZNKSt10_HashtableINSt7__cxx1112basic_stringIcSt11char_traitsIcESaIcEEESt4pairIKS5_5TokenESaIS9_ENSt8__detail10_Select1stESt8equal_toIS5_ESt4hashIS5_ENSB_18_Mod_range_hashingENSB_20_Default_ranged_hashENSB_20_Prime_rehash_policyENSB_17_Hashtable_traitsILb1ELb0ELb1EEEE4sizeEv>
    511d:	48 89 45 c8          	mov    QWORD PTR [rbp-0x38],rax
    5121:	e8 0a 01 00 00       	call   5230 <_ZNSt10_HashtableINSt7__cxx1112basic_stringIcSt11char_traitsIcESaIcEEESt4pairIKS5_5TokenESaIS9_ENSt8__detail10_Select1stESt8equal_toIS5_ESt4hashIS5_ENSB_18_Mod_range_hashingENSB_20_Default_ranged_hashENSB_20_Prime_rehash_policyENSB_17_Hashtable_traitsILb1ELb0ELb1EEEE22__small_size_thresholdEv>
    5126:	48 89 c1             	mov    rcx,rax
    5129:	48 8b 45 c8          	mov    rax,QWORD PTR [rbp-0x38]
    512d:	48 39 c8             	cmp    rax,rcx
    5130:	0f 87 80 00 00 00    	ja     51b6 <_ZNKSt10_HashtableINSt7__cxx1112basic_stringIcSt11char_traitsIcESaIcEEESt4pairIKS5_5TokenESaIS9_ENSt8__detail10_Select1stESt8equal_toIS5_ESt4hashIS5_ENSB_18_Mod_range_hashingENSB_20_Default_ranged_hashENSB_20_Prime_rehash_policyENSB_17_Hashtable_traitsILb1ELb0ELb1EEEE4findERS7_+0xb6>
    5136:	48 8b 7d c0          	mov    rdi,QWORD PTR [rbp-0x40]
    513a:	e8 01 01 00 00       	call   5240 <_ZNKSt10_HashtableINSt7__cxx1112basic_stringIcSt11char_traitsIcESaIcEEESt4pairIKS5_5TokenESaIS9_ENSt8__detail10_Select1stESt8equal_toIS5_ESt4hashIS5_ENSB_18_Mod_range_hashingENSB_20_Default_ranged_hashENSB_20_Prime_rehash_policyENSB_17_Hashtable_traitsILb1ELb0ELb1EEEE5beginEv>
    513f:	48 89 45 f8          	mov    QWORD PTR [rbp-0x8],rax
    5143:	48 8b 7d c0          	mov    rdi,QWORD PTR [rbp-0x40]
    5147:	e8 24 01 00 00       	call   5270 <_ZNKSt10_HashtableINSt7__cxx1112basic_stringIcSt11char_traitsIcESaIcEEESt4pairIKS5_5TokenESaIS9_ENSt8__detail10_Select1stESt8equal_toIS5_ESt4hashIS5_ENSB_18_Mod_range_hashingENSB_20_Default_ranged_hashENSB_20_Prime_rehash_policyENSB_17_Hashtable_traitsILb1ELb0ELb1EEEE3endEv>
    514c:	48 89 45 e0          	mov    QWORD PTR [rbp-0x20],rax
    5150:	48 8d 7d f8          	lea    rdi,[rbp-0x8]
    5154:	48 8d 75 e0          	lea    rsi,[rbp-0x20]
    5158:	e8 73 fb ff ff       	call   4cd0 <_ZNSt8__detailneERKNS_19_Node_iterator_baseISt4pairIKNSt7__cxx1112basic_stringIcSt11char_traitsIcESaIcEEE5TokenELb1EEESD_>
    515d:	a8 01                	test   al,0x1
    515f:	0f 85 05 00 00 00    	jne    516a <_ZNKSt10_HashtableINSt7__cxx1112basic_stringIcSt11char_traitsIcESaIcEEESt4pairIKS5_5TokenESaIS9_ENSt8__detail10_Select1stESt8equal_toIS5_ESt4hashIS5_ENSB_18_Mod_range_hashingENSB_20_Default_ranged_hashENSB_20_Prime_rehash_policyENSB_17_Hashtable_traitsILb1ELb0ELb1EEEE4findERS7_+0x6a>
    5165:	e9 3a 00 00 00       	jmp    51a4 <_ZNKSt10_HashtableINSt7__cxx1112basic_stringIcSt11char_traitsIcESaIcEEESt4pairIKS5_5TokenESaIS9_ENSt8__detail10_Select1stESt8equal_toIS5_ESt4hashIS5_ENSB_18_Mod_range_hashingENSB_20_Default_ranged_hashENSB_20_Prime_rehash_policyENSB_17_Hashtable_traitsILb1ELb0ELb1EEEE4findERS7_+0xa4>
    516a:	48 8b 7d c0          	mov    rdi,QWORD PTR [rbp-0x40]
    516e:	48 8b 75 e8          	mov    rsi,QWORD PTR [rbp-0x18]
    5172:	48 8b 55 f8          	mov    rdx,QWORD PTR [rbp-0x8]
    5176:	48 83 c2 08          	add    rdx,0x8
    517a:	e8 21 01 00 00       	call   52a0 <_ZNKSt8__detail15_Hashtable_baseINSt7__cxx1112basic_stringIcSt11char_traitsIcESaIcEEESt4pairIKS6_5TokenENS_10_Select1stESt8equal_toIS6_ESt4hashIS6_ENS_18_Mod_range_hashingENS_20_Default_ranged_hashENS_17_Hashtable_traitsILb1ELb0ELb1EEEE13_M_key_equalsERS8_RKNS_16_Hash_node_valueISA_Lb1EEE>
    517f:	a8 01                	test   al,0x1
    5181:	0f 85 05 00 00 00    	jne    518c <_ZNKSt10_HashtableINSt7__cxx1112basic_stringIcSt11char_traitsIcESaIcEEESt4pairIKS5_5TokenESaIS9_ENSt8__detail10_Select1stESt8equal_toIS5_ESt4hashIS5_ENSB_18_Mod_range_hashingENSB_20_Default_ranged_hashENSB_20_Prime_rehash_policyENSB_17_Hashtable_traitsILb1ELb0ELb1EEEE4findERS7_+0x8c>
    5187:	e9 05 00 00 00       	jmp    5191 <_ZNKSt10_HashtableINSt7__cxx1112basic_stringIcSt11char_traitsIcESaIcEEESt4pairIKS5_5TokenESaIS9_ENSt8__detail10_Select1stESt8equal_toIS5_ESt4hashIS5_ENSB_18_Mod_range_hashingENSB_20_Default_ranged_hashENSB_20_Prime_rehash_policyENSB_17_Hashtable_traitsILb1ELb0ELb1EEEE4findERS7_+0x91>
    518c:	e9 68 00 00 00       	jmp    51f9 <_ZNKSt10_HashtableINSt7__cxx1112basic_stringIcSt11char_traitsIcESaIcEEESt4pairIKS5_5TokenESaIS9_ENSt8__detail10_Select1stESt8equal_toIS5_ESt4hashIS5_ENSB_18_Mod_range_hashingENSB_20_Default_ranged_hashENSB_20_Prime_rehash_policyENSB_17_Hashtable_traitsILb1ELb0ELb1EEEE4findERS7_+0xf9>
    5191:	e9 00 00 00 00       	jmp    5196 <_ZNKSt10_HashtableINSt7__cxx1112basic_stringIcSt11char_traitsIcESaIcEEESt4pairIKS5_5TokenESaIS9_ENSt8__detail10_Select1stESt8equal_toIS5_ESt4hashIS5_ENSB_18_Mod_range_hashingENSB_20_Default_ranged_hashENSB_20_Prime_rehash_policyENSB_17_Hashtable_traitsILb1ELb0ELb1EEEE4findERS7_+0x96>
    5196:	48 8d 7d f8          	lea    rdi,[rbp-0x8]
    519a:	e8 61 01 00 00       	call   5300 <_ZNSt8__detail20_Node_const_iteratorISt4pairIKNSt7__cxx1112basic_stringIcSt11char_traitsIcESaIcEEE5TokenELb0ELb1EEppEv>
    519f:	e9 9f ff ff ff       	jmp    5143 <_ZNKSt10_HashtableINSt7__cxx1112basic_stringIcSt11char_traitsIcESaIcEEESt4pairIKS5_5TokenESaIS9_ENSt8__detail10_Select1stESt8equal_toIS5_ESt4hashIS5_ENSB_18_Mod_range_hashingENSB_20_Default_ranged_hashENSB_20_Prime_rehash_policyENSB_17_Hashtable_traitsILb1ELb0ELb1EEEE4findERS7_+0x43>
    51a4:	48 8b 7d c0          	mov    rdi,QWORD PTR [rbp-0x40]
    51a8:	e8 c3 00 00 00       	call   5270 <_ZNKSt10_HashtableINSt7__cxx1112basic_stringIcSt11char_traitsIcESaIcEEESt4pairIKS5_5TokenESaIS9_ENSt8__detail10_Select1stESt8equal_toIS5_ESt4hashIS5_ENSB_18_Mod_range_hashingENSB_20_Default_ranged_hashENSB_20_Prime_rehash_policyENSB_17_Hashtable_traitsILb1ELb0ELb1EEEE3endEv>
    51ad:	48 89 45 f8          	mov    QWORD PTR [rbp-0x8],rax
    51b1:	e9 43 00 00 00       	jmp    51f9 <_ZNKSt10_HashtableINSt7__cxx1112basic_stringIcSt11char_traitsIcESaIcEEESt4pairIKS5_5TokenESaIS9_ENSt8__detail10_Select1stESt8equal_toIS5_ESt4hashIS5_ENSB_18_Mod_range_hashingENSB_20_Default_ranged_hashENSB_20_Prime_rehash_policyENSB_17_Hashtable_traitsILb1ELb0ELb1EEEE4findERS7_+0xf9>
    51b6:	48 8b 7d c0          	mov    rdi,QWORD PTR [rbp-0x40]
    51ba:	48 8b 75 e8          	mov    rsi,QWORD PTR [rbp-0x18]
    51be:	e8 6d 01 00 00       	call   5330 <_ZNKSt8__detail15_Hash_code_baseINSt7__cxx1112basic_stringIcSt11char_traitsIcESaIcEEESt4pairIKS6_5TokenENS_10_Select1stESt4hashIS6_ENS_18_Mod_range_hashingENS_20_Default_ranged_hashELb1EE12_M_hash_codeERS8_>
    51c3:	48 8b 7d c0          	mov    rdi,QWORD PTR [rbp-0x40]
    51c7:	48 89 45 d8          	mov    QWORD PTR [rbp-0x28],rax
    51cb:	48 8b 75 d8          	mov    rsi,QWORD PTR [rbp-0x28]
    51cf:	e8 8c 01 00 00       	call   5360 <_ZNKSt10_HashtableINSt7__cxx1112basic_stringIcSt11char_traitsIcESaIcEEESt4pairIKS5_5TokenESaIS9_ENSt8__detail10_Select1stESt8equal_toIS5_ESt4hashIS5_ENSB_18_Mod_range_hashingENSB_20_Default_ranged_hashENSB_20_Prime_rehash_policyENSB_17_Hashtable_traitsILb1ELb0ELb1EEEE15_M_bucket_indexEm>
    51d4:	48 8b 7d c0          	mov    rdi,QWORD PTR [rbp-0x40]
    51d8:	48 89 45 d0          	mov    QWORD PTR [rbp-0x30],rax
    51dc:	48 8b 75 d0          	mov    rsi,QWORD PTR [rbp-0x30]
    51e0:	48 8b 55 e8          	mov    rdx,QWORD PTR [rbp-0x18]
    51e4:	48 8b 4d d8          	mov    rcx,QWORD PTR [rbp-0x28]
    51e8:	e8 a3 01 00 00       	call   5390 <_ZNKSt10_HashtableINSt7__cxx1112basic_stringIcSt11char_traitsIcESaIcEEESt4pairIKS5_5TokenESaIS9_ENSt8__detail10_Select1stESt8equal_toIS5_ESt4hashIS5_ENSB_18_Mod_range_hashingENSB_20_Default_ranged_hashENSB_20_Prime_rehash_policyENSB_17_Hashtable_traitsILb1ELb0ELb1EEEE12_M_find_nodeEmRS7_m>
    51ed:	48 89 c6             	mov    rsi,rax
    51f0:	48 8d 7d f8          	lea    rdi,[rbp-0x8]
    51f4:	e8 f7 01 00 00       	call   53f0 <_ZNSt8__detail20_Node_const_iteratorISt4pairIKNSt7__cxx1112basic_stringIcSt11char_traitsIcESaIcEEE5TokenELb0ELb1EEC2EPNS_10_Hash_nodeISA_Lb1EEE>
    51f9:	48 8b 45 f8          	mov    rax,QWORD PTR [rbp-0x8]
    51fd:	48 83 c4 40          	add    rsp,0x40
    5201:	5d                   	pop    rbp
    5202:	c3                   	ret
    5203:	66 2e 0f 1f 84 00 00 	cs nop WORD PTR [rax+rax*1+0x0]
    520a:	00 00 00 
    520d:	0f 1f 00             	nop    DWORD PTR [rax]

0000000000005210 <_ZNKSt10_HashtableINSt7__cxx1112basic_stringIcSt11char_traitsIcESaIcEEESt4pairIKS5_5TokenESaIS9_ENSt8__detail10_Select1stESt8equal_toIS5_ESt4hashIS5_ENSB_18_Mod_range_hashingENSB_20_Default_ranged_hashENSB_20_Prime_rehash_policyENSB_17_Hashtable_traitsILb1ELb0ELb1EEEE4sizeEv>:
    5210:	55                   	push   rbp
    5211:	48 89 e5             	mov    rbp,rsp
    5214:	48 89 7d f8          	mov    QWORD PTR [rbp-0x8],rdi
    5218:	48 8b 45 f8          	mov    rax,QWORD PTR [rbp-0x8]
    521c:	48 8b 40 18          	mov    rax,QWORD PTR [rax+0x18]
    5220:	5d                   	pop    rbp
    5221:	c3                   	ret
    5222:	66 2e 0f 1f 84 00 00 	cs nop WORD PTR [rax+rax*1+0x0]
    5229:	00 00 00 
    522c:	0f 1f 40 00          	nop    DWORD PTR [rax+0x0]

0000000000005230 <_ZNSt10_HashtableINSt7__cxx1112basic_stringIcSt11char_traitsIcESaIcEEESt4pairIKS5_5TokenESaIS9_ENSt8__detail10_Select1stESt8equal_toIS5_ESt4hashIS5_ENSB_18_Mod_range_hashingENSB_20_Default_ranged_hashENSB_20_Prime_rehash_policyENSB_17_Hashtable_traitsILb1ELb0ELb1EEEE22__small_size_thresholdEv>:
    5230:	55                   	push   rbp
    5231:	48 89 e5             	mov    rbp,rsp
    5234:	e8 e7 01 00 00       	call   5420 <_ZNSt8__detail22_Hashtable_hash_traitsISt4hashINSt7__cxx1112basic_stringIcSt11char_traitsIcESaIcEEEEE22__small_size_thresholdEv>
    5239:	5d                   	pop    rbp
    523a:	c3                   	ret
    523b:	0f 1f 44 00 00       	nop    DWORD PTR [rax+rax*1+0x0]

0000000000005240 <_ZNKSt10_HashtableINSt7__cxx1112basic_stringIcSt11char_traitsIcESaIcEEESt4pairIKS5_5TokenESaIS9_ENSt8__detail10_Select1stESt8equal_toIS5_ESt4hashIS5_ENSB_18_Mod_range_hashingENSB_20_Default_ranged_hashENSB_20_Prime_rehash_policyENSB_17_Hashtable_traitsILb1ELb0ELb1EEEE5beginEv>:
    5240:	55                   	push   rbp
    5241:	48 89 e5             	mov    rbp,rsp
    5244:	48 83 ec 10          	sub    rsp,0x10
    5248:	48 89 7d f0          	mov    QWORD PTR [rbp-0x10],rdi
    524c:	48 8b 7d f0          	mov    rdi,QWORD PTR [rbp-0x10]
    5250:	e8 1b e2 ff ff       	call   3470 <_ZNKSt10_HashtableINSt7__cxx1112basic_stringIcSt11char_traitsIcESaIcEEESt4pairIKS5_5TokenESaIS9_ENSt8__detail10_Select1stESt8equal_toIS5_ESt4hashIS5_ENSB_18_Mod_range_hashingENSB_20_Default_ranged_hashENSB_20_Prime_rehash_policyENSB_17_Hashtable_traitsILb1ELb0ELb1EEEE8_M_beginEv>
    5255:	48 89 c6             	mov    rsi,rax
    5258:	48 8d 7d f8          	lea    rdi,[rbp-0x8]
    525c:	e8 8f 01 00 00       	call   53f0 <_ZNSt8__detail20_Node_const_iteratorISt4pairIKNSt7__cxx1112basic_stringIcSt11char_traitsIcESaIcEEE5TokenELb0ELb1EEC2EPNS_10_Hash_nodeISA_Lb1EEE>
    5261:	48 8b 45 f8          	mov    rax,QWORD PTR [rbp-0x8]
    5265:	48 83 c4 10          	add    rsp,0x10
    5269:	5d                   	pop    rbp
    526a:	c3                   	ret
    526b:	0f 1f 44 00 00       	nop    DWORD PTR [rax+rax*1+0x0]

0000000000005270 <_ZNKSt10_HashtableINSt7__cxx1112basic_stringIcSt11char_traitsIcESaIcEEESt4pairIKS5_5TokenESaIS9_ENSt8__detail10_Select1stESt8equal_toIS5_ESt4hashIS5_ENSB_18_Mod_range_hashingENSB_20_Default_ranged_hashENSB_20_Prime_rehash_policyENSB_17_Hashtable_traitsILb1ELb0ELb1EEEE3endEv>:
    5270:	55                   	push   rbp
    5271:	48 89 e5             	mov    rbp,rsp
    5274:	48 83 ec 10          	sub    rsp,0x10
    5278:	48 89 7d f0          	mov    QWORD PTR [rbp-0x10],rdi
    527c:	48 8d 7d f8          	lea    rdi,[rbp-0x8]
    5280:	31 c0                	xor    eax,eax
    5282:	89 c6                	mov    esi,eax
    5284:	e8 67 01 00 00       	call   53f0 <_ZNSt8__detail20_Node_const_iteratorISt4pairIKNSt7__cxx1112basic_stringIcSt11char_traitsIcESaIcEEE5TokenELb0ELb1EEC2EPNS_10_Hash_nodeISA_Lb1EEE>
    5289:	48 8b 45 f8          	mov    rax,QWORD PTR [rbp-0x8]
    528d:	48 83 c4 10          	add    rsp,0x10
    5291:	5d                   	pop    rbp
    5292:	c3                   	ret
    5293:	66 2e 0f 1f 84 00 00 	cs nop WORD PTR [rax+rax*1+0x0]
    529a:	00 00 00 
    529d:	0f 1f 00             	nop    DWORD PTR [rax]

00000000000052a0 <_ZNKSt8__detail15_Hashtable_baseINSt7__cxx1112basic_stringIcSt11char_traitsIcESaIcEEESt4pairIKS6_5TokenENS_10_Select1stESt8equal_toIS6_ESt4hashIS6_ENS_18_Mod_range_hashingENS_20_Default_ranged_hashENS_17_Hashtable_traitsILb1ELb0ELb1EEEE13_M_key_equalsERS8_RKNS_16_Hash_node_valueISA_Lb1EEE>:
    52a0:	55                   	push   rbp
    52a1:	48 89 e5             	mov    rbp,rsp
    52a4:	48 83 ec 30          	sub    rsp,0x30
    52a8:	48 89 7d f8          	mov    QWORD PTR [rbp-0x8],rdi
    52ac:	48 89 75 f0          	mov    QWORD PTR [rbp-0x10],rsi
    52b0:	48 89 55 e8          	mov    QWORD PTR [rbp-0x18],rdx
    52b4:	48 8b 7d f8          	mov    rdi,QWORD PTR [rbp-0x8]
    52b8:	e8 73 01 00 00       	call   5430 <_ZNKSt8__detail15_Hashtable_baseINSt7__cxx1112basic_stringIcSt11char_traitsIcESaIcEEESt4pairIKS6_5TokenENS_10_Select1stESt8equal_toIS6_ESt4hashIS6_ENS_18_Mod_range_hashingENS_20_Default_ranged_hashENS_17_Hashtable_traitsILb1ELb0ELb1EEEE5_M_eqEv>
    52bd:	48 89 45 d0          	mov    QWORD PTR [rbp-0x30],rax
    52c1:	48 8b 45 f0          	mov    rax,QWORD PTR [rbp-0x10]
    52c5:	48 89 45 d8          	mov    QWORD PTR [rbp-0x28],rax
    52c9:	48 8b 7d e8          	mov    rdi,QWORD PTR [rbp-0x18]
    52cd:	e8 ce 01 00 00       	call   54a0 <_ZNKSt8__detail21_Hash_node_value_baseISt4pairIKNSt7__cxx1112basic_stringIcSt11char_traitsIcESaIcEEE5TokenEE4_M_vEv>
    52d2:	48 89 c6             	mov    rsi,rax
    52d5:	48 8d 7d e0          	lea    rdi,[rbp-0x20]
    52d9:	e8 a2 01 00 00       	call   5480 <_ZNKSt8__detail10_Select1stclIRKSt4pairIKNSt7__cxx1112basic_stringIcSt11char_traitsIcESaIcEEE5TokenEEEONS0_10__1st_typeIT_E4typeEOSF_>
    52de:	48 8b 7d d0          	mov    rdi,QWORD PTR [rbp-0x30]
    52e2:	48 8b 75 d8          	mov    rsi,QWORD PTR [rbp-0x28]
    52e6:	48 89 c2             	mov    rdx,rax
    52e9:	e8 62 01 00 00       	call   5450 <_ZNKSt8equal_toINSt7__cxx1112basic_stringIcSt11char_traitsIcESaIcEEEEclERKS5_S8_>
    52ee:	24 01                	and    al,0x1
    52f0:	0f b6 c0             	movzx  eax,al
    52f3:	48 83 c4 30          	add    rsp,0x30
    52f7:	5d                   	pop    rbp
    52f8:	c3                   	ret
    52f9:	0f 1f 80 00 00 00 00 	nop    DWORD PTR [rax+0x0]

0000000000005300 <_ZNSt8__detail20_Node_const_iteratorISt4pairIKNSt7__cxx1112basic_stringIcSt11char_traitsIcESaIcEEE5TokenELb0ELb1EEppEv>:
    5300:	55                   	push   rbp
    5301:	48 89 e5             	mov    rbp,rsp
    5304:	48 83 ec 10          	sub    rsp,0x10
    5308:	48 89 7d f8          	mov    QWORD PTR [rbp-0x8],rdi
    530c:	48 8b 7d f8          	mov    rdi,QWORD PTR [rbp-0x8]
    5310:	48 89 7d f0          	mov    QWORD PTR [rbp-0x10],rdi
    5314:	e8 f7 02 00 00       	call   5610 <_ZNSt8__detail19_Node_iterator_baseISt4pairIKNSt7__cxx1112basic_stringIcSt11char_traitsIcESaIcEEE5TokenELb1EE7_M_incrEv>
    5319:	48 8b 45 f0          	mov    rax,QWORD PTR [rbp-0x10]
    531d:	48 83 c4 10          	add    rsp,0x10
    5321:	5d                   	pop    rbp
    5322:	c3                   	ret
    5323:	66 2e 0f 1f 84 00 00 	cs nop WORD PTR [rax+rax*1+0x0]
    532a:	00 00 00 
    532d:	0f 1f 00             	nop    DWORD PTR [rax]

0000000000005330 <_ZNKSt8__detail15_Hash_code_baseINSt7__cxx1112basic_stringIcSt11char_traitsIcESaIcEEESt4pairIKS6_5TokenENS_10_Select1stESt4hashIS6_ENS_18_Mod_range_hashingENS_20_Default_ranged_hashELb1EE12_M_hash_codeERS8_>:
    5330:	55                   	push   rbp
    5331:	48 89 e5             	mov    rbp,rsp
    5334:	48 83 ec 10          	sub    rsp,0x10
    5338:	48 89 7d f8          	mov    QWORD PTR [rbp-0x8],rdi
    533c:	48 89 75 f0          	mov    QWORD PTR [rbp-0x10],rsi
    5340:	48 8b 7d f8          	mov    rdi,QWORD PTR [rbp-0x8]
    5344:	e8 f7 02 00 00       	call   5640 <_ZNKSt8__detail15_Hash_code_baseINSt7__cxx1112basic_stringIcSt11char_traitsIcESaIcEEESt4pairIKS6_5TokenENS_10_Select1stESt4hashIS6_ENS_18_Mod_range_hashingENS_20_Default_ranged_hashELb1EE7_M_hashEv>
    5349:	48 89 c7             	mov    rdi,rax
    534c:	48 8b 75 f0          	mov    rsi,QWORD PTR [rbp-0x10]
    5350:	e8 0b 03 00 00       	call   5660 <_ZNKSt4hashINSt7__cxx1112basic_stringIcSt11char_traitsIcESaIcEEEEclERKS5_>
    5355:	48 83 c4 10          	add    rsp,0x10
    5359:	5d                   	pop    rbp
    535a:	c3                   	ret
    535b:	0f 1f 44 00 00       	nop    DWORD PTR [rax+rax*1+0x0]

0000000000005360 <_ZNKSt10_HashtableINSt7__cxx1112basic_stringIcSt11char_traitsIcESaIcEEESt4pairIKS5_5TokenESaIS9_ENSt8__detail10_Select1stESt8equal_toIS5_ESt4hashIS5_ENSB_18_Mod_range_hashingENSB_20_Default_ranged_hashENSB_20_Prime_rehash_policyENSB_17_Hashtable_traitsILb1ELb0ELb1EEEE15_M_bucket_indexEm>:
    5360:	55                   	push   rbp
    5361:	48 89 e5             	mov    rbp,rsp
    5364:	48 83 ec 10          	sub    rsp,0x10
    5368:	48 89 7d f8          	mov    QWORD PTR [rbp-0x8],rdi
    536c:	48 89 75 f0          	mov    QWORD PTR [rbp-0x10],rsi
    5370:	48 8b 7d f8          	mov    rdi,QWORD PTR [rbp-0x8]
    5374:	48 8b 75 f0          	mov    rsi,QWORD PTR [rbp-0x10]
    5378:	48 8b 57 08          	mov    rdx,QWORD PTR [rdi+0x8]
    537c:	e8 7f 03 00 00       	call   5700 <_ZNKSt8__detail15_Hash_code_baseINSt7__cxx1112basic_stringIcSt11char_traitsIcESaIcEEESt4pairIKS6_5TokenENS_10_Select1stESt4hashIS6_ENS_18_Mod_range_hashingENS_20_Default_ranged_hashELb1EE15_M_bucket_indexEmm>
    5381:	48 83 c4 10          	add    rsp,0x10
    5385:	5d                   	pop    rbp
    5386:	c3                   	ret
    5387:	66 0f 1f 84 00 00 00 	nop    WORD PTR [rax+rax*1+0x0]
    538e:	00 00 

0000000000005390 <_ZNKSt10_HashtableINSt7__cxx1112basic_stringIcSt11char_traitsIcESaIcEEESt4pairIKS5_5TokenESaIS9_ENSt8__detail10_Select1stESt8equal_toIS5_ESt4hashIS5_ENSB_18_Mod_range_hashingENSB_20_Default_ranged_hashENSB_20_Prime_rehash_policyENSB_17_Hashtable_traitsILb1ELb0ELb1EEEE12_M_find_nodeEmRS7_m>:
    5390:	55                   	push   rbp
    5391:	48 89 e5             	mov    rbp,rsp
    5394:	48 83 ec 30          	sub    rsp,0x30
    5398:	48 89 7d f0          	mov    QWORD PTR [rbp-0x10],rdi
    539c:	48 89 75 e8          	mov    QWORD PTR [rbp-0x18],rsi
    53a0:	48 89 55 e0          	mov    QWORD PTR [rbp-0x20],rdx
    53a4:	48 89 4d d8          	mov    QWORD PTR [rbp-0x28],rcx
    53a8:	48 8b 7d f0          	mov    rdi,QWORD PTR [rbp-0x10]
    53ac:	48 8b 75 e8          	mov    rsi,QWORD PTR [rbp-0x18]
    53b0:	48 8b 55 e0          	mov    rdx,QWORD PTR [rbp-0x20]
    53b4:	48 8b 4d d8          	mov    rcx,QWORD PTR [rbp-0x28]
    53b8:	e8 a3 03 00 00       	call   5760 <_ZNKSt10_HashtableINSt7__cxx1112basic_stringIcSt11char_traitsIcESaIcEEESt4pairIKS5_5TokenESaIS9_ENSt8__detail10_Select1stESt8equal_toIS5_ESt4hashIS5_ENSB_18_Mod_range_hashingENSB_20_Default_ranged_hashENSB_20_Prime_rehash_policyENSB_17_Hashtable_traitsILb1ELb0ELb1EEEE19_M_find_before_nodeEmRS7_m>
    53bd:	48 89 45 d0          	mov    QWORD PTR [rbp-0x30],rax
    53c1:	48 83 7d d0 00       	cmp    QWORD PTR [rbp-0x30],0x0
    53c6:	0f 84 10 00 00 00    	je     53dc <_ZNKSt10_HashtableINSt7__cxx1112basic_stringIcSt11char_traitsIcESaIcEEESt4pairIKS5_5TokenESaIS9_ENSt8__detail10_Select1stESt8equal_toIS5_ESt4hashIS5_ENSB_18_Mod_range_hashingENSB_20_Default_ranged_hashENSB_20_Prime_rehash_policyENSB_17_Hashtable_traitsILb1ELb0ELb1EEEE12_M_find_nodeEmRS7_m+0x4c>
    53cc:	48 8b 45 d0          	mov    rax,QWORD PTR [rbp-0x30]
    53d0:	48 8b 00             	mov    rax,QWORD PTR [rax]
    53d3:	48 89 45 f8          	mov    QWORD PTR [rbp-0x8],rax
    53d7:	e9 08 00 00 00       	jmp    53e4 <_ZNKSt10_HashtableINSt7__cxx1112basic_stringIcSt11char_traitsIcESaIcEEESt4pairIKS5_5TokenESaIS9_ENSt8__detail10_Select1stESt8equal_toIS5_ESt4hashIS5_ENSB_18_Mod_range_hashingENSB_20_Default_ranged_hashENSB_20_Prime_rehash_policyENSB_17_Hashtable_traitsILb1ELb0ELb1EEEE12_M_find_nodeEmRS7_m+0x54>
    53dc:	48 c7 45 f8 00 00 00 	mov    QWORD PTR [rbp-0x8],0x0
    53e3:	00 
    53e4:	48 8b 45 f8          	mov    rax,QWORD PTR [rbp-0x8]
    53e8:	48 83 c4 30          	add    rsp,0x30
    53ec:	5d                   	pop    rbp
    53ed:	c3                   	ret
    53ee:	66 90                	xchg   ax,ax

00000000000053f0 <_ZNSt8__detail20_Node_const_iteratorISt4pairIKNSt7__cxx1112basic_stringIcSt11char_traitsIcESaIcEEE5TokenELb0ELb1EEC2EPNS_10_Hash_nodeISA_Lb1EEE>:
    53f0:	55                   	push   rbp
    53f1:	48 89 e5             	mov    rbp,rsp
    53f4:	48 83 ec 10          	sub    rsp,0x10
    53f8:	48 89 7d f8          	mov    QWORD PTR [rbp-0x8],rdi
    53fc:	48 89 75 f0          	mov    QWORD PTR [rbp-0x10],rsi
    5400:	48 8b 7d f8          	mov    rdi,QWORD PTR [rbp-0x8]
    5404:	48 8b 75 f0          	mov    rsi,QWORD PTR [rbp-0x10]
    5408:	e8 43 05 00 00       	call   5950 <_ZNSt8__detail19_Node_iterator_baseISt4pairIKNSt7__cxx1112basic_stringIcSt11char_traitsIcESaIcEEE5TokenELb1EEC2EPNS_10_Hash_nodeISA_Lb1EEE>
    540d:	48 83 c4 10          	add    rsp,0x10
    5411:	5d                   	pop    rbp
    5412:	c3                   	ret
    5413:	66 2e 0f 1f 84 00 00 	cs nop WORD PTR [rax+rax*1+0x0]
    541a:	00 00 00 
    541d:	0f 1f 00             	nop    DWORD PTR [rax]

0000000000005420 <_ZNSt8__detail22_Hashtable_hash_traitsISt4hashINSt7__cxx1112basic_stringIcSt11char_traitsIcESaIcEEEEE22__small_size_thresholdEv>:
    5420:	55                   	push   rbp
    5421:	48 89 e5             	mov    rbp,rsp
    5424:	b8 14 00 00 00       	mov    eax,0x14
    5429:	5d                   	pop    rbp
    542a:	c3                   	ret
    542b:	0f 1f 44 00 00       	nop    DWORD PTR [rax+rax*1+0x0]

0000000000005430 <_ZNKSt8__detail15_Hashtable_baseINSt7__cxx1112basic_stringIcSt11char_traitsIcESaIcEEESt4pairIKS6_5TokenENS_10_Select1stESt8equal_toIS6_ESt4hashIS6_ENS_18_Mod_range_hashingENS_20_Default_ranged_hashENS_17_Hashtable_traitsILb1ELb0ELb1EEEE5_M_eqEv>:
    5430:	55                   	push   rbp
    5431:	48 89 e5             	mov    rbp,rsp
    5434:	48 83 ec 10          	sub    rsp,0x10
    5438:	48 89 7d f8          	mov    QWORD PTR [rbp-0x8],rdi
    543c:	48 8b 7d f8          	mov    rdi,QWORD PTR [rbp-0x8]
    5440:	e8 7b 00 00 00       	call   54c0 <_ZNKSt8__detail21_Hashtable_ebo_helperILi0ESt8equal_toINSt7__cxx1112basic_stringIcSt11char_traitsIcESaIcEEEELb1EE7_M_cgetEv>
    5445:	48 83 c4 10          	add    rsp,0x10
    5449:	5d                   	pop    rbp
    544a:	c3                   	ret
    544b:	0f 1f 44 00 00       	nop    DWORD PTR [rax+rax*1+0x0]

0000000000005450 <_ZNKSt8equal_toINSt7__cxx1112basic_stringIcSt11char_traitsIcESaIcEEEEclERKS5_S8_>:
    5450:	55                   	push   rbp
    5451:	48 89 e5             	mov    rbp,rsp
    5454:	48 83 ec 20          	sub    rsp,0x20
    5458:	48 89 7d f8          	mov    QWORD PTR [rbp-0x8],rdi
    545c:	48 89 75 f0          	mov    QWORD PTR [rbp-0x10],rsi
    5460:	48 89 55 e8          	mov    QWORD PTR [rbp-0x18],rdx
    5464:	48 8b 7d f0          	mov    rdi,QWORD PTR [rbp-0x10]
    5468:	48 8b 75 e8          	mov    rsi,QWORD PTR [rbp-0x18]
    546c:	e8 5f 00 00 00       	call   54d0 <_ZSteqIcEN9__gnu_cxx11__enable_ifIXsr9__is_charIT_EE7__valueEbE6__typeERKNSt7__cxx1112basic_stringIS2_St11char_traitsIS2_ESaIS2_EEESC_>
    5471:	24 01                	and    al,0x1
    5473:	0f b6 c0             	movzx  eax,al
    5476:	48 83 c4 20          	add    rsp,0x20
    547a:	5d                   	pop    rbp
    547b:	c3                   	ret
    547c:	0f 1f 40 00          	nop    DWORD PTR [rax+0x0]

0000000000005480 <_ZNKSt8__detail10_Select1stclIRKSt4pairIKNSt7__cxx1112basic_stringIcSt11char_traitsIcESaIcEEE5TokenEEEONS0_10__1st_typeIT_E4typeEOSF_>:
    5480:	55                   	push   rbp
    5481:	48 89 e5             	mov    rbp,rsp
    5484:	48 89 7d f8          	mov    QWORD PTR [rbp-0x8],rdi
    5488:	48 89 75 f0          	mov    QWORD PTR [rbp-0x10],rsi
    548c:	48 8b 45 f0          	mov    rax,QWORD PTR [rbp-0x10]
    5490:	5d                   	pop    rbp
    5491:	c3                   	ret
    5492:	66 2e 0f 1f 84 00 00 	cs nop WORD PTR [rax+rax*1+0x0]
    5499:	00 00 00 
    549c:	0f 1f 40 00          	nop    DWORD PTR [rax+0x0]

00000000000054a0 <_ZNKSt8__detail21_Hash_node_value_baseISt4pairIKNSt7__cxx1112basic_stringIcSt11char_traitsIcESaIcEEE5TokenEE4_M_vEv>:
    54a0:	55                   	push   rbp
    54a1:	48 89 e5             	mov    rbp,rsp
    54a4:	48 83 ec 10          	sub    rsp,0x10
    54a8:	48 89 7d f8          	mov    QWORD PTR [rbp-0x8],rdi
    54ac:	48 8b 7d f8          	mov    rdi,QWORD PTR [rbp-0x8]
    54b0:	e8 0b 01 00 00       	call   55c0 <_ZNKSt8__detail21_Hash_node_value_baseISt4pairIKNSt7__cxx1112basic_stringIcSt11char_traitsIcESaIcEEE5TokenEE9_M_valptrEv>
    54b5:	48 83 c4 10          	add    rsp,0x10
    54b9:	5d                   	pop    rbp
    54ba:	c3                   	ret
    54bb:	0f 1f 44 00 00       	nop    DWORD PTR [rax+rax*1+0x0]

00000000000054c0 <_ZNKSt8__detail21_Hashtable_ebo_helperILi0ESt8equal_toINSt7__cxx1112basic_stringIcSt11char_traitsIcESaIcEEEELb1EE7_M_cgetEv>:
    54c0:	55                   	push   rbp
    54c1:	48 89 e5             	mov    rbp,rsp
    54c4:	48 89 7d f8          	mov    QWORD PTR [rbp-0x8],rdi
    54c8:	48 8b 45 f8          	mov    rax,QWORD PTR [rbp-0x8]
    54cc:	5d                   	pop    rbp
    54cd:	c3                   	ret
    54ce:	66 90                	xchg   ax,ax

00000000000054d0 <_ZSteqIcEN9__gnu_cxx11__enable_ifIXsr9__is_charIT_EE7__valueEbE6__typeERKNSt7__cxx1112basic_stringIS2_St11char_traitsIS2_ESaIS2_EEESC_>:
    54d0:	55                   	push   rbp
    54d1:	48 89 e5             	mov    rbp,rsp
    54d4:	48 83 ec 40          	sub    rsp,0x40
    54d8:	48 89 7d f8          	mov    QWORD PTR [rbp-0x8],rdi
    54dc:	48 89 75 f0          	mov    QWORD PTR [rbp-0x10],rsi
    54e0:	48 8b 7d f8          	mov    rdi,QWORD PTR [rbp-0x8]
    54e4:	e8 37 cc ff ff       	call   2120 <_ZNKSt7__cxx1112basic_stringIcSt11char_traitsIcESaIcEE4sizeEv@plt>
    54e9:	48 89 45 e0          	mov    QWORD PTR [rbp-0x20],rax
    54ed:	48 8b 7d f0          	mov    rdi,QWORD PTR [rbp-0x10]
    54f1:	e8 2a cc ff ff       	call   2120 <_ZNKSt7__cxx1112basic_stringIcSt11char_traitsIcESaIcEE4sizeEv@plt>
    54f6:	48 8b 4d e0          	mov    rcx,QWORD PTR [rbp-0x20]
    54fa:	48 89 c2             	mov    rdx,rax
    54fd:	31 c0                	xor    eax,eax
    54ff:	48 39 d1             	cmp    rcx,rdx
    5502:	88 45 ef             	mov    BYTE PTR [rbp-0x11],al
    5505:	0f 85 49 00 00 00    	jne    5554 <_ZSteqIcEN9__gnu_cxx11__enable_ifIXsr9__is_charIT_EE7__valueEbE6__typeERKNSt7__cxx1112basic_stringIS2_St11char_traitsIS2_ESaIS2_EEESC_+0x84>
    550b:	48 8b 7d f8          	mov    rdi,QWORD PTR [rbp-0x8]
    550f:	e8 1c cd ff ff       	call   2230 <_ZNKSt7__cxx1112basic_stringIcSt11char_traitsIcESaIcEE4dataEv@plt>
    5514:	48 89 45 c8          	mov    QWORD PTR [rbp-0x38],rax
    5518:	48 8b 7d f0          	mov    rdi,QWORD PTR [rbp-0x10]
    551c:	e8 0f cd ff ff       	call   2230 <_ZNKSt7__cxx1112basic_stringIcSt11char_traitsIcESaIcEE4dataEv@plt>
    5521:	48 89 45 d0          	mov    QWORD PTR [rbp-0x30],rax
    5525:	48 8b 7d f8          	mov    rdi,QWORD PTR [rbp-0x8]
    5529:	e8 f2 cb ff ff       	call   2120 <_ZNKSt7__cxx1112basic_stringIcSt11char_traitsIcESaIcEE4sizeEv@plt>
    552e:	48 8b 7d c8          	mov    rdi,QWORD PTR [rbp-0x38]
    5532:	48 8b 75 d0          	mov    rsi,QWORD PTR [rbp-0x30]
    5536:	48 89 c2             	mov    rdx,rax
    5539:	e8 32 00 00 00       	call   5570 <_ZNSt11char_traitsIcE7compareEPKcS2_m>
    553e:	89 45 dc             	mov    DWORD PTR [rbp-0x24],eax
    5541:	e9 00 00 00 00       	jmp    5546 <_ZSteqIcEN9__gnu_cxx11__enable_ifIXsr9__is_charIT_EE7__valueEbE6__typeERKNSt7__cxx1112basic_stringIS2_St11char_traitsIS2_ESaIS2_EEESC_+0x76>
    5546:	8b 45 dc             	mov    eax,DWORD PTR [rbp-0x24]
    5549:	83 f8 00             	cmp    eax,0x0
    554c:	0f 95 c0             	setne  al
    554f:	34 ff                	xor    al,0xff
    5551:	88 45 ef             	mov    BYTE PTR [rbp-0x11],al
    5554:	8a 45 ef             	mov    al,BYTE PTR [rbp-0x11]
    5557:	24 01                	and    al,0x1
    5559:	0f b6 c0             	movzx  eax,al
    555c:	48 83 c4 40          	add    rsp,0x40
    5560:	5d                   	pop    rbp
    5561:	c3                   	ret
    5562:	48 89 c7             	mov    rdi,rax
    5565:	e8 86 de ff ff       	call   33f0 <__clang_call_terminate>
    556a:	66 0f 1f 44 00 00    	nop    WORD PTR [rax+rax*1+0x0]

0000000000005570 <_ZNSt11char_traitsIcE7compareEPKcS2_m>:
    5570:	55                   	push   rbp
    5571:	48 89 e5             	mov    rbp,rsp
    5574:	48 83 ec 20          	sub    rsp,0x20
    5578:	48 89 7d f0          	mov    QWORD PTR [rbp-0x10],rdi
    557c:	48 89 75 e8          	mov    QWORD PTR [rbp-0x18],rsi
    5580:	48 89 55 e0          	mov    QWORD PTR [rbp-0x20],rdx
    5584:	48 83 7d e0 00       	cmp    QWORD PTR [rbp-0x20],0x0
    5589:	0f 85 0c 00 00 00    	jne    559b <_ZNSt11char_traitsIcE7compareEPKcS2_m+0x2b>
    558f:	c7 45 fc 00 00 00 00 	mov    DWORD PTR [rbp-0x4],0x0
    5596:	e9 14 00 00 00       	jmp    55af <_ZNSt11char_traitsIcE7compareEPKcS2_m+0x3f>
    559b:	48 8b 7d f0          	mov    rdi,QWORD PTR [rbp-0x10]
    559f:	48 8b 75 e8          	mov    rsi,QWORD PTR [rbp-0x18]
    55a3:	48 8b 55 e0          	mov    rdx,QWORD PTR [rbp-0x20]
    55a7:	e8 f4 ca ff ff       	call   20a0 <memcmp@plt>
    55ac:	89 45 fc             	mov    DWORD PTR [rbp-0x4],eax
    55af:	8b 45 fc             	mov    eax,DWORD PTR [rbp-0x4]
    55b2:	48 83 c4 20          	add    rsp,0x20
    55b6:	5d                   	pop    rbp
    55b7:	c3                   	ret
    55b8:	0f 1f 84 00 00 00 00 	nop    DWORD PTR [rax+rax*1+0x0]
    55bf:	00 

00000000000055c0 <_ZNKSt8__detail21_Hash_node_value_baseISt4pairIKNSt7__cxx1112basic_stringIcSt11char_traitsIcESaIcEEE5TokenEE9_M_valptrEv>:
    55c0:	55                   	push   rbp
    55c1:	48 89 e5             	mov    rbp,rsp
    55c4:	48 83 ec 10          	sub    rsp,0x10
    55c8:	48 89 7d f8          	mov    QWORD PTR [rbp-0x8],rdi
    55cc:	48 8b 7d f8          	mov    rdi,QWORD PTR [rbp-0x8]
    55d0:	e8 0b 00 00 00       	call   55e0 <_ZNK9__gnu_cxx16__aligned_bufferISt4pairIKNSt7__cxx1112basic_stringIcSt11char_traitsIcESaIcEEE5TokenEE6_M_ptrEv>
    55d5:	48 83 c4 10          	add    rsp,0x10
    55d9:	5d                   	pop    rbp
    55da:	c3                   	ret
    55db:	0f 1f 44 00 00       	nop    DWORD PTR [rax+rax*1+0x0]

00000000000055e0 <_ZNK9__gnu_cxx16__aligned_bufferISt4pairIKNSt7__cxx1112basic_stringIcSt11char_traitsIcESaIcEEE5TokenEE6_M_ptrEv>:
    55e0:	55                   	push   rbp
    55e1:	48 89 e5             	mov    rbp,rsp
    55e4:	48 83 ec 10          	sub    rsp,0x10
    55e8:	48 89 7d f8          	mov    QWORD PTR [rbp-0x8],rdi
    55ec:	48 8b 7d f8          	mov    rdi,QWORD PTR [rbp-0x8]
    55f0:	e8 0b 00 00 00       	call   5600 <_ZNK9__gnu_cxx16__aligned_bufferISt4pairIKNSt7__cxx1112basic_stringIcSt11char_traitsIcESaIcEEE5TokenEE7_M_addrEv>
    55f5:	48 83 c4 10          	add    rsp,0x10
    55f9:	5d                   	pop    rbp
    55fa:	c3                   	ret
    55fb:	0f 1f 44 00 00       	nop    DWORD PTR [rax+rax*1+0x0]

0000000000005600 <_ZNK9__gnu_cxx16__aligned_bufferISt4pairIKNSt7__cxx1112basic_stringIcSt11char_traitsIcESaIcEEE5TokenEE7_M_addrEv>:
    5600:	55                   	push   rbp
    5601:	48 89 e5             	mov    rbp,rsp
    5604:	48 89 7d f8          	mov    QWORD PTR [rbp-0x8],rdi
    5608:	48 8b 45 f8          	mov    rax,QWORD PTR [rbp-0x8]
    560c:	5d                   	pop    rbp
    560d:	c3                   	ret
    560e:	66 90                	xchg   ax,ax

0000000000005610 <_ZNSt8__detail19_Node_iterator_baseISt4pairIKNSt7__cxx1112basic_stringIcSt11char_traitsIcESaIcEEE5TokenELb1EE7_M_incrEv>:
    5610:	55                   	push   rbp
    5611:	48 89 e5             	mov    rbp,rsp
    5614:	48 83 ec 10          	sub    rsp,0x10
    5618:	48 89 7d f8          	mov    QWORD PTR [rbp-0x8],rdi
    561c:	48 8b 45 f8          	mov    rax,QWORD PTR [rbp-0x8]
    5620:	48 89 45 f0          	mov    QWORD PTR [rbp-0x10],rax
    5624:	48 8b 38             	mov    rdi,QWORD PTR [rax]
    5627:	e8 64 de ff ff       	call   3490 <_ZNKSt8__detail10_Hash_nodeISt4pairIKNSt7__cxx1112basic_stringIcSt11char_traitsIcESaIcEEE5TokenELb1EE7_M_nextEv>
    562c:	48 89 c1             	mov    rcx,rax
    562f:	48 8b 45 f0          	mov    rax,QWORD PTR [rbp-0x10]
    5633:	48 89 08             	mov    QWORD PTR [rax],rcx
    5636:	48 83 c4 10          	add    rsp,0x10
    563a:	5d                   	pop    rbp
    563b:	c3                   	ret
    563c:	0f 1f 40 00          	nop    DWORD PTR [rax+0x0]

0000000000005640 <_ZNKSt8__detail15_Hash_code_baseINSt7__cxx1112basic_stringIcSt11char_traitsIcESaIcEEESt4pairIKS6_5TokenENS_10_Select1stESt4hashIS6_ENS_18_Mod_range_hashingENS_20_Default_ranged_hashELb1EE7_M_hashEv>:
    5640:	55                   	push   rbp
    5641:	48 89 e5             	mov    rbp,rsp
    5644:	48 83 ec 10          	sub    rsp,0x10
    5648:	48 89 7d f8          	mov    QWORD PTR [rbp-0x8],rdi
    564c:	48 8b 7d f8          	mov    rdi,QWORD PTR [rbp-0x8]
    5650:	e8 6b 00 00 00       	call   56c0 <_ZNKSt8__detail21_Hashtable_ebo_helperILi1ESt4hashINSt7__cxx1112basic_stringIcSt11char_traitsIcESaIcEEEELb1EE7_M_cgetEv>
    5655:	48 83 c4 10          	add    rsp,0x10
    5659:	5d                   	pop    rbp
    565a:	c3                   	ret
    565b:	0f 1f 44 00 00       	nop    DWORD PTR [rax+rax*1+0x0]

0000000000005660 <_ZNKSt4hashINSt7__cxx1112basic_stringIcSt11char_traitsIcESaIcEEEEclERKS5_>:
    5660:	55                   	push   rbp
    5661:	48 89 e5             	mov    rbp,rsp
    5664:	48 83 ec 20          	sub    rsp,0x20
    5668:	48 89 7d f8          	mov    QWORD PTR [rbp-0x8],rdi
    566c:	48 89 75 f0          	mov    QWORD PTR [rbp-0x10],rsi
    5670:	48 8b 7d f0          	mov    rdi,QWORD PTR [rbp-0x10]
    5674:	e8 b7 cb ff ff       	call   2230 <_ZNKSt7__cxx1112basic_stringIcSt11char_traitsIcESaIcEE4dataEv@plt>
    5679:	48 89 45 e0          	mov    QWORD PTR [rbp-0x20],rax
    567d:	48 8b 7d f0          	mov    rdi,QWORD PTR [rbp-0x10]
    5681:	e8 fa cb ff ff       	call   2280 <_ZNKSt7__cxx1112basic_stringIcSt11char_traitsIcESaIcEE6lengthEv@plt>
    5686:	48 8b 7d e0          	mov    rdi,QWORD PTR [rbp-0x20]
    568a:	48 89 c6             	mov    rsi,rax
    568d:	ba 07 69 0f c7       	mov    edx,0xc70f6907
    5692:	e8 39 00 00 00       	call   56d0 <_ZNSt10_Hash_impl4hashEPKvmm>
    5697:	48 89 45 e8          	mov    QWORD PTR [rbp-0x18],rax
    569b:	e9 00 00 00 00       	jmp    56a0 <_ZNKSt4hashINSt7__cxx1112basic_stringIcSt11char_traitsIcESaIcEEEEclERKS5_+0x40>
    56a0:	48 8b 45 e8          	mov    rax,QWORD PTR [rbp-0x18]
    56a4:	48 83 c4 20          	add    rsp,0x20
    56a8:	5d                   	pop    rbp
    56a9:	c3                   	ret
    56aa:	48 89 c7             	mov    rdi,rax
    56ad:	e8 3e dd ff ff       	call   33f0 <__clang_call_terminate>
    56b2:	66 2e 0f 1f 84 00 00 	cs nop WORD PTR [rax+rax*1+0x0]
    56b9:	00 00 00 
    56bc:	0f 1f 40 00          	nop    DWORD PTR [rax+0x0]

00000000000056c0 <_ZNKSt8__detail21_Hashtable_ebo_helperILi1ESt4hashINSt7__cxx1112basic_stringIcSt11char_traitsIcESaIcEEEELb1EE7_M_cgetEv>:
    56c0:	55                   	push   rbp
    56c1:	48 89 e5             	mov    rbp,rsp
    56c4:	48 89 7d f8          	mov    QWORD PTR [rbp-0x8],rdi
    56c8:	48 8b 45 f8          	mov    rax,QWORD PTR [rbp-0x8]
    56cc:	5d                   	pop    rbp
    56cd:	c3                   	ret
    56ce:	66 90                	xchg   ax,ax

00000000000056d0 <_ZNSt10_Hash_impl4hashEPKvmm>:
    56d0:	55                   	push   rbp
    56d1:	48 89 e5             	mov    rbp,rsp
    56d4:	48 83 ec 20          	sub    rsp,0x20
    56d8:	48 89 7d f8          	mov    QWORD PTR [rbp-0x8],rdi
    56dc:	48 89 75 f0          	mov    QWORD PTR [rbp-0x10],rsi
    56e0:	48 89 55 e8          	mov    QWORD PTR [rbp-0x18],rdx
    56e4:	48 8b 7d f8          	mov    rdi,QWORD PTR [rbp-0x8]
    56e8:	48 8b 75 f0          	mov    rsi,QWORD PTR [rbp-0x10]
    56ec:	48 8b 55 e8          	mov    rdx,QWORD PTR [rbp-0x18]
    56f0:	e8 4b c9 ff ff       	call   2040 <_ZSt11_Hash_bytesPKvmm@plt>
    56f5:	48 83 c4 20          	add    rsp,0x20
    56f9:	5d                   	pop    rbp
    56fa:	c3                   	ret
    56fb:	0f 1f 44 00 00       	nop    DWORD PTR [rax+rax*1+0x0]

0000000000005700 <_ZNKSt8__detail15_Hash_code_baseINSt7__cxx1112basic_stringIcSt11char_traitsIcESaIcEEESt4pairIKS6_5TokenENS_10_Select1stESt4hashIS6_ENS_18_Mod_range_hashingENS_20_Default_ranged_hashELb1EE15_M_bucket_indexEmm>:
    5700:	55                   	push   rbp
    5701:	48 89 e5             	mov    rbp,rsp
    5704:	48 83 ec 20          	sub    rsp,0x20
    5708:	48 89 7d f8          	mov    QWORD PTR [rbp-0x8],rdi
    570c:	48 89 75 f0          	mov    QWORD PTR [rbp-0x10],rsi
    5710:	48 89 55 e8          	mov    QWORD PTR [rbp-0x18],rdx
    5714:	48 8b 75 f0          	mov    rsi,QWORD PTR [rbp-0x10]
    5718:	48 8b 55 e8          	mov    rdx,QWORD PTR [rbp-0x18]
    571c:	48 8d 7d e0          	lea    rdi,[rbp-0x20]
    5720:	e8 0b 00 00 00       	call   5730 <_ZNKSt8__detail18_Mod_range_hashingclEmm>
    5725:	48 83 c4 20          	add    rsp,0x20
    5729:	5d                   	pop    rbp
    572a:	c3                   	ret
    572b:	0f 1f 44 00 00       	nop    DWORD PTR [rax+rax*1+0x0]

0000000000005730 <_ZNKSt8__detail18_Mod_range_hashingclEmm>:
    5730:	55                   	push   rbp
    5731:	48 89 e5             	mov    rbp,rsp
    5734:	48 89 7d f8          	mov    QWORD PTR [rbp-0x8],rdi
    5738:	48 89 75 f0          	mov    QWORD PTR [rbp-0x10],rsi
    573c:	48 89 55 e8          	mov    QWORD PTR [rbp-0x18],rdx
    5740:	48 8b 45 f0          	mov    rax,QWORD PTR [rbp-0x10]
    5744:	31 c9                	xor    ecx,ecx
    5746:	89 ca                	mov    edx,ecx
    5748:	48 f7 75 e8          	div    QWORD PTR [rbp-0x18]
    574c:	48 89 d0             	mov    rax,rdx
    574f:	5d                   	pop    rbp
    5750:	c3                   	ret
    5751:	66 2e 0f 1f 84 00 00 	cs nop WORD PTR [rax+rax*1+0x0]
    5758:	00 00 00 
    575b:	0f 1f 44 00 00       	nop    DWORD PTR [rax+rax*1+0x0]

0000000000005760 <_ZNKSt10_HashtableINSt7__cxx1112basic_stringIcSt11char_traitsIcESaIcEEESt4pairIKS5_5TokenESaIS9_ENSt8__detail10_Select1stESt8equal_toIS5_ESt4hashIS5_ENSB_18_Mod_range_hashingENSB_20_Default_ranged_hashENSB_20_Prime_rehash_policyENSB_17_Hashtable_traitsILb1ELb0ELb1EEEE19_M_find_before_nodeEmRS7_m>:
    5760:	55                   	push   rbp
    5761:	48 89 e5             	mov    rbp,rsp
    5764:	48 83 ec 40          	sub    rsp,0x40
    5768:	48 89 7d f0          	mov    QWORD PTR [rbp-0x10],rdi
    576c:	48 89 75 e8          	mov    QWORD PTR [rbp-0x18],rsi
    5770:	48 89 55 e0          	mov    QWORD PTR [rbp-0x20],rdx
    5774:	48 89 4d d8          	mov    QWORD PTR [rbp-0x28],rcx
    5778:	48 8b 45 f0          	mov    rax,QWORD PTR [rbp-0x10]
    577c:	48 89 45 c0          	mov    QWORD PTR [rbp-0x40],rax
    5780:	48 8b 00             	mov    rax,QWORD PTR [rax]
    5783:	48 8b 4d e8          	mov    rcx,QWORD PTR [rbp-0x18]
    5787:	48 8b 04 c8          	mov    rax,QWORD PTR [rax+rcx*8]
    578b:	48 89 45 d0          	mov    QWORD PTR [rbp-0x30],rax
    578f:	48 83 7d d0 00       	cmp    QWORD PTR [rbp-0x30],0x0
    5794:	0f 85 0d 00 00 00    	jne    57a7 <_ZNKSt10_HashtableINSt7__cxx1112basic_stringIcSt11char_traitsIcESaIcEEESt4pairIKS5_5TokenESaIS9_ENSt8__detail10_Select1stESt8equal_toIS5_ESt4hashIS5_ENSB_18_Mod_range_hashingENSB_20_Default_ranged_hashENSB_20_Prime_rehash_policyENSB_17_Hashtable_traitsILb1ELb0ELb1EEEE19_M_find_before_nodeEmRS7_m+0x47>
    579a:	48 c7 45 f8 00 00 00 	mov    QWORD PTR [rbp-0x8],0x0
    57a1:	00 
    57a2:	e9 96 00 00 00       	jmp    583d <_ZNKSt10_HashtableINSt7__cxx1112basic_stringIcSt11char_traitsIcESaIcEEESt4pairIKS5_5TokenESaIS9_ENSt8__detail10_Select1stESt8equal_toIS5_ESt4hashIS5_ENSB_18_Mod_range_hashingENSB_20_Default_ranged_hashENSB_20_Prime_rehash_policyENSB_17_Hashtable_traitsILb1ELb0ELb1EEEE19_M_find_before_nodeEmRS7_m+0xdd>
    57a7:	48 8b 45 d0          	mov    rax,QWORD PTR [rbp-0x30]
    57ab:	48 8b 00             	mov    rax,QWORD PTR [rax]
    57ae:	48 89 45 c8          	mov    QWORD PTR [rbp-0x38],rax
    57b2:	48 8b 7d c0          	mov    rdi,QWORD PTR [rbp-0x40]
    57b6:	48 8b 75 e0          	mov    rsi,QWORD PTR [rbp-0x20]
    57ba:	48 8b 55 d8          	mov    rdx,QWORD PTR [rbp-0x28]
    57be:	48 8b 4d c8          	mov    rcx,QWORD PTR [rbp-0x38]
    57c2:	48 83 c1 08          	add    rcx,0x8
    57c6:	e8 85 00 00 00       	call   5850 <_ZNKSt8__detail15_Hashtable_baseINSt7__cxx1112basic_stringIcSt11char_traitsIcESaIcEEESt4pairIKS6_5TokenENS_10_Select1stESt8equal_toIS6_ESt4hashIS6_ENS_18_Mod_range_hashingENS_20_Default_ranged_hashENS_17_Hashtable_traitsILb1ELb0ELb1EEEE9_M_equalsERS8_mRKNS_16_Hash_node_valueISA_Lb1EEE>
    57cb:	a8 01                	test   al,0x1
    57cd:	0f 85 05 00 00 00    	jne    57d8 <_ZNKSt10_HashtableINSt7__cxx1112basic_stringIcSt11char_traitsIcESaIcEEESt4pairIKS5_5TokenESaIS9_ENSt8__detail10_Select1stESt8equal_toIS5_ESt4hashIS5_ENSB_18_Mod_range_hashingENSB_20_Default_ranged_hashENSB_20_Prime_rehash_policyENSB_17_Hashtable_traitsILb1ELb0ELb1EEEE19_M_find_before_nodeEmRS7_m+0x78>
    57d3:	e9 0d 00 00 00       	jmp    57e5 <_ZNKSt10_HashtableINSt7__cxx1112basic_stringIcSt11char_traitsIcESaIcEEESt4pairIKS5_5TokenESaIS9_ENSt8__detail10_Select1stESt8equal_toIS5_ESt4hashIS5_ENSB_18_Mod_range_hashingENSB_20_Default_ranged_hashENSB_20_Prime_rehash_policyENSB_17_Hashtable_traitsILb1ELb0ELb1EEEE19_M_find_before_nodeEmRS7_m+0x85>
    57d8:	48 8b 45 d0          	mov    rax,QWORD PTR [rbp-0x30]
    57dc:	48 89 45 f8          	mov    QWORD PTR [rbp-0x8],rax
    57e0:	e9 58 00 00 00       	jmp    583d <_ZNKSt10_HashtableINSt7__cxx1112basic_stringIcSt11char_traitsIcESaIcEEESt4pairIKS5_5TokenESaIS9_ENSt8__detail10_Select1stESt8equal_toIS5_ESt4hashIS5_ENSB_18_Mod_range_hashingENSB_20_Default_ranged_hashENSB_20_Prime_rehash_policyENSB_17_Hashtable_traitsILb1ELb0ELb1EEEE19_M_find_before_nodeEmRS7_m+0xdd>
    57e5:	48 8b 45 c8          	mov    rax,QWORD PTR [rbp-0x38]
    57e9:	48 83 38 00          	cmp    QWORD PTR [rax],0x0
    57ed:	0f 84 23 00 00 00    	je     5816 <_ZNKSt10_HashtableINSt7__cxx1112basic_stringIcSt11char_traitsIcESaIcEEESt4pairIKS5_5TokenESaIS9_ENSt8__detail10_Select1stESt8equal_toIS5_ESt4hashIS5_ENSB_18_Mod_range_hashingENSB_20_Default_ranged_hashENSB_20_Prime_rehash_policyENSB_17_Hashtable_traitsILb1ELb0ELb1EEEE19_M_find_before_nodeEmRS7_m+0xb6>
    57f3:	48 8b 7d c8          	mov    rdi,QWORD PTR [rbp-0x38]
    57f7:	e8 94 dc ff ff       	call   3490 <_ZNKSt8__detail10_Hash_nodeISt4pairIKNSt7__cxx1112basic_stringIcSt11char_traitsIcESaIcEEE5TokenELb1EE7_M_nextEv>
    57fc:	48 8b 7d c0          	mov    rdi,QWORD PTR [rbp-0x40]
    5800:	48 89 c6             	mov    rsi,rax
    5803:	48 83 c6 08          	add    rsi,0x8
    5807:	e8 b4 00 00 00       	call   58c0 <_ZNKSt10_HashtableINSt7__cxx1112basic_stringIcSt11char_traitsIcESaIcEEESt4pairIKS5_5TokenESaIS9_ENSt8__detail10_Select1stESt8equal_toIS5_ESt4hashIS5_ENSB_18_Mod_range_hashingENSB_20_Default_ranged_hashENSB_20_Prime_rehash_policyENSB_17_Hashtable_traitsILb1ELb0ELb1EEEE15_M_bucket_indexERKNSB_16_Hash_node_valueIS9_Lb1EEE>
    580c:	48 3b 45 e8          	cmp    rax,QWORD PTR [rbp-0x18]
    5810:	0f 84 05 00 00 00    	je     581b <_ZNKSt10_HashtableINSt7__cxx1112basic_stringIcSt11char_traitsIcESaIcEEESt4pairIKS5_5TokenESaIS9_ENSt8__detail10_Select1stESt8equal_toIS5_ESt4hashIS5_ENSB_18_Mod_range_hashingENSB_20_Default_ranged_hashENSB_20_Prime_rehash_policyENSB_17_Hashtable_traitsILb1ELb0ELb1EEEE19_M_find_before_nodeEmRS7_m+0xbb>
    5816:	e9 1a 00 00 00       	jmp    5835 <_ZNKSt10_HashtableINSt7__cxx1112basic_stringIcSt11char_traitsIcESaIcEEESt4pairIKS5_5TokenESaIS9_ENSt8__detail10_Select1stESt8equal_toIS5_ESt4hashIS5_ENSB_18_Mod_range_hashingENSB_20_Default_ranged_hashENSB_20_Prime_rehash_policyENSB_17_Hashtable_traitsILb1ELb0ELb1EEEE19_M_find_before_nodeEmRS7_m+0xd5>
    581b:	48 8b 45 c8          	mov    rax,QWORD PTR [rbp-0x38]
    581f:	48 89 45 d0          	mov    QWORD PTR [rbp-0x30],rax
    5823:	48 8b 7d c8          	mov    rdi,QWORD PTR [rbp-0x38]
    5827:	e8 64 dc ff ff       	call   3490 <_ZNKSt8__detail10_Hash_nodeISt4pairIKNSt7__cxx1112basic_stringIcSt11char_traitsIcESaIcEEE5TokenELb1EE7_M_nextEv>
    582c:	48 89 45 c8          	mov    QWORD PTR [rbp-0x38],rax
    5830:	e9 7d ff ff ff       	jmp    57b2 <_ZNKSt10_HashtableINSt7__cxx1112basic_stringIcSt11char_traitsIcESaIcEEESt4pairIKS5_5TokenESaIS9_ENSt8__detail10_Select1stESt8equal_toIS5_ESt4hashIS5_ENSB_18_Mod_range_hashingENSB_20_Default_ranged_hashENSB_20_Prime_rehash_policyENSB_17_Hashtable_traitsILb1ELb0ELb1EEEE19_M_find_before_nodeEmRS7_m+0x52>
    5835:	48 c7 45 f8 00 00 00 	mov    QWORD PTR [rbp-0x8],0x0
    583c:	00 
    583d:	48 8b 45 f8          	mov    rax,QWORD PTR [rbp-0x8]
    5841:	48 83 c4 40          	add    rsp,0x40
    5845:	5d                   	pop    rbp
    5846:	c3                   	ret
    5847:	66 0f 1f 84 00 00 00 	nop    WORD PTR [rax+rax*1+0x0]
    584e:	00 00 

0000000000005850 <_ZNKSt8__detail15_Hashtable_baseINSt7__cxx1112basic_stringIcSt11char_traitsIcESaIcEEESt4pairIKS6_5TokenENS_10_Select1stESt8equal_toIS6_ESt4hashIS6_ENS_18_Mod_range_hashingENS_20_Default_ranged_hashENS_17_Hashtable_traitsILb1ELb0ELb1EEEE9_M_equalsERS8_mRKNS_16_Hash_node_valueISA_Lb1EEE>:
    5850:	55                   	push   rbp
    5851:	48 89 e5             	mov    rbp,rsp
    5854:	48 83 ec 30          	sub    rsp,0x30
    5858:	48 89 7d f8          	mov    QWORD PTR [rbp-0x8],rdi
    585c:	48 89 75 f0          	mov    QWORD PTR [rbp-0x10],rsi
    5860:	48 89 55 e8          	mov    QWORD PTR [rbp-0x18],rdx
    5864:	48 89 4d e0          	mov    QWORD PTR [rbp-0x20],rcx
    5868:	48 8b 45 f8          	mov    rax,QWORD PTR [rbp-0x8]
    586c:	48 89 45 d0          	mov    QWORD PTR [rbp-0x30],rax
    5870:	48 8b 7d e8          	mov    rdi,QWORD PTR [rbp-0x18]
    5874:	48 8b 75 e0          	mov    rsi,QWORD PTR [rbp-0x20]
    5878:	48 83 c6 28          	add    rsi,0x28
    587c:	e8 6f 00 00 00       	call   58f0 <_ZNSt8__detail15_Hashtable_baseINSt7__cxx1112basic_stringIcSt11char_traitsIcESaIcEEESt4pairIKS6_5TokenENS_10_Select1stESt8equal_toIS6_ESt4hashIS6_ENS_18_Mod_range_hashingENS_20_Default_ranged_hashENS_17_Hashtable_traitsILb1ELb0ELb1EEEE9_S_equalsEmRKNS_21_Hash_node_code_cacheILb1EEE>
    5881:	88 c1                	mov    cl,al
    5883:	31 c0                	xor    eax,eax
    5885:	f6 c1 01             	test   cl,0x1
    5888:	88 45 df             	mov    BYTE PTR [rbp-0x21],al
    588b:	0f 85 05 00 00 00    	jne    5896 <_ZNKSt8__detail15_Hashtable_baseINSt7__cxx1112basic_stringIcSt11char_traitsIcESaIcEEESt4pairIKS6_5TokenENS_10_Select1stESt8equal_toIS6_ESt4hashIS6_ENS_18_Mod_range_hashingENS_20_Default_ranged_hashENS_17_Hashtable_traitsILb1ELb0ELb1EEEE9_M_equalsERS8_mRKNS_16_Hash_node_valueISA_Lb1EEE+0x46>
    5891:	e9 14 00 00 00       	jmp    58aa <_ZNKSt8__detail15_Hashtable_baseINSt7__cxx1112basic_stringIcSt11char_traitsIcESaIcEEESt4pairIKS6_5TokenENS_10_Select1stESt8equal_toIS6_ESt4hashIS6_ENS_18_Mod_range_hashingENS_20_Default_ranged_hashENS_17_Hashtable_traitsILb1ELb0ELb1EEEE9_M_equalsERS8_mRKNS_16_Hash_node_valueISA_Lb1EEE+0x5a>
    5896:	48 8b 7d d0          	mov    rdi,QWORD PTR [rbp-0x30]
    589a:	48 8b 75 f0          	mov    rsi,QWORD PTR [rbp-0x10]
    589e:	48 8b 55 e0          	mov    rdx,QWORD PTR [rbp-0x20]
    58a2:	e8 f9 f9 ff ff       	call   52a0 <_ZNKSt8__detail15_Hashtable_baseINSt7__cxx1112basic_stringIcSt11char_traitsIcESaIcEEESt4pairIKS6_5TokenENS_10_Select1stESt8equal_toIS6_ESt4hashIS6_ENS_18_Mod_range_hashingENS_20_Default_ranged_hashENS_17_Hashtable_traitsILb1ELb0ELb1EEEE13_M_key_equalsERS8_RKNS_16_Hash_node_valueISA_Lb1EEE>
    58a7:	88 45 df             	mov    BYTE PTR [rbp-0x21],al
    58aa:	8a 45 df             	mov    al,BYTE PTR [rbp-0x21]
    58ad:	24 01                	and    al,0x1
    58af:	0f b6 c0             	movzx  eax,al
    58b2:	48 83 c4 30          	add    rsp,0x30
    58b6:	5d                   	pop    rbp
    58b7:	c3                   	ret
    58b8:	0f 1f 84 00 00 00 00 	nop    DWORD PTR [rax+rax*1+0x0]
    58bf:	00 

00000000000058c0 <_ZNKSt10_HashtableINSt7__cxx1112basic_stringIcSt11char_traitsIcESaIcEEESt4pairIKS5_5TokenESaIS9_ENSt8__detail10_Select1stESt8equal_toIS5_ESt4hashIS5_ENSB_18_Mod_range_hashingENSB_20_Default_ranged_hashENSB_20_Prime_rehash_policyENSB_17_Hashtable_traitsILb1ELb0ELb1EEEE15_M_bucket_indexERKNSB_16_Hash_node_valueIS9_Lb1EEE>:
    58c0:	55                   	push   rbp
    58c1:	48 89 e5             	mov    rbp,rsp
    58c4:	48 83 ec 10          	sub    rsp,0x10
    58c8:	48 89 7d f8          	mov    QWORD PTR [rbp-0x8],rdi
    58cc:	48 89 75 f0          	mov    QWORD PTR [rbp-0x10],rsi
    58d0:	48 8b 7d f8          	mov    rdi,QWORD PTR [rbp-0x8]
    58d4:	48 8b 75 f0          	mov    rsi,QWORD PTR [rbp-0x10]
    58d8:	48 8b 57 08          	mov    rdx,QWORD PTR [rdi+0x8]
    58dc:	e8 3f 00 00 00       	call   5920 <_ZNKSt8__detail15_Hash_code_baseINSt7__cxx1112basic_stringIcSt11char_traitsIcESaIcEEESt4pairIKS6_5TokenENS_10_Select1stESt4hashIS6_ENS_18_Mod_range_hashingENS_20_Default_ranged_hashELb1EE15_M_bucket_indexERKNS_16_Hash_node_valueISA_Lb1EEEm>
    58e1:	48 83 c4 10          	add    rsp,0x10
    58e5:	5d                   	pop    rbp
    58e6:	c3                   	ret
    58e7:	66 0f 1f 84 00 00 00 	nop    WORD PTR [rax+rax*1+0x0]
    58ee:	00 00 

00000000000058f0 <_ZNSt8__detail15_Hashtable_baseINSt7__cxx1112basic_stringIcSt11char_traitsIcESaIcEEESt4pairIKS6_5TokenENS_10_Select1stESt8equal_toIS6_ESt4hashIS6_ENS_18_Mod_range_hashingENS_20_Default_ranged_hashENS_17_Hashtable_traitsILb1ELb0ELb1EEEE9_S_equalsEmRKNS_21_Hash_node_code_cacheILb1EEE>:
    58f0:	55                   	push   rbp
    58f1:	48 89 e5             	mov    rbp,rsp
    58f4:	48 89 7d f8          	mov    QWORD PTR [rbp-0x8],rdi
    58f8:	48 89 75 f0          	mov    QWORD PTR [rbp-0x10],rsi
    58fc:	48 8b 45 f8          	mov    rax,QWORD PTR [rbp-0x8]
    5900:	48 8b 4d f0          	mov    rcx,QWORD PTR [rbp-0x10]
    5904:	48 3b 01             	cmp    rax,QWORD PTR [rcx]
    5907:	0f 94 c0             	sete   al
    590a:	24 01                	and    al,0x1
    590c:	0f b6 c0             	movzx  eax,al
    590f:	5d                   	pop    rbp
    5910:	c3                   	ret
    5911:	66 2e 0f 1f 84 00 00 	cs nop WORD PTR [rax+rax*1+0x0]
    5918:	00 00 00 
    591b:	0f 1f 44 00 00       	nop    DWORD PTR [rax+rax*1+0x0]

0000000000005920 <_ZNKSt8__detail15_Hash_code_baseINSt7__cxx1112basic_stringIcSt11char_traitsIcESaIcEEESt4pairIKS6_5TokenENS_10_Select1stESt4hashIS6_ENS_18_Mod_range_hashingENS_20_Default_ranged_hashELb1EE15_M_bucket_indexERKNS_16_Hash_node_valueISA_Lb1EEEm>:
    5920:	55                   	push   rbp
    5921:	48 89 e5             	mov    rbp,rsp
    5924:	48 83 ec 20          	sub    rsp,0x20
    5928:	48 89 7d f8          	mov    QWORD PTR [rbp-0x8],rdi
    592c:	48 89 75 f0          	mov    QWORD PTR [rbp-0x10],rsi
    5930:	48 89 55 e8          	mov    QWORD PTR [rbp-0x18],rdx
    5934:	48 8b 45 f0          	mov    rax,QWORD PTR [rbp-0x10]
    5938:	48 8b 70 28          	mov    rsi,QWORD PTR [rax+0x28]
    593c:	48 8b 55 e8          	mov    rdx,QWORD PTR [rbp-0x18]
    5940:	48 8d 7d e0          	lea    rdi,[rbp-0x20]
    5944:	e8 e7 fd ff ff       	call   5730 <_ZNKSt8__detail18_Mod_range_hashingclEmm>
    5949:	48 83 c4 20          	add    rsp,0x20
    594d:	5d                   	pop    rbp
    594e:	c3                   	ret
    594f:	90                   	nop

0000000000005950 <_ZNSt8__detail19_Node_iterator_baseISt4pairIKNSt7__cxx1112basic_stringIcSt11char_traitsIcESaIcEEE5TokenELb1EEC2EPNS_10_Hash_nodeISA_Lb1EEE>:
    5950:	55                   	push   rbp
    5951:	48 89 e5             	mov    rbp,rsp
    5954:	48 89 7d f8          	mov    QWORD PTR [rbp-0x8],rdi
    5958:	48 89 75 f0          	mov    QWORD PTR [rbp-0x10],rsi
    595c:	48 8b 45 f8          	mov    rax,QWORD PTR [rbp-0x8]
    5960:	48 8b 4d f0          	mov    rcx,QWORD PTR [rbp-0x10]
    5964:	48 89 08             	mov    QWORD PTR [rax],rcx
    5967:	5d                   	pop    rbp
    5968:	c3                   	ret
    5969:	0f 1f 80 00 00 00 00 	nop    DWORD PTR [rax+0x0]

0000000000005970 <_ZNSt15__new_allocatorISt4pairIKNSt7__cxx1112basic_stringIcSt11char_traitsIcESaIcEEE5TokenEEC2Ev>:
    5970:	55                   	push   rbp
    5971:	48 89 e5             	mov    rbp,rsp
    5974:	48 89 7d f8          	mov    QWORD PTR [rbp-0x8],rdi
    5978:	5d                   	pop    rbp
    5979:	c3                   	ret
    597a:	66 0f 1f 44 00 00    	nop    WORD PTR [rax+rax*1+0x0]

0000000000005980 <_ZNSt15__new_allocatorISt4pairIKNSt7__cxx1112basic_stringIcSt11char_traitsIcESaIcEEE5TokenEED2Ev>:
    5980:	55                   	push   rbp
    5981:	48 89 e5             	mov    rbp,rsp
    5984:	48 89 7d f8          	mov    QWORD PTR [rbp-0x8],rdi
    5988:	5d                   	pop    rbp
    5989:	c3                   	ret
    598a:	66 0f 1f 44 00 00    	nop    WORD PTR [rax+rax*1+0x0]

0000000000005990 <_ZNSt10_HashtableINSt7__cxx1112basic_stringIcSt11char_traitsIcESaIcEEESt4pairIKS5_5TokenESaIS9_ENSt8__detail10_Select1stESt8equal_toIS5_ESt4hashIS5_ENSB_18_Mod_range_hashingENSB_20_Default_ranged_hashENSB_20_Prime_rehash_policyENSB_17_Hashtable_traitsILb1ELb0ELb1EEEEC2ESt16initializer_listIS9_EmRKSG_RKSE_RKSA_>:
    5990:	55                   	push   rbp
    5991:	48 89 e5             	mov    rbp,rsp
    5994:	48 83 ec 50          	sub    rsp,0x50
    5998:	48 8b 45 10          	mov    rax,QWORD PTR [rbp+0x10]
    599c:	48 89 75 f0          	mov    QWORD PTR [rbp-0x10],rsi
    59a0:	48 89 55 f8          	mov    QWORD PTR [rbp-0x8],rdx
    59a4:	48 89 7d e8          	mov    QWORD PTR [rbp-0x18],rdi
    59a8:	48 89 4d e0          	mov    QWORD PTR [rbp-0x20],rcx
    59ac:	4c 89 45 d8          	mov    QWORD PTR [rbp-0x28],r8
    59b0:	4c 89 4d d0          	mov    QWORD PTR [rbp-0x30],r9
    59b4:	48 8b 45 e8          	mov    rax,QWORD PTR [rbp-0x18]
    59b8:	48 89 45 b8          	mov    QWORD PTR [rbp-0x48],rax
    59bc:	48 8d 7d f0          	lea    rdi,[rbp-0x10]
    59c0:	e8 3b 00 00 00       	call   5a00 <_ZNKSt16initializer_listISt4pairIKNSt7__cxx1112basic_stringIcSt11char_traitsIcESaIcEEE5TokenEE5beginEv>
    59c5:	48 89 45 c0          	mov    QWORD PTR [rbp-0x40],rax
    59c9:	48 8d 7d f0          	lea    rdi,[rbp-0x10]
    59cd:	e8 4e 00 00 00       	call   5a20 <_ZNKSt16initializer_listISt4pairIKNSt7__cxx1112basic_stringIcSt11char_traitsIcESaIcEEE5TokenEE3endEv>
    59d2:	48 8b 7d b8          	mov    rdi,QWORD PTR [rbp-0x48]
    59d6:	48 8b 75 c0          	mov    rsi,QWORD PTR [rbp-0x40]
    59da:	48 89 c2             	mov    rdx,rax
    59dd:	48 8b 4d e0          	mov    rcx,QWORD PTR [rbp-0x20]
    59e1:	4c 8b 45 d8          	mov    r8,QWORD PTR [rbp-0x28]
    59e5:	4c 8b 4d d0          	mov    r9,QWORD PTR [rbp-0x30]
    59e9:	48 8b 45 10          	mov    rax,QWORD PTR [rbp+0x10]
    59ed:	48 89 04 24          	mov    QWORD PTR [rsp],rax
    59f1:	e8 6a 00 00 00       	call   5a60 <_ZNSt10_HashtableINSt7__cxx1112basic_stringIcSt11char_traitsIcESaIcEEESt4pairIKS5_5TokenESaIS9_ENSt8__detail10_Select1stESt8equal_toIS5_ESt4hashIS5_ENSB_18_Mod_range_hashingENSB_20_Default_ranged_hashENSB_20_Prime_rehash_policyENSB_17_Hashtable_traitsILb1ELb0ELb1EEEEC2IPKS9_EET_SQ_mRKSG_RKSE_RKSA_St17integral_constantIbLb1EE>
    59f6:	48 83 c4 50          	add    rsp,0x50
    59fa:	5d                   	pop    rbp
    59fb:	c3                   	ret
    59fc:	0f 1f 40 00          	nop    DWORD PTR [rax+0x0]

0000000000005a00 <_ZNKSt16initializer_listISt4pairIKNSt7__cxx1112basic_stringIcSt11char_traitsIcESaIcEEE5TokenEE5beginEv>:
    5a00:	55                   	push   rbp
    5a01:	48 89 e5             	mov    rbp,rsp
    5a04:	48 89 7d f8          	mov    QWORD PTR [rbp-0x8],rdi
    5a08:	48 8b 45 f8          	mov    rax,QWORD PTR [rbp-0x8]
    5a0c:	48 8b 00             	mov    rax,QWORD PTR [rax]
    5a0f:	5d                   	pop    rbp
    5a10:	c3                   	ret
    5a11:	66 2e 0f 1f 84 00 00 	cs nop WORD PTR [rax+rax*1+0x0]
    5a18:	00 00 00 
    5a1b:	0f 1f 44 00 00       	nop    DWORD PTR [rax+rax*1+0x0]

0000000000005a20 <_ZNKSt16initializer_listISt4pairIKNSt7__cxx1112basic_stringIcSt11char_traitsIcESaIcEEE5TokenEE3endEv>:
    5a20:	55                   	push   rbp
    5a21:	48 89 e5             	mov    rbp,rsp
    5a24:	48 83 ec 20          	sub    rsp,0x20
    5a28:	48 89 7d f8          	mov    QWORD PTR [rbp-0x8],rdi
    5a2c:	48 8b 7d f8          	mov    rdi,QWORD PTR [rbp-0x8]
    5a30:	48 89 7d e8          	mov    QWORD PTR [rbp-0x18],rdi
    5a34:	e8 c7 ff ff ff       	call   5a00 <_ZNKSt16initializer_listISt4pairIKNSt7__cxx1112basic_stringIcSt11char_traitsIcESaIcEEE5TokenEE5beginEv>
    5a39:	48 8b 7d e8          	mov    rdi,QWORD PTR [rbp-0x18]
    5a3d:	48 89 45 f0          	mov    QWORD PTR [rbp-0x10],rax
    5a41:	e8 ca 00 00 00       	call   5b10 <_ZNKSt16initializer_listISt4pairIKNSt7__cxx1112basic_stringIcSt11char_traitsIcESaIcEEE5TokenEE4sizeEv>
    5a46:	48 89 c1             	mov    rcx,rax
    5a49:	48 8b 45 f0          	mov    rax,QWORD PTR [rbp-0x10]
    5a4d:	48 6b c9 28          	imul   rcx,rcx,0x28
    5a51:	48 01 c8             	add    rax,rcx
    5a54:	48 83 c4 20          	add    rsp,0x20
    5a58:	5d                   	pop    rbp
    5a59:	c3                   	ret
    5a5a:	66 0f 1f 44 00 00    	nop    WORD PTR [rax+rax*1+0x0]

0000000000005a60 <_ZNSt10_HashtableINSt7__cxx1112basic_stringIcSt11char_traitsIcESaIcEEESt4pairIKS5_5TokenESaIS9_ENSt8__detail10_Select1stESt8equal_toIS5_ESt4hashIS5_ENSB_18_Mod_range_hashingENSB_20_Default_ranged_hashENSB_20_Prime_rehash_policyENSB_17_Hashtable_traitsILb1ELb0ELb1EEEEC2IPKS9_EET_SQ_mRKSG_RKSE_RKSA_St17integral_constantIbLb1EE>:
    5a60:	55                   	push   rbp
    5a61:	48 89 e5             	mov    rbp,rsp
    5a64:	48 83 ec 70          	sub    rsp,0x70
    5a68:	48 8b 45 10          	mov    rax,QWORD PTR [rbp+0x10]
    5a6c:	48 89 7d f0          	mov    QWORD PTR [rbp-0x10],rdi
    5a70:	48 89 75 e8          	mov    QWORD PTR [rbp-0x18],rsi
    5a74:	48 89 55 e0          	mov    QWORD PTR [rbp-0x20],rdx
    5a78:	48 89 4d d8          	mov    QWORD PTR [rbp-0x28],rcx
    5a7c:	4c 89 45 d0          	mov    QWORD PTR [rbp-0x30],r8
    5a80:	4c 89 4d c8          	mov    QWORD PTR [rbp-0x38],r9
    5a84:	48 8b 7d f0          	mov    rdi,QWORD PTR [rbp-0x10]
    5a88:	48 89 7d a0          	mov    QWORD PTR [rbp-0x60],rdi
    5a8c:	48 8b 75 d8          	mov    rsi,QWORD PTR [rbp-0x28]
    5a90:	48 8b 55 d0          	mov    rdx,QWORD PTR [rbp-0x30]
    5a94:	48 8b 4d c8          	mov    rcx,QWORD PTR [rbp-0x38]
    5a98:	4c 8b 45 10          	mov    r8,QWORD PTR [rbp+0x10]
    5a9c:	e8 8f 00 00 00       	call   5b30 <_ZNSt10_HashtableINSt7__cxx1112basic_stringIcSt11char_traitsIcESaIcEEESt4pairIKS5_5TokenESaIS9_ENSt8__detail10_Select1stESt8equal_toIS5_ESt4hashIS5_ENSB_18_Mod_range_hashingENSB_20_Default_ranged_hashENSB_20_Prime_rehash_policyENSB_17_Hashtable_traitsILb1ELb0ELb1EEEEC2EmRKSG_RKSE_RKSA_>
    5aa1:	48 8b 45 e8          	mov    rax,QWORD PTR [rbp-0x18]
    5aa5:	48 3b 45 e0          	cmp    rax,QWORD PTR [rbp-0x20]
    5aa9:	0f 84 52 00 00 00    	je     5b01 <_ZNSt10_HashtableINSt7__cxx1112basic_stringIcSt11char_traitsIcESaIcEEESt4pairIKS5_5TokenESaIS9_ENSt8__detail10_Select1stESt8equal_toIS5_ESt4hashIS5_ENSB_18_Mod_range_hashingENSB_20_Default_ranged_hashENSB_20_Prime_rehash_policyENSB_17_Hashtable_traitsILb1ELb0ELb1EEEEC2IPKS9_EET_SQ_mRKSG_RKSE_RKSA_St17integral_constantIbLb1EE+0xa1>
    5aaf:	48 8b 7d a0          	mov    rdi,QWORD PTR [rbp-0x60]
    5ab3:	48 8b 75 e8          	mov    rsi,QWORD PTR [rbp-0x18]
    5ab7:	e8 34 01 00 00       	call   5bf0 <_ZNSt8__detail12_Insert_baseINSt7__cxx1112basic_stringIcSt11char_traitsIcESaIcEEESt4pairIKS6_5TokenESaISA_ENS_10_Select1stESt8equal_toIS6_ESt4hashIS6_ENS_18_Mod_range_hashingENS_20_Default_ranged_hashENS_20_Prime_rehash_policyENS_17_Hashtable_traitsILb1ELb0ELb1EEEE6insertERKSA_>
    5abc:	88 55 97             	mov    BYTE PTR [rbp-0x69],dl
    5abf:	48 89 45 98          	mov    QWORD PTR [rbp-0x68],rax
    5ac3:	e9 00 00 00 00       	jmp    5ac8 <_ZNSt10_HashtableINSt7__cxx1112basic_stringIcSt11char_traitsIcESaIcEEESt4pairIKS5_5TokenESaIS9_ENSt8__detail10_Select1stESt8equal_toIS5_ESt4hashIS5_ENSB_18_Mod_range_hashingENSB_20_Default_ranged_hashENSB_20_Prime_rehash_policyENSB_17_Hashtable_traitsILb1ELb0ELb1EEEEC2IPKS9_EET_SQ_mRKSG_RKSE_RKSA_St17integral_constantIbLb1EE+0x68>
    5ac8:	8a 45 97             	mov    al,BYTE PTR [rbp-0x69]
    5acb:	48 8b 4d 98          	mov    rcx,QWORD PTR [rbp-0x68]
    5acf:	48 89 4d a8          	mov    QWORD PTR [rbp-0x58],rcx
    5ad3:	88 45 b0             	mov    BYTE PTR [rbp-0x50],al
    5ad6:	48 8b 45 e8          	mov    rax,QWORD PTR [rbp-0x18]
    5ada:	48 83 c0 28          	add    rax,0x28
    5ade:	48 89 45 e8          	mov    QWORD PTR [rbp-0x18],rax
    5ae2:	e9 ba ff ff ff       	jmp    5aa1 <_ZNSt10_HashtableINSt7__cxx1112basic_stringIcSt11char_traitsIcESaIcEEESt4pairIKS5_5TokenESaIS9_ENSt8__detail10_Select1stESt8equal_toIS5_ESt4hashIS5_ENSB_18_Mod_range_hashingENSB_20_Default_ranged_hashENSB_20_Prime_rehash_policyENSB_17_Hashtable_traitsILb1ELb0ELb1EEEEC2IPKS9_EET_SQ_mRKSG_RKSE_RKSA_St17integral_constantIbLb1EE+0x41>
    5ae7:	48 8b 7d a0          	mov    rdi,QWORD PTR [rbp-0x60]
    5aeb:	48 89 c1             	mov    rcx,rax
    5aee:	89 d0                	mov    eax,edx
    5af0:	48 89 4d c0          	mov    QWORD PTR [rbp-0x40],rcx
    5af4:	89 45 bc             	mov    DWORD PTR [rbp-0x44],eax
    5af7:	e8 14 d8 ff ff       	call   3310 <_ZNSt10_HashtableINSt7__cxx1112basic_stringIcSt11char_traitsIcESaIcEEESt4pairIKS5_5TokenESaIS9_ENSt8__detail10_Select1stESt8equal_toIS5_ESt4hashIS5_ENSB_18_Mod_range_hashingENSB_20_Default_ranged_hashENSB_20_Prime_rehash_policyENSB_17_Hashtable_traitsILb1ELb0ELb1EEEED2Ev>
    5afc:	e9 06 00 00 00       	jmp    5b07 <_ZNSt10_HashtableINSt7__cxx1112basic_stringIcSt11char_traitsIcESaIcEEESt4pairIKS5_5TokenESaIS9_ENSt8__detail10_Select1stESt8equal_toIS5_ESt4hashIS5_ENSB_18_Mod_range_hashingENSB_20_Default_ranged_hashENSB_20_Prime_rehash_policyENSB_17_Hashtable_traitsILb1ELb0ELb1EEEEC2IPKS9_EET_SQ_mRKSG_RKSE_RKSA_St17integral_constantIbLb1EE+0xa7>
    5b01:	48 83 c4 70          	add    rsp,0x70
    5b05:	5d                   	pop    rbp
    5b06:	c3                   	ret
    5b07:	48 8b 7d c0          	mov    rdi,QWORD PTR [rbp-0x40]
    5b0b:	e8 d0 c7 ff ff       	call   22e0 <_Unwind_Resume@plt>

0000000000005b10 <_ZNKSt16initializer_listISt4pairIKNSt7__cxx1112basic_stringIcSt11char_traitsIcESaIcEEE5TokenEE4sizeEv>:
    5b10:	55                   	push   rbp
    5b11:	48 89 e5             	mov    rbp,rsp
    5b14:	48 89 7d f8          	mov    QWORD PTR [rbp-0x8],rdi
    5b18:	48 8b 45 f8          	mov    rax,QWORD PTR [rbp-0x8]
    5b1c:	48 8b 40 08          	mov    rax,QWORD PTR [rax+0x8]
    5b20:	5d                   	pop    rbp
    5b21:	c3                   	ret
    5b22:	66 2e 0f 1f 84 00 00 	cs nop WORD PTR [rax+rax*1+0x0]
    5b29:	00 00 00 
    5b2c:	0f 1f 40 00          	nop    DWORD PTR [rax+0x0]

0000000000005b30 <_ZNSt10_HashtableINSt7__cxx1112basic_stringIcSt11char_traitsIcESaIcEEESt4pairIKS5_5TokenESaIS9_ENSt8__detail10_Select1stESt8equal_toIS5_ESt4hashIS5_ENSB_18_Mod_range_hashingENSB_20_Default_ranged_hashENSB_20_Prime_rehash_policyENSB_17_Hashtable_traitsILb1ELb0ELb1EEEEC2EmRKSG_RKSE_RKSA_>:
    5b30:	55                   	push   rbp
    5b31:	48 89 e5             	mov    rbp,rsp
    5b34:	48 83 ec 60          	sub    rsp,0x60
    5b38:	48 89 7d f8          	mov    QWORD PTR [rbp-0x8],rdi
    5b3c:	48 89 75 f0          	mov    QWORD PTR [rbp-0x10],rsi
    5b40:	48 89 55 e8          	mov    QWORD PTR [rbp-0x18],rdx
    5b44:	48 89 4d e0          	mov    QWORD PTR [rbp-0x20],rcx
    5b48:	4c 89 45 d8          	mov    QWORD PTR [rbp-0x28],r8
    5b4c:	48 8b 7d f8          	mov    rdi,QWORD PTR [rbp-0x8]
    5b50:	48 89 7d b0          	mov    QWORD PTR [rbp-0x50],rdi
    5b54:	48 8b 75 e8          	mov    rsi,QWORD PTR [rbp-0x18]
    5b58:	48 8b 55 e0          	mov    rdx,QWORD PTR [rbp-0x20]
    5b5c:	48 8b 4d d8          	mov    rcx,QWORD PTR [rbp-0x28]
    5b60:	e8 eb 00 00 00       	call   5c50 <_ZNSt10_HashtableINSt7__cxx1112basic_stringIcSt11char_traitsIcESaIcEEESt4pairIKS5_5TokenESaIS9_ENSt8__detail10_Select1stESt8equal_toIS5_ESt4hashIS5_ENSB_18_Mod_range_hashingENSB_20_Default_ranged_hashENSB_20_Prime_rehash_policyENSB_17_Hashtable_traitsILb1ELb0ELb1EEEEC2ERKSG_RKSE_RKSA_>
    5b65:	48 8b 7d b0          	mov    rdi,QWORD PTR [rbp-0x50]
    5b69:	48 83 c7 20          	add    rdi,0x20
    5b6d:	48 8b 75 f0          	mov    rsi,QWORD PTR [rbp-0x10]
    5b71:	e8 ba c5 ff ff       	call   2130 <_ZNKSt8__detail20_Prime_rehash_policy11_M_next_bktEm@plt>
    5b76:	48 89 45 b8          	mov    QWORD PTR [rbp-0x48],rax
    5b7a:	e9 00 00 00 00       	jmp    5b7f <_ZNSt10_HashtableINSt7__cxx1112basic_stringIcSt11char_traitsIcESaIcEEESt4pairIKS5_5TokenESaIS9_ENSt8__detail10_Select1stESt8equal_toIS5_ESt4hashIS5_ENSB_18_Mod_range_hashingENSB_20_Default_ranged_hashENSB_20_Prime_rehash_policyENSB_17_Hashtable_traitsILb1ELb0ELb1EEEEC2EmRKSG_RKSE_RKSA_+0x4f>
    5b7f:	48 8b 4d b0          	mov    rcx,QWORD PTR [rbp-0x50]
    5b83:	48 8b 45 b8          	mov    rax,QWORD PTR [rbp-0x48]
    5b87:	48 89 45 d0          	mov    QWORD PTR [rbp-0x30],rax
    5b8b:	48 8b 45 d0          	mov    rax,QWORD PTR [rbp-0x30]
    5b8f:	48 3b 41 08          	cmp    rax,QWORD PTR [rcx+0x8]
    5b93:	0f 86 48 00 00 00    	jbe    5be1 <_ZNSt10_HashtableINSt7__cxx1112basic_stringIcSt11char_traitsIcESaIcEEESt4pairIKS5_5TokenESaIS9_ENSt8__detail10_Select1stESt8equal_toIS5_ESt4hashIS5_ENSB_18_Mod_range_hashingENSB_20_Default_ranged_hashENSB_20_Prime_rehash_policyENSB_17_Hashtable_traitsILb1ELb0ELb1EEEEC2EmRKSG_RKSE_RKSA_+0xb1>
    5b99:	48 8b 7d b0          	mov    rdi,QWORD PTR [rbp-0x50]
    5b9d:	48 8b 75 d0          	mov    rsi,QWORD PTR [rbp-0x30]
    5ba1:	e8 9a 01 00 00       	call   5d40 <_ZNSt10_HashtableINSt7__cxx1112basic_stringIcSt11char_traitsIcESaIcEEESt4pairIKS5_5TokenESaIS9_ENSt8__detail10_Select1stESt8equal_toIS5_ESt4hashIS5_ENSB_18_Mod_range_hashingENSB_20_Default_ranged_hashENSB_20_Prime_rehash_policyENSB_17_Hashtable_traitsILb1ELb0ELb1EEEE19_M_allocate_bucketsEm>
    5ba6:	48 89 45 a8          	mov    QWORD PTR [rbp-0x58],rax
    5baa:	e9 00 00 00 00       	jmp    5baf <_ZNSt10_HashtableINSt7__cxx1112basic_stringIcSt11char_traitsIcESaIcEEESt4pairIKS5_5TokenESaIS9_ENSt8__detail10_Select1stESt8equal_toIS5_ESt4hashIS5_ENSB_18_Mod_range_hashingENSB_20_Default_ranged_hashENSB_20_Prime_rehash_policyENSB_17_Hashtable_traitsILb1ELb0ELb1EEEEC2EmRKSG_RKSE_RKSA_+0x7f>
    5baf:	48 8b 45 b0          	mov    rax,QWORD PTR [rbp-0x50]
    5bb3:	48 8b 4d a8          	mov    rcx,QWORD PTR [rbp-0x58]
    5bb7:	48 89 08             	mov    QWORD PTR [rax],rcx
    5bba:	48 8b 4d d0          	mov    rcx,QWORD PTR [rbp-0x30]
    5bbe:	48 89 48 08          	mov    QWORD PTR [rax+0x8],rcx
    5bc2:	e9 1a 00 00 00       	jmp    5be1 <_ZNSt10_HashtableINSt7__cxx1112basic_stringIcSt11char_traitsIcESaIcEEESt4pairIKS5_5TokenESaIS9_ENSt8__detail10_Select1stESt8equal_toIS5_ESt4hashIS5_ENSB_18_Mod_range_hashingENSB_20_Default_ranged_hashENSB_20_Prime_rehash_policyENSB_17_Hashtable_traitsILb1ELb0ELb1EEEEC2EmRKSG_RKSE_RKSA_+0xb1>
    5bc7:	48 8b 7d b0          	mov    rdi,QWORD PTR [rbp-0x50]
    5bcb:	48 89 c1             	mov    rcx,rax
    5bce:	89 d0                	mov    eax,edx
    5bd0:	48 89 4d c8          	mov    QWORD PTR [rbp-0x38],rcx
    5bd4:	89 45 c4             	mov    DWORD PTR [rbp-0x3c],eax
    5bd7:	e8 34 d7 ff ff       	call   3310 <_ZNSt10_HashtableINSt7__cxx1112basic_stringIcSt11char_traitsIcESaIcEEESt4pairIKS5_5TokenESaIS9_ENSt8__detail10_Select1stESt8equal_toIS5_ESt4hashIS5_ENSB_18_Mod_range_hashingENSB_20_Default_ranged_hashENSB_20_Prime_rehash_policyENSB_17_Hashtable_traitsILb1ELb0ELb1EEEED2Ev>
    5bdc:	e9 06 00 00 00       	jmp    5be7 <_ZNSt10_HashtableINSt7__cxx1112basic_stringIcSt11char_traitsIcESaIcEEESt4pairIKS5_5TokenESaIS9_ENSt8__detail10_Select1stESt8equal_toIS5_ESt4hashIS5_ENSB_18_Mod_range_hashingENSB_20_Default_ranged_hashENSB_20_Prime_rehash_policyENSB_17_Hashtable_traitsILb1ELb0ELb1EEEEC2EmRKSG_RKSE_RKSA_+0xb7>
    5be1:	48 83 c4 60          	add    rsp,0x60
    5be5:	5d                   	pop    rbp
    5be6:	c3                   	ret
    5be7:	48 8b 7d c8          	mov    rdi,QWORD PTR [rbp-0x38]
    5beb:	e8 f0 c6 ff ff       	call   22e0 <_Unwind_Resume@plt>

0000000000005bf0 <_ZNSt8__detail12_Insert_baseINSt7__cxx1112basic_stringIcSt11char_traitsIcESaIcEEESt4pairIKS6_5TokenESaISA_ENS_10_Select1stESt8equal_toIS6_ESt4hashIS6_ENS_18_Mod_range_hashingENS_20_Default_ranged_hashENS_20_Prime_rehash_policyENS_17_Hashtable_traitsILb1ELb0ELb1EEEE6insertERKSA_>:
    5bf0:	55                   	push   rbp
    5bf1:	48 89 e5             	mov    rbp,rsp
    5bf4:	48 83 ec 40          	sub    rsp,0x40
    5bf8:	48 89 7d e8          	mov    QWORD PTR [rbp-0x18],rdi
    5bfc:	48 89 75 e0          	mov    QWORD PTR [rbp-0x20],rsi
    5c00:	48 8b 7d e8          	mov    rdi,QWORD PTR [rbp-0x18]
    5c04:	e8 e7 04 00 00       	call   60f0 <_ZNSt8__detail12_Insert_baseINSt7__cxx1112basic_stringIcSt11char_traitsIcESaIcEEESt4pairIKS6_5TokenESaISA_ENS_10_Select1stESt8equal_toIS6_ESt4hashIS6_ENS_18_Mod_range_hashingENS_20_Default_ranged_hashENS_20_Prime_rehash_policyENS_17_Hashtable_traitsILb1ELb0ELb1EEEE20_M_conjure_hashtableEv>
    5c09:	48 89 45 d8          	mov    QWORD PTR [rbp-0x28],rax
    5c0d:	48 8b 75 d8          	mov    rsi,QWORD PTR [rbp-0x28]
    5c11:	48 8d 7d d0          	lea    rdi,[rbp-0x30]
    5c15:	48 89 7d c0          	mov    QWORD PTR [rbp-0x40],rdi
    5c19:	e8 e2 04 00 00       	call   6100 <_ZNSt8__detail10_AllocNodeISaINS_10_Hash_nodeISt4pairIKNSt7__cxx1112basic_stringIcSt11char_traitsIcESaIcEEE5TokenELb1EEEEEC2ERNS_16_Hashtable_allocISD_EE>
    5c1e:	48 8b 55 c0          	mov    rdx,QWORD PTR [rbp-0x40]
    5c22:	48 8b 7d d8          	mov    rdi,QWORD PTR [rbp-0x28]
    5c26:	48 8b 75 e0          	mov    rsi,QWORD PTR [rbp-0x20]
    5c2a:	e8 f1 04 00 00       	call   6120 <_ZNSt10_HashtableINSt7__cxx1112basic_stringIcSt11char_traitsIcESaIcEEESt4pairIKS5_5TokenESaIS9_ENSt8__detail10_Select1stESt8equal_toIS5_ESt4hashIS5_ENSB_18_Mod_range_hashingENSB_20_Default_ranged_hashENSB_20_Prime_rehash_policyENSB_17_Hashtable_traitsILb1ELb0ELb1EEEE9_M_insertIRKS9_NSB_10_AllocNodeISaINSB_10_Hash_nodeIS9_Lb1EEEEEEEES6_INSB_14_Node_iteratorIS9_Lb0ELb1EEEbEOT_RKT0_St17integral_constantIbLb1EE>
    5c2f:	48 89 45 f0          	mov    QWORD PTR [rbp-0x10],rax
    5c33:	88 55 f8             	mov    BYTE PTR [rbp-0x8],dl
    5c36:	48 8b 45 f0          	mov    rax,QWORD PTR [rbp-0x10]
    5c3a:	8a 55 f8             	mov    dl,BYTE PTR [rbp-0x8]
    5c3d:	48 83 c4 40          	add    rsp,0x40
    5c41:	5d                   	pop    rbp
    5c42:	c3                   	ret
    5c43:	66 2e 0f 1f 84 00 00 	cs nop WORD PTR [rax+rax*1+0x0]
    5c4a:	00 00 00 
    5c4d:	0f 1f 00             	nop    DWORD PTR [rax]

0000000000005c50 <_ZNSt10_HashtableINSt7__cxx1112basic_stringIcSt11char_traitsIcESaIcEEESt4pairIKS5_5TokenESaIS9_ENSt8__detail10_Select1stESt8equal_toIS5_ESt4hashIS5_ENSB_18_Mod_range_hashingENSB_20_Default_ranged_hashENSB_20_Prime_rehash_policyENSB_17_Hashtable_traitsILb1ELb0ELb1EEEEC2ERKSG_RKSE_RKSA_>:
    5c50:	55                   	push   rbp
    5c51:	48 89 e5             	mov    rbp,rsp
    5c54:	48 83 ec 50          	sub    rsp,0x50
    5c58:	48 89 7d f8          	mov    QWORD PTR [rbp-0x8],rdi
    5c5c:	48 89 75 f0          	mov    QWORD PTR [rbp-0x10],rsi
    5c60:	48 89 55 e8          	mov    QWORD PTR [rbp-0x18],rdx
    5c64:	48 89 4d e0          	mov    QWORD PTR [rbp-0x20],rcx
    5c68:	48 8b 7d f8          	mov    rdi,QWORD PTR [rbp-0x8]
    5c6c:	48 89 7d b8          	mov    QWORD PTR [rbp-0x48],rdi
    5c70:	48 8b 75 f0          	mov    rsi,QWORD PTR [rbp-0x10]
    5c74:	48 8b 55 e8          	mov    rdx,QWORD PTR [rbp-0x18]
    5c78:	e8 23 01 00 00       	call   5da0 <_ZNSt8__detail15_Hashtable_baseINSt7__cxx1112basic_stringIcSt11char_traitsIcESaIcEEESt4pairIKS6_5TokenENS_10_Select1stESt8equal_toIS6_ESt4hashIS6_ENS_18_Mod_range_hashingENS_20_Default_ranged_hashENS_17_Hashtable_traitsILb1ELb0ELb1EEEEC2ERKSF_RKSD_>
    5c7d:	48 8b 75 e0          	mov    rsi,QWORD PTR [rbp-0x20]
    5c81:	48 8d 7d d8          	lea    rdi,[rbp-0x28]
    5c85:	48 89 7d c0          	mov    QWORD PTR [rbp-0x40],rdi
    5c89:	e8 52 01 00 00       	call   5de0 <_ZNSaINSt8__detail10_Hash_nodeISt4pairIKNSt7__cxx1112basic_stringIcSt11char_traitsIcESaIcEEE5TokenELb1EEEEC2ISA_EERKSaIT_E>
    5c8e:	48 8b 7d b8          	mov    rdi,QWORD PTR [rbp-0x48]
    5c92:	48 8b 75 c0          	mov    rsi,QWORD PTR [rbp-0x40]
    5c96:	e8 65 01 00 00       	call   5e00 <_ZNSt8__detail16_Hashtable_allocISaINS_10_Hash_nodeISt4pairIKNSt7__cxx1112basic_stringIcSt11char_traitsIcESaIcEEE5TokenELb1EEEEEC2ISD_EEOT_>
    5c9b:	e9 00 00 00 00       	jmp    5ca0 <_ZNSt10_HashtableINSt7__cxx1112basic_stringIcSt11char_traitsIcESaIcEEESt4pairIKS5_5TokenESaIS9_ENSt8__detail10_Select1stESt8equal_toIS5_ESt4hashIS5_ENSB_18_Mod_range_hashingENSB_20_Default_ranged_hashENSB_20_Prime_rehash_policyENSB_17_Hashtable_traitsILb1ELb0ELb1EEEEC2ERKSG_RKSE_RKSA_+0x50>
    5ca0:	48 8d 7d d8          	lea    rdi,[rbp-0x28]
    5ca4:	e8 87 01 00 00       	call   5e30 <_ZNSaINSt8__detail10_Hash_nodeISt4pairIKNSt7__cxx1112basic_stringIcSt11char_traitsIcESaIcEEE5TokenELb1EEEED2Ev>
    5ca9:	48 8b 7d b8          	mov    rdi,QWORD PTR [rbp-0x48]
    5cad:	e8 9e 01 00 00       	call   5e50 <_ZNSt27_Enable_default_constructorILb1ENSt8__detail15_Hash_node_baseEEC2ESt31_Enable_default_constructor_tag>
    5cb2:	e9 00 00 00 00       	jmp    5cb7 <_ZNSt10_HashtableINSt7__cxx1112basic_stringIcSt11char_traitsIcESaIcEEESt4pairIKS5_5TokenESaIS9_ENSt8__detail10_Select1stESt8equal_toIS5_ESt4hashIS5_ENSB_18_Mod_range_hashingENSB_20_Default_ranged_hashENSB_20_Prime_rehash_policyENSB_17_Hashtable_traitsILb1ELb0ELb1EEEEC2ERKSG_RKSE_RKSA_+0x67>
    5cb7:	48 8b 7d b8          	mov    rdi,QWORD PTR [rbp-0x48]
    5cbb:	48 89 f8             	mov    rax,rdi
    5cbe:	48 83 c0 30          	add    rax,0x30
    5cc2:	48 89 07             	mov    QWORD PTR [rdi],rax
    5cc5:	48 c7 47 08 01 00 00 	mov    QWORD PTR [rdi+0x8],0x1
    5ccc:	00 
    5ccd:	48 83 c7 10          	add    rdi,0x10
    5cd1:	e8 8a 01 00 00       	call   5e60 <_ZNSt8__detail15_Hash_node_baseC2Ev>
    5cd6:	48 8b 7d b8          	mov    rdi,QWORD PTR [rbp-0x48]
    5cda:	48 c7 47 18 00 00 00 	mov    QWORD PTR [rdi+0x18],0x0
    5ce1:	00 
    5ce2:	48 83 c7 20          	add    rdi,0x20
    5ce6:	f3 0f 10 05 8a 24 00 	movss  xmm0,DWORD PTR [rip+0x248a]        # 8178 <_IO_stdin_used+0x178>
    5ced:	00 
    5cee:	e8 8d 01 00 00       	call   5e80 <_ZNSt8__detail20_Prime_rehash_policyC2Ef>
    5cf3:	48 8b 45 b8          	mov    rax,QWORD PTR [rbp-0x48]
    5cf7:	48 c7 40 30 00 00 00 	mov    QWORD PTR [rax+0x30],0x0
    5cfe:	00 
    5cff:	48 83 c4 50          	add    rsp,0x50
    5d03:	5d                   	pop    rbp
    5d04:	c3                   	ret
    5d05:	48 89 c1             	mov    rcx,rax
    5d08:	89 d0                	mov    eax,edx
    5d0a:	48 89 4d d0          	mov    QWORD PTR [rbp-0x30],rcx
    5d0e:	89 45 cc             	mov    DWORD PTR [rbp-0x34],eax
    5d11:	48 8d 7d d8          	lea    rdi,[rbp-0x28]
    5d15:	e8 16 01 00 00       	call   5e30 <_ZNSaINSt8__detail10_Hash_nodeISt4pairIKNSt7__cxx1112basic_stringIcSt11char_traitsIcESaIcEEE5TokenELb1EEEED2Ev>
    5d1a:	e9 15 00 00 00       	jmp    5d34 <_ZNSt10_HashtableINSt7__cxx1112basic_stringIcSt11char_traitsIcESaIcEEESt4pairIKS5_5TokenESaIS9_ENSt8__detail10_Select1stESt8equal_toIS5_ESt4hashIS5_ENSB_18_Mod_range_hashingENSB_20_Default_ranged_hashENSB_20_Prime_rehash_policyENSB_17_Hashtable_traitsILb1ELb0ELb1EEEEC2ERKSG_RKSE_RKSA_+0xe4>
    5d1f:	48 8b 7d b8          	mov    rdi,QWORD PTR [rbp-0x48]
    5d23:	48 89 c1             	mov    rcx,rax
    5d26:	89 d0                	mov    eax,edx
    5d28:	48 89 4d d0          	mov    QWORD PTR [rbp-0x30],rcx
    5d2c:	89 45 cc             	mov    DWORD PTR [rbp-0x34],eax
    5d2f:	e8 cc d6 ff ff       	call   3400 <_ZNSt8__detail16_Hashtable_allocISaINS_10_Hash_nodeISt4pairIKNSt7__cxx1112basic_stringIcSt11char_traitsIcESaIcEEE5TokenELb1EEEEED2Ev>
    5d34:	48 8b 7d d0          	mov    rdi,QWORD PTR [rbp-0x30]
    5d38:	e8 a3 c5 ff ff       	call   22e0 <_Unwind_Resume@plt>
    5d3d:	0f 1f 00             	nop    DWORD PTR [rax]

0000000000005d40 <_ZNSt10_HashtableINSt7__cxx1112basic_stringIcSt11char_traitsIcESaIcEEESt4pairIKS5_5TokenESaIS9_ENSt8__detail10_Select1stESt8equal_toIS5_ESt4hashIS5_ENSB_18_Mod_range_hashingENSB_20_Default_ranged_hashENSB_20_Prime_rehash_policyENSB_17_Hashtable_traitsILb1ELb0ELb1EEEE19_M_allocate_bucketsEm>:
    5d40:	55                   	push   rbp
    5d41:	48 89 e5             	mov    rbp,rsp
    5d44:	48 83 ec 20          	sub    rsp,0x20
    5d48:	48 89 7d f0          	mov    QWORD PTR [rbp-0x10],rdi
    5d4c:	48 89 75 e8          	mov    QWORD PTR [rbp-0x18],rsi
    5d50:	48 8b 45 f0          	mov    rax,QWORD PTR [rbp-0x10]
    5d54:	48 89 45 e0          	mov    QWORD PTR [rbp-0x20],rax
    5d58:	48 83 7d e8 01       	cmp    QWORD PTR [rbp-0x18],0x1
    5d5d:	0f 85 19 00 00 00    	jne    5d7c <_ZNSt10_HashtableINSt7__cxx1112basic_stringIcSt11char_traitsIcESaIcEEESt4pairIKS5_5TokenESaIS9_ENSt8__detail10_Select1stESt8equal_toIS5_ESt4hashIS5_ENSB_18_Mod_range_hashingENSB_20_Default_ranged_hashENSB_20_Prime_rehash_policyENSB_17_Hashtable_traitsILb1ELb0ELb1EEEE19_M_allocate_bucketsEm+0x3c>
    5d63:	48 8b 45 e0          	mov    rax,QWORD PTR [rbp-0x20]
    5d67:	48 c7 40 30 00 00 00 	mov    QWORD PTR [rax+0x30],0x0
    5d6e:	00 
    5d6f:	48 83 c0 30          	add    rax,0x30
    5d73:	48 89 45 f8          	mov    QWORD PTR [rbp-0x8],rax
    5d77:	e9 11 00 00 00       	jmp    5d8d <_ZNSt10_HashtableINSt7__cxx1112basic_stringIcSt11char_traitsIcESaIcEEESt4pairIKS5_5TokenESaIS9_ENSt8__detail10_Select1stESt8equal_toIS5_ESt4hashIS5_ENSB_18_Mod_range_hashingENSB_20_Default_ranged_hashENSB_20_Prime_rehash_policyENSB_17_Hashtable_traitsILb1ELb0ELb1EEEE19_M_allocate_bucketsEm+0x4d>
    5d7c:	48 8b 7d e0          	mov    rdi,QWORD PTR [rbp-0x20]
    5d80:	48 8b 75 e8          	mov    rsi,QWORD PTR [rbp-0x18]
    5d84:	e8 f7 01 00 00       	call   5f80 <_ZNSt8__detail16_Hashtable_allocISaINS_10_Hash_nodeISt4pairIKNSt7__cxx1112basic_stringIcSt11char_traitsIcESaIcEEE5TokenELb1EEEEE19_M_allocate_bucketsEm>
    5d89:	48 89 45 f8          	mov    QWORD PTR [rbp-0x8],rax
    5d8d:	48 8b 45 f8          	mov    rax,QWORD PTR [rbp-0x8]
    5d91:	48 83 c4 20          	add    rsp,0x20
    5d95:	5d                   	pop    rbp
    5d96:	c3                   	ret
    5d97:	66 0f 1f 84 00 00 00 	nop    WORD PTR [rax+rax*1+0x0]
    5d9e:	00 00 

0000000000005da0 <_ZNSt8__detail15_Hashtable_baseINSt7__cxx1112basic_stringIcSt11char_traitsIcESaIcEEESt4pairIKS6_5TokenENS_10_Select1stESt8equal_toIS6_ESt4hashIS6_ENS_18_Mod_range_hashingENS_20_Default_ranged_hashENS_17_Hashtable_traitsILb1ELb0ELb1EEEEC2ERKSF_RKSD_>:
    5da0:	55                   	push   rbp
    5da1:	48 89 e5             	mov    rbp,rsp
    5da4:	48 83 ec 20          	sub    rsp,0x20
    5da8:	48 89 7d f8          	mov    QWORD PTR [rbp-0x8],rdi
    5dac:	48 89 75 f0          	mov    QWORD PTR [rbp-0x10],rsi
    5db0:	48 89 55 e8          	mov    QWORD PTR [rbp-0x18],rdx
    5db4:	48 8b 7d f8          	mov    rdi,QWORD PTR [rbp-0x8]
    5db8:	48 89 7d e0          	mov    QWORD PTR [rbp-0x20],rdi
    5dbc:	48 8b 75 f0          	mov    rsi,QWORD PTR [rbp-0x10]
    5dc0:	e8 eb 00 00 00       	call   5eb0 <_ZNSt8__detail15_Hash_code_baseINSt7__cxx1112basic_stringIcSt11char_traitsIcESaIcEEESt4pairIKS6_5TokenENS_10_Select1stESt4hashIS6_ENS_18_Mod_range_hashingENS_20_Default_ranged_hashELb1EEC2ERKSD_>
    5dc5:	48 8b 7d e0          	mov    rdi,QWORD PTR [rbp-0x20]
    5dc9:	48 8b 75 e8          	mov    rsi,QWORD PTR [rbp-0x18]
    5dcd:	e8 0e 01 00 00       	call   5ee0 <_ZNSt8__detail21_Hashtable_ebo_helperILi0ESt8equal_toINSt7__cxx1112basic_stringIcSt11char_traitsIcESaIcEEEELb1EEC2IRKS8_EEOT_>
    5dd2:	48 83 c4 20          	add    rsp,0x20
    5dd6:	5d                   	pop    rbp
    5dd7:	c3                   	ret
    5dd8:	0f 1f 84 00 00 00 00 	nop    DWORD PTR [rax+rax*1+0x0]
    5ddf:	00 

0000000000005de0 <_ZNSaINSt8__detail10_Hash_nodeISt4pairIKNSt7__cxx1112basic_stringIcSt11char_traitsIcESaIcEEE5TokenELb1EEEEC2ISA_EERKSaIT_E>:
    5de0:	55                   	push   rbp
    5de1:	48 89 e5             	mov    rbp,rsp
    5de4:	48 83 ec 10          	sub    rsp,0x10
    5de8:	48 89 7d f8          	mov    QWORD PTR [rbp-0x8],rdi
    5dec:	48 89 75 f0          	mov    QWORD PTR [rbp-0x10],rsi
    5df0:	48 8b 7d f8          	mov    rdi,QWORD PTR [rbp-0x8]
    5df4:	e8 07 01 00 00       	call   5f00 <_ZNSt15__new_allocatorINSt8__detail10_Hash_nodeISt4pairIKNSt7__cxx1112basic_stringIcSt11char_traitsIcESaIcEEE5TokenELb1EEEEC2Ev>
    5df9:	48 83 c4 10          	add    rsp,0x10
    5dfd:	5d                   	pop    rbp
    5dfe:	c3                   	ret
    5dff:	90                   	nop

0000000000005e00 <_ZNSt8__detail16_Hashtable_allocISaINS_10_Hash_nodeISt4pairIKNSt7__cxx1112basic_stringIcSt11char_traitsIcESaIcEEE5TokenELb1EEEEEC2ISD_EEOT_>:
    5e00:	55                   	push   rbp
    5e01:	48 89 e5             	mov    rbp,rsp
    5e04:	48 83 ec 10          	sub    rsp,0x10
    5e08:	48 89 7d f8          	mov    QWORD PTR [rbp-0x8],rdi
    5e0c:	48 89 75 f0          	mov    QWORD PTR [rbp-0x10],rsi
    5e10:	48 8b 7d f8          	mov    rdi,QWORD PTR [rbp-0x8]
    5e14:	48 8b 75 f0          	mov    rsi,QWORD PTR [rbp-0x10]
    5e18:	e8 f3 00 00 00       	call   5f10 <_ZNSt8__detail21_Hashtable_ebo_helperILi0ESaINS_10_Hash_nodeISt4pairIKNSt7__cxx1112basic_stringIcSt11char_traitsIcESaIcEEE5TokenELb1EEEELb1EEC2ISD_EEOT_>
    5e1d:	48 83 c4 10          	add    rsp,0x10
    5e21:	5d                   	pop    rbp
    5e22:	c3                   	ret
    5e23:	66 2e 0f 1f 84 00 00 	cs nop WORD PTR [rax+rax*1+0x0]
    5e2a:	00 00 00 
    5e2d:	0f 1f 00             	nop    DWORD PTR [rax]

0000000000005e30 <_ZNSaINSt8__detail10_Hash_nodeISt4pairIKNSt7__cxx1112basic_stringIcSt11char_traitsIcESaIcEEE5TokenELb1EEEED2Ev>:
    5e30:	55                   	push   rbp
    5e31:	48 89 e5             	mov    rbp,rsp
    5e34:	48 83 ec 10          	sub    rsp,0x10
    5e38:	48 89 7d f8          	mov    QWORD PTR [rbp-0x8],rdi
    5e3c:	48 8b 7d f8          	mov    rdi,QWORD PTR [rbp-0x8]
    5e40:	e8 4b da ff ff       	call   3890 <_ZNSt15__new_allocatorINSt8__detail10_Hash_nodeISt4pairIKNSt7__cxx1112basic_stringIcSt11char_traitsIcESaIcEEE5TokenELb1EEEED2Ev>
    5e45:	48 83 c4 10          	add    rsp,0x10
    5e49:	5d                   	pop    rbp
    5e4a:	c3                   	ret
    5e4b:	0f 1f 44 00 00       	nop    DWORD PTR [rax+rax*1+0x0]

0000000000005e50 <_ZNSt27_Enable_default_constructorILb1ENSt8__detail15_Hash_node_baseEEC2ESt31_Enable_default_constructor_tag>:
    5e50:	55                   	push   rbp
    5e51:	48 89 e5             	mov    rbp,rsp
    5e54:	48 89 7d f0          	mov    QWORD PTR [rbp-0x10],rdi
    5e58:	5d                   	pop    rbp
    5e59:	c3                   	ret
    5e5a:	66 0f 1f 44 00 00    	nop    WORD PTR [rax+rax*1+0x0]

0000000000005e60 <_ZNSt8__detail15_Hash_node_baseC2Ev>:
    5e60:	55                   	push   rbp
    5e61:	48 89 e5             	mov    rbp,rsp
    5e64:	48 89 7d f8          	mov    QWORD PTR [rbp-0x8],rdi
    5e68:	48 8b 45 f8          	mov    rax,QWORD PTR [rbp-0x8]
    5e6c:	48 c7 00 00 00 00 00 	mov    QWORD PTR [rax],0x0
    5e73:	5d                   	pop    rbp
    5e74:	c3                   	ret
    5e75:	66 2e 0f 1f 84 00 00 	cs nop WORD PTR [rax+rax*1+0x0]
    5e7c:	00 00 00 
    5e7f:	90                   	nop

0000000000005e80 <_ZNSt8__detail20_Prime_rehash_policyC2Ef>:
    5e80:	55                   	push   rbp
    5e81:	48 89 e5             	mov    rbp,rsp
    5e84:	48 89 7d f8          	mov    QWORD PTR [rbp-0x8],rdi
    5e88:	f3 0f 11 45 f4       	movss  DWORD PTR [rbp-0xc],xmm0
    5e8d:	48 8b 45 f8          	mov    rax,QWORD PTR [rbp-0x8]
    5e91:	f3 0f 10 45 f4       	movss  xmm0,DWORD PTR [rbp-0xc]
    5e96:	f3 0f 11 00          	movss  DWORD PTR [rax],xmm0
    5e9a:	48 c7 40 08 00 00 00 	mov    QWORD PTR [rax+0x8],0x0
    5ea1:	00 
    5ea2:	5d                   	pop    rbp
    5ea3:	c3                   	ret
    5ea4:	66 2e 0f 1f 84 00 00 	cs nop WORD PTR [rax+rax*1+0x0]
    5eab:	00 00 00 
    5eae:	66 90                	xchg   ax,ax

0000000000005eb0 <_ZNSt8__detail15_Hash_code_baseINSt7__cxx1112basic_stringIcSt11char_traitsIcESaIcEEESt4pairIKS6_5TokenENS_10_Select1stESt4hashIS6_ENS_18_Mod_range_hashingENS_20_Default_ranged_hashELb1EEC2ERKSD_>:
    5eb0:	55                   	push   rbp
    5eb1:	48 89 e5             	mov    rbp,rsp
    5eb4:	48 83 ec 10          	sub    rsp,0x10
    5eb8:	48 89 7d f8          	mov    QWORD PTR [rbp-0x8],rdi
    5ebc:	48 89 75 f0          	mov    QWORD PTR [rbp-0x10],rsi
    5ec0:	48 8b 7d f8          	mov    rdi,QWORD PTR [rbp-0x8]
    5ec4:	48 8b 75 f0          	mov    rsi,QWORD PTR [rbp-0x10]
    5ec8:	e8 23 00 00 00       	call   5ef0 <_ZNSt8__detail21_Hashtable_ebo_helperILi1ESt4hashINSt7__cxx1112basic_stringIcSt11char_traitsIcESaIcEEEELb1EEC2IRKS8_EEOT_>
    5ecd:	48 83 c4 10          	add    rsp,0x10
    5ed1:	5d                   	pop    rbp
    5ed2:	c3                   	ret
    5ed3:	66 2e 0f 1f 84 00 00 	cs nop WORD PTR [rax+rax*1+0x0]
    5eda:	00 00 00 
    5edd:	0f 1f 00             	nop    DWORD PTR [rax]

0000000000005ee0 <_ZNSt8__detail21_Hashtable_ebo_helperILi0ESt8equal_toINSt7__cxx1112basic_stringIcSt11char_traitsIcESaIcEEEELb1EEC2IRKS8_EEOT_>:
    5ee0:	55                   	push   rbp
    5ee1:	48 89 e5             	mov    rbp,rsp
    5ee4:	48 89 7d f8          	mov    QWORD PTR [rbp-0x8],rdi
    5ee8:	48 89 75 f0          	mov    QWORD PTR [rbp-0x10],rsi
    5eec:	5d                   	pop    rbp
    5eed:	c3                   	ret
    5eee:	66 90                	xchg   ax,ax

0000000000005ef0 <_ZNSt8__detail21_Hashtable_ebo_helperILi1ESt4hashINSt7__cxx1112basic_stringIcSt11char_traitsIcESaIcEEEELb1EEC2IRKS8_EEOT_>:
    5ef0:	55                   	push   rbp
    5ef1:	48 89 e5             	mov    rbp,rsp
    5ef4:	48 89 7d f8          	mov    QWORD PTR [rbp-0x8],rdi
    5ef8:	48 89 75 f0          	mov    QWORD PTR [rbp-0x10],rsi
    5efc:	5d                   	pop    rbp
    5efd:	c3                   	ret
    5efe:	66 90                	xchg   ax,ax

0000000000005f00 <_ZNSt15__new_allocatorINSt8__detail10_Hash_nodeISt4pairIKNSt7__cxx1112basic_stringIcSt11char_traitsIcESaIcEEE5TokenELb1EEEEC2Ev>:
    5f00:	55                   	push   rbp
    5f01:	48 89 e5             	mov    rbp,rsp
    5f04:	48 89 7d f8          	mov    QWORD PTR [rbp-0x8],rdi
    5f08:	5d                   	pop    rbp
    5f09:	c3                   	ret
    5f0a:	66 0f 1f 44 00 00    	nop    WORD PTR [rax+rax*1+0x0]

0000000000005f10 <_ZNSt8__detail21_Hashtable_ebo_helperILi0ESaINS_10_Hash_nodeISt4pairIKNSt7__cxx1112basic_stringIcSt11char_traitsIcESaIcEEE5TokenELb1EEEELb1EEC2ISD_EEOT_>:
    5f10:	55                   	push   rbp
    5f11:	48 89 e5             	mov    rbp,rsp
    5f14:	48 83 ec 10          	sub    rsp,0x10
    5f18:	48 89 7d f8          	mov    QWORD PTR [rbp-0x8],rdi
    5f1c:	48 89 75 f0          	mov    QWORD PTR [rbp-0x10],rsi
    5f20:	48 8b 7d f8          	mov    rdi,QWORD PTR [rbp-0x8]
    5f24:	48 8b 75 f0          	mov    rsi,QWORD PTR [rbp-0x10]
    5f28:	e8 13 00 00 00       	call   5f40 <_ZNSaINSt8__detail10_Hash_nodeISt4pairIKNSt7__cxx1112basic_stringIcSt11char_traitsIcESaIcEEE5TokenELb1EEEEC2ERKSC_>
    5f2d:	48 83 c4 10          	add    rsp,0x10
    5f31:	5d                   	pop    rbp
    5f32:	c3                   	ret
    5f33:	66 2e 0f 1f 84 00 00 	cs nop WORD PTR [rax+rax*1+0x0]
    5f3a:	00 00 00 
    5f3d:	0f 1f 00             	nop    DWORD PTR [rax]

0000000000005f40 <_ZNSaINSt8__detail10_Hash_nodeISt4pairIKNSt7__cxx1112basic_stringIcSt11char_traitsIcESaIcEEE5TokenELb1EEEEC2ERKSC_>:
    5f40:	55                   	push   rbp
    5f41:	48 89 e5             	mov    rbp,rsp
    5f44:	48 83 ec 10          	sub    rsp,0x10
    5f48:	48 89 7d f8          	mov    QWORD PTR [rbp-0x8],rdi
    5f4c:	48 89 75 f0          	mov    QWORD PTR [rbp-0x10],rsi
    5f50:	48 8b 7d f8          	mov    rdi,QWORD PTR [rbp-0x8]
    5f54:	48 8b 75 f0          	mov    rsi,QWORD PTR [rbp-0x10]
    5f58:	e8 13 00 00 00       	call   5f70 <_ZNSt15__new_allocatorINSt8__detail10_Hash_nodeISt4pairIKNSt7__cxx1112basic_stringIcSt11char_traitsIcESaIcEEE5TokenELb1EEEEC2ERKSD_>
    5f5d:	48 83 c4 10          	add    rsp,0x10
    5f61:	5d                   	pop    rbp
    5f62:	c3                   	ret
    5f63:	66 2e 0f 1f 84 00 00 	cs nop WORD PTR [rax+rax*1+0x0]
    5f6a:	00 00 00 
    5f6d:	0f 1f 00             	nop    DWORD PTR [rax]

0000000000005f70 <_ZNSt15__new_allocatorINSt8__detail10_Hash_nodeISt4pairIKNSt7__cxx1112basic_stringIcSt11char_traitsIcESaIcEEE5TokenELb1EEEEC2ERKSD_>:
    5f70:	55                   	push   rbp
    5f71:	48 89 e5             	mov    rbp,rsp
    5f74:	48 89 7d f8          	mov    QWORD PTR [rbp-0x8],rdi
    5f78:	48 89 75 f0          	mov    QWORD PTR [rbp-0x10],rsi
    5f7c:	5d                   	pop    rbp
    5f7d:	c3                   	ret
    5f7e:	66 90                	xchg   ax,ax

0000000000005f80 <_ZNSt8__detail16_Hashtable_allocISaINS_10_Hash_nodeISt4pairIKNSt7__cxx1112basic_stringIcSt11char_traitsIcESaIcEEE5TokenELb1EEEEE19_M_allocate_bucketsEm>:
    5f80:	55                   	push   rbp
    5f81:	48 89 e5             	mov    rbp,rsp
    5f84:	48 83 ec 50          	sub    rsp,0x50
    5f88:	48 89 7d f8          	mov    QWORD PTR [rbp-0x8],rdi
    5f8c:	48 89 75 f0          	mov    QWORD PTR [rbp-0x10],rsi
    5f90:	48 8b 7d f8          	mov    rdi,QWORD PTR [rbp-0x8]
    5f94:	e8 97 d5 ff ff       	call   3530 <_ZNSt8__detail16_Hashtable_allocISaINS_10_Hash_nodeISt4pairIKNSt7__cxx1112basic_stringIcSt11char_traitsIcESaIcEEE5TokenELb1EEEEE17_M_node_allocatorEv>
    5f99:	48 89 c6             	mov    rsi,rax
    5f9c:	48 8d 7d e8          	lea    rdi,[rbp-0x18]
    5fa0:	48 89 7d b8          	mov    QWORD PTR [rbp-0x48],rdi
    5fa4:	e8 07 d8 ff ff       	call   37b0 <_ZNSaIPNSt8__detail15_Hash_node_baseEEC2INS_10_Hash_nodeISt4pairIKNSt7__cxx1112basic_stringIcSt11char_traitsIcESaIcEEE5TokenELb1EEEEERKSaIT_E>
    5fa9:	48 8b 7d b8          	mov    rdi,QWORD PTR [rbp-0x48]
    5fad:	48 8b 75 f0          	mov    rsi,QWORD PTR [rbp-0x10]
    5fb1:	e8 6a 00 00 00       	call   6020 <_ZNSt16allocator_traitsISaIPNSt8__detail15_Hash_node_baseEEE8allocateERS3_m>
    5fb6:	48 89 45 c0          	mov    QWORD PTR [rbp-0x40],rax
    5fba:	e9 00 00 00 00       	jmp    5fbf <_ZNSt8__detail16_Hashtable_allocISaINS_10_Hash_nodeISt4pairIKNSt7__cxx1112basic_stringIcSt11char_traitsIcESaIcEEE5TokenELb1EEEEE19_M_allocate_bucketsEm+0x3f>
    5fbf:	48 8b 45 c0          	mov    rax,QWORD PTR [rbp-0x40]
    5fc3:	48 89 45 e0          	mov    QWORD PTR [rbp-0x20],rax
    5fc7:	48 8b 7d e0          	mov    rdi,QWORD PTR [rbp-0x20]
    5fcb:	e8 80 00 00 00       	call   6050 <_ZSt12__to_addressIPNSt8__detail15_Hash_node_baseEEPT_S4_>
    5fd0:	48 89 45 c8          	mov    QWORD PTR [rbp-0x38],rax
    5fd4:	48 8b 7d c8          	mov    rdi,QWORD PTR [rbp-0x38]
    5fd8:	48 8b 55 f0          	mov    rdx,QWORD PTR [rbp-0x10]
    5fdc:	48 c1 e2 03          	shl    rdx,0x3
    5fe0:	31 f6                	xor    esi,esi
    5fe2:	e8 e9 c0 ff ff       	call   20d0 <memset@plt>
    5fe7:	48 8b 45 c8          	mov    rax,QWORD PTR [rbp-0x38]
    5feb:	48 89 45 b0          	mov    QWORD PTR [rbp-0x50],rax
    5fef:	48 8d 7d e8          	lea    rdi,[rbp-0x18]
    5ff3:	e8 08 d8 ff ff       	call   3800 <_ZNSaIPNSt8__detail15_Hash_node_baseEED2Ev>
    5ff8:	48 8b 45 b0          	mov    rax,QWORD PTR [rbp-0x50]
    5ffc:	48 83 c4 50          	add    rsp,0x50
    6000:	5d                   	pop    rbp
    6001:	c3                   	ret
    6002:	48 89 c1             	mov    rcx,rax
    6005:	89 d0                	mov    eax,edx
    6007:	48 89 4d d8          	mov    QWORD PTR [rbp-0x28],rcx
    600b:	89 45 d4             	mov    DWORD PTR [rbp-0x2c],eax
    600e:	48 8d 7d e8          	lea    rdi,[rbp-0x18]
    6012:	e8 e9 d7 ff ff       	call   3800 <_ZNSaIPNSt8__detail15_Hash_node_baseEED2Ev>
    6017:	48 8b 7d d8          	mov    rdi,QWORD PTR [rbp-0x28]
    601b:	e8 c0 c2 ff ff       	call   22e0 <_Unwind_Resume@plt>

0000000000006020 <_ZNSt16allocator_traitsISaIPNSt8__detail15_Hash_node_baseEEE8allocateERS3_m>:
    6020:	55                   	push   rbp
    6021:	48 89 e5             	mov    rbp,rsp
    6024:	48 83 ec 10          	sub    rsp,0x10
    6028:	48 89 7d f8          	mov    QWORD PTR [rbp-0x8],rdi
    602c:	48 89 75 f0          	mov    QWORD PTR [rbp-0x10],rsi
    6030:	48 8b 7d f8          	mov    rdi,QWORD PTR [rbp-0x8]
    6034:	48 8b 75 f0          	mov    rsi,QWORD PTR [rbp-0x10]
    6038:	31 c0                	xor    eax,eax
    603a:	89 c2                	mov    edx,eax
    603c:	e8 1f 00 00 00       	call   6060 <_ZNSt15__new_allocatorIPNSt8__detail15_Hash_node_baseEE8allocateEmPKv>
    6041:	48 83 c4 10          	add    rsp,0x10
    6045:	5d                   	pop    rbp
    6046:	c3                   	ret
    6047:	66 0f 1f 84 00 00 00 	nop    WORD PTR [rax+rax*1+0x0]
    604e:	00 00 

0000000000006050 <_ZSt12__to_addressIPNSt8__detail15_Hash_node_baseEEPT_S4_>:
    6050:	55                   	push   rbp
    6051:	48 89 e5             	mov    rbp,rsp
    6054:	48 89 7d f8          	mov    QWORD PTR [rbp-0x8],rdi
    6058:	48 8b 45 f8          	mov    rax,QWORD PTR [rbp-0x8]
    605c:	5d                   	pop    rbp
    605d:	c3                   	ret
    605e:	66 90                	xchg   ax,ax

0000000000006060 <_ZNSt15__new_allocatorIPNSt8__detail15_Hash_node_baseEE8allocateEmPKv>:
    6060:	55                   	push   rbp
    6061:	48 89 e5             	mov    rbp,rsp
    6064:	48 83 ec 20          	sub    rsp,0x20
    6068:	48 89 7d f8          	mov    QWORD PTR [rbp-0x8],rdi
    606c:	48 89 75 f0          	mov    QWORD PTR [rbp-0x10],rsi
    6070:	48 89 55 e8          	mov    QWORD PTR [rbp-0x18],rdx
    6074:	48 8b 7d f8          	mov    rdi,QWORD PTR [rbp-0x8]
    6078:	48 8b 45 f0          	mov    rax,QWORD PTR [rbp-0x10]
    607c:	48 89 45 e0          	mov    QWORD PTR [rbp-0x20],rax
    6080:	e8 4b 00 00 00       	call   60d0 <_ZNKSt15__new_allocatorIPNSt8__detail15_Hash_node_baseEE11_M_max_sizeEv>
    6085:	48 89 c1             	mov    rcx,rax
    6088:	48 8b 45 e0          	mov    rax,QWORD PTR [rbp-0x20]
    608c:	48 39 c8             	cmp    rax,rcx
    608f:	0f 86 1e 00 00 00    	jbe    60b3 <_ZNSt15__new_allocatorIPNSt8__detail15_Hash_node_baseEE8allocateEmPKv+0x53>
    6095:	48 b8 ff ff ff ff ff 	movabs rax,0x1fffffffffffffff
    609c:	ff ff 1f 
    609f:	48 39 45 f0          	cmp    QWORD PTR [rbp-0x10],rax
    60a3:	0f 86 05 00 00 00    	jbe    60ae <_ZNSt15__new_allocatorIPNSt8__detail15_Hash_node_baseEE8allocateEmPKv+0x4e>
    60a9:	e8 a2 c0 ff ff       	call   2150 <_ZSt28__throw_bad_array_new_lengthv@plt>
    60ae:	e8 bd bf ff ff       	call   2070 <_ZSt17__throw_bad_allocv@plt>
    60b3:	48 8b 7d f0          	mov    rdi,QWORD PTR [rbp-0x10]
    60b7:	48 c1 e7 03          	shl    rdi,0x3
    60bb:	e8 00 c1 ff ff       	call   21c0 <_Znwm@plt>
    60c0:	48 83 c4 20          	add    rsp,0x20
    60c4:	5d                   	pop    rbp
    60c5:	c3                   	ret
    60c6:	66 2e 0f 1f 84 00 00 	cs nop WORD PTR [rax+rax*1+0x0]
    60cd:	00 00 00 

00000000000060d0 <_ZNKSt15__new_allocatorIPNSt8__detail15_Hash_node_baseEE11_M_max_sizeEv>:
    60d0:	55                   	push   rbp
    60d1:	48 89 e5             	mov    rbp,rsp
    60d4:	48 89 7d f8          	mov    QWORD PTR [rbp-0x8],rdi
    60d8:	48 b8 ff ff ff ff ff 	movabs rax,0xfffffffffffffff
    60df:	ff ff 0f 
    60e2:	5d                   	pop    rbp
    60e3:	c3                   	ret
    60e4:	66 2e 0f 1f 84 00 00 	cs nop WORD PTR [rax+rax*1+0x0]
    60eb:	00 00 00 
    60ee:	66 90                	xchg   ax,ax

00000000000060f0 <_ZNSt8__detail12_Insert_baseINSt7__cxx1112basic_stringIcSt11char_traitsIcESaIcEEESt4pairIKS6_5TokenESaISA_ENS_10_Select1stESt8equal_toIS6_ESt4hashIS6_ENS_18_Mod_range_hashingENS_20_Default_ranged_hashENS_20_Prime_rehash_policyENS_17_Hashtable_traitsILb1ELb0ELb1EEEE20_M_conjure_hashtableEv>:
    60f0:	55                   	push   rbp
    60f1:	48 89 e5             	mov    rbp,rsp
    60f4:	48 89 7d f8          	mov    QWORD PTR [rbp-0x8],rdi
    60f8:	48 8b 45 f8          	mov    rax,QWORD PTR [rbp-0x8]
    60fc:	5d                   	pop    rbp
    60fd:	c3                   	ret
    60fe:	66 90                	xchg   ax,ax

0000000000006100 <_ZNSt8__detail10_AllocNodeISaINS_10_Hash_nodeISt4pairIKNSt7__cxx1112basic_stringIcSt11char_traitsIcESaIcEEE5TokenELb1EEEEEC2ERNS_16_Hashtable_allocISD_EE>:
    6100:	55                   	push   rbp
    6101:	48 89 e5             	mov    rbp,rsp
    6104:	48 89 7d f8          	mov    QWORD PTR [rbp-0x8],rdi
    6108:	48 89 75 f0          	mov    QWORD PTR [rbp-0x10],rsi
    610c:	48 8b 45 f8          	mov    rax,QWORD PTR [rbp-0x8]
    6110:	48 8b 4d f0          	mov    rcx,QWORD PTR [rbp-0x10]
    6114:	48 89 08             	mov    QWORD PTR [rax],rcx
    6117:	5d                   	pop    rbp
    6118:	c3                   	ret
    6119:	0f 1f 80 00 00 00 00 	nop    DWORD PTR [rax+0x0]

0000000000006120 <_ZNSt10_HashtableINSt7__cxx1112basic_stringIcSt11char_traitsIcESaIcEEESt4pairIKS5_5TokenESaIS9_ENSt8__detail10_Select1stESt8equal_toIS5_ESt4hashIS5_ENSB_18_Mod_range_hashingENSB_20_Default_ranged_hashENSB_20_Prime_rehash_policyENSB_17_Hashtable_traitsILb1ELb0ELb1EEEE9_M_insertIRKS9_NSB_10_AllocNodeISaINSB_10_Hash_nodeIS9_Lb1EEEEEEEES6_INSB_14_Node_iteratorIS9_Lb0ELb1EEEbEOT_RKT0_St17integral_constantIbLb1EE>:
    6120:	55                   	push   rbp
    6121:	48 89 e5             	mov    rbp,rsp
    6124:	48 83 ec 40          	sub    rsp,0x40
    6128:	48 89 7d e0          	mov    QWORD PTR [rbp-0x20],rdi
    612c:	48 89 75 d8          	mov    QWORD PTR [rbp-0x28],rsi
    6130:	48 89 55 d0          	mov    QWORD PTR [rbp-0x30],rdx
    6134:	48 8b 45 e0          	mov    rax,QWORD PTR [rbp-0x20]
    6138:	48 89 45 c0          	mov    QWORD PTR [rbp-0x40],rax
    613c:	48 8b 75 d8          	mov    rsi,QWORD PTR [rbp-0x28]
    6140:	48 8d 7d c8          	lea    rdi,[rbp-0x38]
    6144:	e8 37 f3 ff ff       	call   5480 <_ZNKSt8__detail10_Select1stclIRKSt4pairIKNSt7__cxx1112basic_stringIcSt11char_traitsIcESaIcEEE5TokenEEEONS0_10__1st_typeIT_E4typeEOSF_>
    6149:	48 89 c7             	mov    rdi,rax
    614c:	e8 8f 02 00 00       	call   63e0 <_ZNSt10_HashtableINSt7__cxx1112basic_stringIcSt11char_traitsIcESaIcEEESt4pairIKS5_5TokenESaIS9_ENSt8__detail10_Select1stESt8equal_toIS5_ESt4hashIS5_ENSB_18_Mod_range_hashingENSB_20_Default_ranged_hashENSB_20_Prime_rehash_policyENSB_17_Hashtable_traitsILb1ELb0ELb1EEEE14_S_forward_keyERS7_>
    6151:	48 8b 7d c0          	mov    rdi,QWORD PTR [rbp-0x40]
    6155:	48 89 c6             	mov    rsi,rax
    6158:	48 8b 55 d8          	mov    rdx,QWORD PTR [rbp-0x28]
    615c:	48 8b 4d d0          	mov    rcx,QWORD PTR [rbp-0x30]
    6160:	e8 1b 00 00 00       	call   6180 <_ZNSt10_HashtableINSt7__cxx1112basic_stringIcSt11char_traitsIcESaIcEEESt4pairIKS5_5TokenESaIS9_ENSt8__detail10_Select1stESt8equal_toIS5_ESt4hashIS5_ENSB_18_Mod_range_hashingENSB_20_Default_ranged_hashENSB_20_Prime_rehash_policyENSB_17_Hashtable_traitsILb1ELb0ELb1EEEE16_M_insert_uniqueIRS7_RKS9_NSB_10_AllocNodeISaINSB_10_Hash_nodeIS9_Lb1EEEEEEEES6_INSB_14_Node_iteratorIS9_Lb0ELb1EEEbEOT_OT0_RKT1_>
    6165:	48 89 45 f0          	mov    QWORD PTR [rbp-0x10],rax
    6169:	88 55 f8             	mov    BYTE PTR [rbp-0x8],dl
    616c:	48 8b 45 f0          	mov    rax,QWORD PTR [rbp-0x10]
    6170:	8a 55 f8             	mov    dl,BYTE PTR [rbp-0x8]
    6173:	48 83 c4 40          	add    rsp,0x40
    6177:	5d                   	pop    rbp
    6178:	c3                   	ret
    6179:	0f 1f 80 00 00 00 00 	nop    DWORD PTR [rax+0x0]

0000000000006180 <_ZNSt10_HashtableINSt7__cxx1112basic_stringIcSt11char_traitsIcESaIcEEESt4pairIKS5_5TokenESaIS9_ENSt8__detail10_Select1stESt8equal_toIS5_ESt4hashIS5_ENSB_18_Mod_range_hashingENSB_20_Default_ranged_hashENSB_20_Prime_rehash_policyENSB_17_Hashtable_traitsILb1ELb0ELb1EEEE16_M_insert_uniqueIRS7_RKS9_NSB_10_AllocNodeISaINSB_10_Hash_nodeIS9_Lb1EEEEEEEES6_INSB_14_Node_iteratorIS9_Lb0ELb1EEEbEOT_OT0_RKT1_>:
    6180:	55                   	push   rbp
    6181:	48 89 e5             	mov    rbp,rsp
    6184:	48 81 ec c0 00 00 00 	sub    rsp,0xc0
    618b:	48 89 7d e8          	mov    QWORD PTR [rbp-0x18],rdi
    618f:	48 89 75 e0          	mov    QWORD PTR [rbp-0x20],rsi
    6193:	48 89 55 d8          	mov    QWORD PTR [rbp-0x28],rdx
    6197:	48 89 4d d0          	mov    QWORD PTR [rbp-0x30],rcx
    619b:	48 8b 7d e8          	mov    rdi,QWORD PTR [rbp-0x18]
    619f:	48 89 bd 58 ff ff ff 	mov    QWORD PTR [rbp-0xa8],rdi
    61a6:	e8 65 f0 ff ff       	call   5210 <_ZNKSt10_HashtableINSt7__cxx1112basic_stringIcSt11char_traitsIcESaIcEEESt4pairIKS5_5TokenESaIS9_ENSt8__detail10_Select1stESt8equal_toIS5_ESt4hashIS5_ENSB_18_Mod_range_hashingENSB_20_Default_ranged_hashENSB_20_Prime_rehash_policyENSB_17_Hashtable_traitsILb1ELb0ELb1EEEE4sizeEv>
    61ab:	48 89 85 60 ff ff ff 	mov    QWORD PTR [rbp-0xa0],rax
    61b2:	e8 79 f0 ff ff       	call   5230 <_ZNSt10_HashtableINSt7__cxx1112basic_stringIcSt11char_traitsIcESaIcEEESt4pairIKS5_5TokenESaIS9_ENSt8__detail10_Select1stESt8equal_toIS5_ESt4hashIS5_ENSB_18_Mod_range_hashingENSB_20_Default_ranged_hashENSB_20_Prime_rehash_policyENSB_17_Hashtable_traitsILb1ELb0ELb1EEEE22__small_size_thresholdEv>
    61b7:	48 89 c1             	mov    rcx,rax
    61ba:	48 8b 85 60 ff ff ff 	mov    rax,QWORD PTR [rbp-0xa0]
    61c1:	48 39 c8             	cmp    rax,rcx
    61c4:	0f 87 91 00 00 00    	ja     625b <_ZNSt10_HashtableINSt7__cxx1112basic_stringIcSt11char_traitsIcESaIcEEESt4pairIKS5_5TokenESaIS9_ENSt8__detail10_Select1stESt8equal_toIS5_ESt4hashIS5_ENSB_18_Mod_range_hashingENSB_20_Default_ranged_hashENSB_20_Prime_rehash_policyENSB_17_Hashtable_traitsILb1ELb0ELb1EEEE16_M_insert_uniqueIRS7_RKS9_NSB_10_AllocNodeISaINSB_10_Hash_nodeIS9_Lb1EEEEEEEES6_INSB_14_Node_iteratorIS9_Lb0ELb1EEEbEOT_OT0_RKT1_+0xdb>
    61ca:	48 8b bd 58 ff ff ff 	mov    rdi,QWORD PTR [rbp-0xa8]
    61d1:	e8 1a 02 00 00       	call   63f0 <_ZNSt10_HashtableINSt7__cxx1112basic_stringIcSt11char_traitsIcESaIcEEESt4pairIKS5_5TokenESaIS9_ENSt8__detail10_Select1stESt8equal_toIS5_ESt4hashIS5_ENSB_18_Mod_range_hashingENSB_20_Default_ranged_hashENSB_20_Prime_rehash_policyENSB_17_Hashtable_traitsILb1ELb0ELb1EEEE5beginEv>
    61d6:	48 89 45 c8          	mov    QWORD PTR [rbp-0x38],rax
    61da:	48 8b bd 58 ff ff ff 	mov    rdi,QWORD PTR [rbp-0xa8]
    61e1:	e8 3a 02 00 00       	call   6420 <_ZNSt10_HashtableINSt7__cxx1112basic_stringIcSt11char_traitsIcESaIcEEESt4pairIKS5_5TokenESaIS9_ENSt8__detail10_Select1stESt8equal_toIS5_ESt4hashIS5_ENSB_18_Mod_range_hashingENSB_20_Default_ranged_hashENSB_20_Prime_rehash_policyENSB_17_Hashtable_traitsILb1ELb0ELb1EEEE3endEv>
    61e6:	48 89 45 c0          	mov    QWORD PTR [rbp-0x40],rax
    61ea:	48 8d 7d c8          	lea    rdi,[rbp-0x38]
    61ee:	48 8d 75 c0          	lea    rsi,[rbp-0x40]
    61f2:	e8 d9 ea ff ff       	call   4cd0 <_ZNSt8__detailneERKNS_19_Node_iterator_baseISt4pairIKNSt7__cxx1112basic_stringIcSt11char_traitsIcESaIcEEE5TokenELb1EEESD_>
    61f7:	a8 01                	test   al,0x1
    61f9:	0f 85 05 00 00 00    	jne    6204 <_ZNSt10_HashtableINSt7__cxx1112basic_stringIcSt11char_traitsIcESaIcEEESt4pairIKS5_5TokenESaIS9_ENSt8__detail10_Select1stESt8equal_toIS5_ESt4hashIS5_ENSB_18_Mod_range_hashingENSB_20_Default_ranged_hashENSB_20_Prime_rehash_policyENSB_17_Hashtable_traitsILb1ELb0ELb1EEEE16_M_insert_uniqueIRS7_RKS9_NSB_10_AllocNodeISaINSB_10_Hash_nodeIS9_Lb1EEEEEEEES6_INSB_14_Node_iteratorIS9_Lb0ELb1EEEbEOT_OT0_RKT1_+0x84>
    61ff:	e9 52 00 00 00       	jmp    6256 <_ZNSt10_HashtableINSt7__cxx1112basic_stringIcSt11char_traitsIcESaIcEEESt4pairIKS5_5TokenESaIS9_ENSt8__detail10_Select1stESt8equal_toIS5_ESt4hashIS5_ENSB_18_Mod_range_hashingENSB_20_Default_ranged_hashENSB_20_Prime_rehash_policyENSB_17_Hashtable_traitsILb1ELb0ELb1EEEE16_M_insert_uniqueIRS7_RKS9_NSB_10_AllocNodeISaINSB_10_Hash_nodeIS9_Lb1EEEEEEEES6_INSB_14_Node_iteratorIS9_Lb0ELb1EEEbEOT_OT0_RKT1_+0xd6>
    6204:	48 8b bd 58 ff ff ff 	mov    rdi,QWORD PTR [rbp-0xa8]
    620b:	48 8b 75 e0          	mov    rsi,QWORD PTR [rbp-0x20]
    620f:	48 8b 55 c8          	mov    rdx,QWORD PTR [rbp-0x38]
    6213:	48 83 c2 08          	add    rdx,0x8
    6217:	e8 34 02 00 00       	call   6450 <_ZNKSt8__detail15_Hashtable_baseINSt7__cxx1112basic_stringIcSt11char_traitsIcESaIcEEESt4pairIKS6_5TokenENS_10_Select1stESt8equal_toIS6_ESt4hashIS6_ENS_18_Mod_range_hashingENS_20_Default_ranged_hashENS_17_Hashtable_traitsILb1ELb0ELb1EEEE16_M_key_equals_trIS6_EEbRKT_RKNS_16_Hash_node_valueISA_Lb1EEE>
    621c:	a8 01                	test   al,0x1
    621e:	0f 85 05 00 00 00    	jne    6229 <_ZNSt10_HashtableINSt7__cxx1112basic_stringIcSt11char_traitsIcESaIcEEESt4pairIKS5_5TokenESaIS9_ENSt8__detail10_Select1stESt8equal_toIS5_ESt4hashIS5_ENSB_18_Mod_range_hashingENSB_20_Default_ranged_hashENSB_20_Prime_rehash_policyENSB_17_Hashtable_traitsILb1ELb0ELb1EEEE16_M_insert_uniqueIRS7_RKS9_NSB_10_AllocNodeISaINSB_10_Hash_nodeIS9_Lb1EEEEEEEES6_INSB_14_Node_iteratorIS9_Lb0ELb1EEEbEOT_OT0_RKT1_+0xa9>
    6224:	e9 1a 00 00 00       	jmp    6243 <_ZNSt10_HashtableINSt7__cxx1112basic_stringIcSt11char_traitsIcESaIcEEESt4pairIKS5_5TokenESaIS9_ENSt8__detail10_Select1stESt8equal_toIS5_ESt4hashIS5_ENSB_18_Mod_range_hashingENSB_20_Default_ranged_hashENSB_20_Prime_rehash_policyENSB_17_Hashtable_traitsILb1ELb0ELb1EEEE16_M_insert_uniqueIRS7_RKS9_NSB_10_AllocNodeISaINSB_10_Hash_nodeIS9_Lb1EEEEEEEES6_INSB_14_Node_iteratorIS9_Lb0ELb1EEEbEOT_OT0_RKT1_+0xc3>
    6229:	c6 45 bf 00          	mov    BYTE PTR [rbp-0x41],0x0
    622d:	48 8d 7d f0          	lea    rdi,[rbp-0x10]
    6231:	48 8d 75 c8          	lea    rsi,[rbp-0x38]
    6235:	48 8d 55 bf          	lea    rdx,[rbp-0x41]
    6239:	e8 72 02 00 00       	call   64b0 <_ZNSt4pairINSt8__detail14_Node_iteratorIS_IKNSt7__cxx1112basic_stringIcSt11char_traitsIcESaIcEEE5TokenELb0ELb1EEEbEC2IRSB_bLb1EEEOT_OT0_>
    623e:	e9 73 01 00 00       	jmp    63b6 <_ZNSt10_HashtableINSt7__cxx1112basic_stringIcSt11char_traitsIcESaIcEEESt4pairIKS5_5TokenESaIS9_ENSt8__detail10_Select1stESt8equal_toIS5_ESt4hashIS5_ENSB_18_Mod_range_hashingENSB_20_Default_ranged_hashENSB_20_Prime_rehash_policyENSB_17_Hashtable_traitsILb1ELb0ELb1EEEE16_M_insert_uniqueIRS7_RKS9_NSB_10_AllocNodeISaINSB_10_Hash_nodeIS9_Lb1EEEEEEEES6_INSB_14_Node_iteratorIS9_Lb0ELb1EEEbEOT_OT0_RKT1_+0x236>
    6243:	e9 00 00 00 00       	jmp    6248 <_ZNSt10_HashtableINSt7__cxx1112basic_stringIcSt11char_traitsIcESaIcEEESt4pairIKS5_5TokenESaIS9_ENSt8__detail10_Select1stESt8equal_toIS5_ESt4hashIS5_ENSB_18_Mod_range_hashingENSB_20_Default_ranged_hashENSB_20_Prime_rehash_policyENSB_17_Hashtable_traitsILb1ELb0ELb1EEEE16_M_insert_uniqueIRS7_RKS9_NSB_10_AllocNodeISaINSB_10_Hash_nodeIS9_Lb1EEEEEEEES6_INSB_14_Node_iteratorIS9_Lb0ELb1EEEbEOT_OT0_RKT1_+0xc8>
    6248:	48 8d 7d c8          	lea    rdi,[rbp-0x38]
    624c:	e8 8f 02 00 00       	call   64e0 <_ZNSt8__detail14_Node_iteratorISt4pairIKNSt7__cxx1112basic_stringIcSt11char_traitsIcESaIcEEE5TokenELb0ELb1EEppEv>
    6251:	e9 84 ff ff ff       	jmp    61da <_ZNSt10_HashtableINSt7__cxx1112basic_stringIcSt11char_traitsIcESaIcEEESt4pairIKS5_5TokenESaIS9_ENSt8__detail10_Select1stESt8equal_toIS5_ESt4hashIS5_ENSB_18_Mod_range_hashingENSB_20_Default_ranged_hashENSB_20_Prime_rehash_policyENSB_17_Hashtable_traitsILb1ELb0ELb1EEEE16_M_insert_uniqueIRS7_RKS9_NSB_10_AllocNodeISaINSB_10_Hash_nodeIS9_Lb1EEEEEEEES6_INSB_14_Node_iteratorIS9_Lb0ELb1EEEbEOT_OT0_RKT1_+0x5a>
    6256:	e9 00 00 00 00       	jmp    625b <_ZNSt10_HashtableINSt7__cxx1112basic_stringIcSt11char_traitsIcESaIcEEESt4pairIKS5_5TokenESaIS9_ENSt8__detail10_Select1stESt8equal_toIS5_ESt4hashIS5_ENSB_18_Mod_range_hashingENSB_20_Default_ranged_hashENSB_20_Prime_rehash_policyENSB_17_Hashtable_traitsILb1ELb0ELb1EEEE16_M_insert_uniqueIRS7_RKS9_NSB_10_AllocNodeISaINSB_10_Hash_nodeIS9_Lb1EEEEEEEES6_INSB_14_Node_iteratorIS9_Lb0ELb1EEEbEOT_OT0_RKT1_+0xdb>
    625b:	48 8b bd 58 ff ff ff 	mov    rdi,QWORD PTR [rbp-0xa8]
    6262:	48 8b 75 e0          	mov    rsi,QWORD PTR [rbp-0x20]
    6266:	e8 a5 02 00 00       	call   6510 <_ZNKSt8__detail15_Hash_code_baseINSt7__cxx1112basic_stringIcSt11char_traitsIcESaIcEEESt4pairIKS6_5TokenENS_10_Select1stESt4hashIS6_ENS_18_Mod_range_hashingENS_20_Default_ranged_hashELb1EE15_M_hash_code_trIS6_EEmRKT_>
    626b:	48 8b bd 58 ff ff ff 	mov    rdi,QWORD PTR [rbp-0xa8]
    6272:	48 89 45 b0          	mov    QWORD PTR [rbp-0x50],rax
    6276:	48 8b 75 b0          	mov    rsi,QWORD PTR [rbp-0x50]
    627a:	e8 e1 f0 ff ff       	call   5360 <_ZNKSt10_HashtableINSt7__cxx1112basic_stringIcSt11char_traitsIcESaIcEEESt4pairIKS5_5TokenESaIS9_ENSt8__detail10_Select1stESt8equal_toIS5_ESt4hashIS5_ENSB_18_Mod_range_hashingENSB_20_Default_ranged_hashENSB_20_Prime_rehash_policyENSB_17_Hashtable_traitsILb1ELb0ELb1EEEE15_M_bucket_indexEm>
    627f:	48 8b bd 58 ff ff ff 	mov    rdi,QWORD PTR [rbp-0xa8]
    6286:	48 89 45 a8          	mov    QWORD PTR [rbp-0x58],rax
    628a:	e8 81 ef ff ff       	call   5210 <_ZNKSt10_HashtableINSt7__cxx1112basic_stringIcSt11char_traitsIcESaIcEEESt4pairIKS5_5TokenESaIS9_ENSt8__detail10_Select1stESt8equal_toIS5_ESt4hashIS5_ENSB_18_Mod_range_hashingENSB_20_Default_ranged_hashENSB_20_Prime_rehash_policyENSB_17_Hashtable_traitsILb1ELb0ELb1EEEE4sizeEv>
    628f:	48 89 85 50 ff ff ff 	mov    QWORD PTR [rbp-0xb0],rax
    6296:	e8 95 ef ff ff       	call   5230 <_ZNSt10_HashtableINSt7__cxx1112basic_stringIcSt11char_traitsIcESaIcEEESt4pairIKS5_5TokenESaIS9_ENSt8__detail10_Select1stESt8equal_toIS5_ESt4hashIS5_ENSB_18_Mod_range_hashingENSB_20_Default_ranged_hashENSB_20_Prime_rehash_policyENSB_17_Hashtable_traitsILb1ELb0ELb1EEEE22__small_size_thresholdEv>
    629b:	48 89 c1             	mov    rcx,rax
    629e:	48 8b 85 50 ff ff ff 	mov    rax,QWORD PTR [rbp-0xb0]
    62a5:	48 39 c8             	cmp    rax,rcx
    62a8:	0f 86 53 00 00 00    	jbe    6301 <_ZNSt10_HashtableINSt7__cxx1112basic_stringIcSt11char_traitsIcESaIcEEESt4pairIKS5_5TokenESaIS9_ENSt8__detail10_Select1stESt8equal_toIS5_ESt4hashIS5_ENSB_18_Mod_range_hashingENSB_20_Default_ranged_hashENSB_20_Prime_rehash_policyENSB_17_Hashtable_traitsILb1ELb0ELb1EEEE16_M_insert_uniqueIRS7_RKS9_NSB_10_AllocNodeISaINSB_10_Hash_nodeIS9_Lb1EEEEEEEES6_INSB_14_Node_iteratorIS9_Lb0ELb1EEEbEOT_OT0_RKT1_+0x181>
    62ae:	48 8b bd 58 ff ff ff 	mov    rdi,QWORD PTR [rbp-0xa8]
    62b5:	48 8b 75 a8          	mov    rsi,QWORD PTR [rbp-0x58]
    62b9:	48 8b 55 e0          	mov    rdx,QWORD PTR [rbp-0x20]
    62bd:	48 8b 4d b0          	mov    rcx,QWORD PTR [rbp-0x50]
    62c1:	e8 7a 02 00 00       	call   6540 <_ZNKSt10_HashtableINSt7__cxx1112basic_stringIcSt11char_traitsIcESaIcEEESt4pairIKS5_5TokenESaIS9_ENSt8__detail10_Select1stESt8equal_toIS5_ESt4hashIS5_ENSB_18_Mod_range_hashingENSB_20_Default_ranged_hashENSB_20_Prime_rehash_policyENSB_17_Hashtable_traitsILb1ELb0ELb1EEEE15_M_find_node_trIS5_EEPNSB_10_Hash_nodeIS9_Lb1EEEmRKT_m>
    62c6:	48 89 45 a0          	mov    QWORD PTR [rbp-0x60],rax
    62ca:	48 83 7d a0 00       	cmp    QWORD PTR [rbp-0x60],0x0
    62cf:	0f 84 27 00 00 00    	je     62fc <_ZNSt10_HashtableINSt7__cxx1112basic_stringIcSt11char_traitsIcESaIcEEESt4pairIKS5_5TokenESaIS9_ENSt8__detail10_Select1stESt8equal_toIS5_ESt4hashIS5_ENSB_18_Mod_range_hashingENSB_20_Default_ranged_hashENSB_20_Prime_rehash_policyENSB_17_Hashtable_traitsILb1ELb0ELb1EEEE16_M_insert_uniqueIRS7_RKS9_NSB_10_AllocNodeISaINSB_10_Hash_nodeIS9_Lb1EEEEEEEES6_INSB_14_Node_iteratorIS9_Lb0ELb1EEEbEOT_OT0_RKT1_+0x17c>
    62d5:	48 8b 75 a0          	mov    rsi,QWORD PTR [rbp-0x60]
    62d9:	48 8d 7d 98          	lea    rdi,[rbp-0x68]
    62dd:	e8 be 02 00 00       	call   65a0 <_ZNSt8__detail14_Node_iteratorISt4pairIKNSt7__cxx1112basic_stringIcSt11char_traitsIcESaIcEEE5TokenELb0ELb1EEC2EPNS_10_Hash_nodeISA_Lb1EEE>
    62e2:	c6 45 97 00          	mov    BYTE PTR [rbp-0x69],0x0
    62e6:	48 8d 7d f0          	lea    rdi,[rbp-0x10]
    62ea:	48 8d 75 98          	lea    rsi,[rbp-0x68]
    62ee:	48 8d 55 97          	lea    rdx,[rbp-0x69]
    62f2:	e8 d9 02 00 00       	call   65d0 <_ZNSt4pairINSt8__detail14_Node_iteratorIS_IKNSt7__cxx1112basic_stringIcSt11char_traitsIcESaIcEEE5TokenELb0ELb1EEEbEC2ISB_bLb1EEEOT_OT0_>
    62f7:	e9 ba 00 00 00       	jmp    63b6 <_ZNSt10_HashtableINSt7__cxx1112basic_stringIcSt11char_traitsIcESaIcEEESt4pairIKS5_5TokenESaIS9_ENSt8__detail10_Select1stESt8equal_toIS5_ESt4hashIS5_ENSB_18_Mod_range_hashingENSB_20_Default_ranged_hashENSB_20_Prime_rehash_policyENSB_17_Hashtable_traitsILb1ELb0ELb1EEEE16_M_insert_uniqueIRS7_RKS9_NSB_10_AllocNodeISaINSB_10_Hash_nodeIS9_Lb1EEEEEEEES6_INSB_14_Node_iteratorIS9_Lb0ELb1EEEbEOT_OT0_RKT1_+0x236>
    62fc:	e9 00 00 00 00       	jmp    6301 <_ZNSt10_HashtableINSt7__cxx1112basic_stringIcSt11char_traitsIcESaIcEEESt4pairIKS5_5TokenESaIS9_ENSt8__detail10_Select1stESt8equal_toIS5_ESt4hashIS5_ENSB_18_Mod_range_hashingENSB_20_Default_ranged_hashENSB_20_Prime_rehash_policyENSB_17_Hashtable_traitsILb1ELb0ELb1EEEE16_M_insert_uniqueIRS7_RKS9_NSB_10_AllocNodeISaINSB_10_Hash_nodeIS9_Lb1EEEEEEEES6_INSB_14_Node_iteratorIS9_Lb0ELb1EEEbEOT_OT0_RKT1_+0x181>
    6301:	48 8b 7d e0          	mov    rdi,QWORD PTR [rbp-0x20]
    6305:	48 8b 75 d8          	mov    rsi,QWORD PTR [rbp-0x28]
    6309:	48 8b 55 d0          	mov    rdx,QWORD PTR [rbp-0x30]
    630d:	e8 ee 02 00 00       	call   6600 <_ZNSt8__detail12_NodeBuilderINS_10_Select1stEE8_S_buildIRKNSt7__cxx1112basic_stringIcSt11char_traitsIcESaIcEEERKSt4pairISA_5TokenENS_10_AllocNodeISaINS_10_Hash_nodeISE_Lb1EEEEEEEEPNT1_11__node_typeEOT_OT0_RKSM_>
    6312:	48 8b 95 58 ff ff ff 	mov    rdx,QWORD PTR [rbp-0xa8]
    6319:	48 89 c6             	mov    rsi,rax
    631c:	48 8d 7d 80          	lea    rdi,[rbp-0x80]
    6320:	e8 0b 03 00 00       	call   6630 <_ZNSt10_HashtableINSt7__cxx1112basic_stringIcSt11char_traitsIcESaIcEEESt4pairIKS5_5TokenESaIS9_ENSt8__detail10_Select1stESt8equal_toIS5_ESt4hashIS5_ENSB_18_Mod_range_hashingENSB_20_Default_ranged_hashENSB_20_Prime_rehash_policyENSB_17_Hashtable_traitsILb1ELb0ELb1EEEE12_Scoped_nodeC2EPNSB_10_Hash_nodeIS9_Lb1EEEPNSB_16_Hashtable_allocISaISP_EEE>
    6325:	48 8b bd 58 ff ff ff 	mov    rdi,QWORD PTR [rbp-0xa8]
    632c:	48 8b 75 a8          	mov    rsi,QWORD PTR [rbp-0x58]
    6330:	48 8b 55 b0          	mov    rdx,QWORD PTR [rbp-0x50]
    6334:	48 8b 4d 88          	mov    rcx,QWORD PTR [rbp-0x78]
    6338:	41 b8 01 00 00 00    	mov    r8d,0x1
    633e:	e8 1d 03 00 00       	call   6660 <_ZNSt10_HashtableINSt7__cxx1112basic_stringIcSt11char_traitsIcESaIcEEESt4pairIKS5_5TokenESaIS9_ENSt8__detail10_Select1stESt8equal_toIS5_ESt4hashIS5_ENSB_18_Mod_range_hashingENSB_20_Default_ranged_hashENSB_20_Prime_rehash_policyENSB_17_Hashtable_traitsILb1ELb0ELb1EEEE21_M_insert_unique_nodeEmmPNSB_10_Hash_nodeIS9_Lb1EEEm>
    6343:	48 89 85 48 ff ff ff 	mov    QWORD PTR [rbp-0xb8],rax
    634a:	e9 00 00 00 00       	jmp    634f <_ZNSt10_HashtableINSt7__cxx1112basic_stringIcSt11char_traitsIcESaIcEEESt4pairIKS5_5TokenESaIS9_ENSt8__detail10_Select1stESt8equal_toIS5_ESt4hashIS5_ENSB_18_Mod_range_hashingENSB_20_Default_ranged_hashENSB_20_Prime_rehash_policyENSB_17_Hashtable_traitsILb1ELb0ELb1EEEE16_M_insert_uniqueIRS7_RKS9_NSB_10_AllocNodeISaINSB_10_Hash_nodeIS9_Lb1EEEEEEEES6_INSB_14_Node_iteratorIS9_Lb0ELb1EEEbEOT_OT0_RKT1_+0x1cf>
    634f:	48 8b 85 48 ff ff ff 	mov    rax,QWORD PTR [rbp-0xb8]
    6356:	48 89 85 78 ff ff ff 	mov    QWORD PTR [rbp-0x88],rax
    635d:	48 c7 45 88 00 00 00 	mov    QWORD PTR [rbp-0x78],0x0
    6364:	00 
    6365:	c6 85 6b ff ff ff 01 	mov    BYTE PTR [rbp-0x95],0x1
    636c:	48 8d 7d f0          	lea    rdi,[rbp-0x10]
    6370:	48 8d b5 78 ff ff ff 	lea    rsi,[rbp-0x88]
    6377:	48 8d 95 6b ff ff ff 	lea    rdx,[rbp-0x95]
    637e:	e8 2d 01 00 00       	call   64b0 <_ZNSt4pairINSt8__detail14_Node_iteratorIS_IKNSt7__cxx1112basic_stringIcSt11char_traitsIcESaIcEEE5TokenELb0ELb1EEEbEC2IRSB_bLb1EEEOT_OT0_>
    6383:	e9 00 00 00 00       	jmp    6388 <_ZNSt10_HashtableINSt7__cxx1112basic_stringIcSt11char_traitsIcESaIcEEESt4pairIKS5_5TokenESaIS9_ENSt8__detail10_Select1stESt8equal_toIS5_ESt4hashIS5_ENSB_18_Mod_range_hashingENSB_20_Default_ranged_hashENSB_20_Prime_rehash_policyENSB_17_Hashtable_traitsILb1ELb0ELb1EEEE16_M_insert_uniqueIRS7_RKS9_NSB_10_AllocNodeISaINSB_10_Hash_nodeIS9_Lb1EEEEEEEES6_INSB_14_Node_iteratorIS9_Lb0ELb1EEEbEOT_OT0_RKT1_+0x208>
    6388:	48 8d 7d 80          	lea    rdi,[rbp-0x80]
    638c:	e8 af 03 00 00       	call   6740 <_ZNSt10_HashtableINSt7__cxx1112basic_stringIcSt11char_traitsIcESaIcEEESt4pairIKS5_5TokenESaIS9_ENSt8__detail10_Select1stESt8equal_toIS5_ESt4hashIS5_ENSB_18_Mod_range_hashingENSB_20_Default_ranged_hashENSB_20_Prime_rehash_policyENSB_17_Hashtable_traitsILb1ELb0ELb1EEEE12_Scoped_nodeD2Ev>
    6391:	e9 20 00 00 00       	jmp    63b6 <_ZNSt10_HashtableINSt7__cxx1112basic_stringIcSt11char_traitsIcESaIcEEESt4pairIKS5_5TokenESaIS9_ENSt8__detail10_Select1stESt8equal_toIS5_ESt4hashIS5_ENSB_18_Mod_range_hashingENSB_20_Default_ranged_hashENSB_20_Prime_rehash_policyENSB_17_Hashtable_traitsILb1ELb0ELb1EEEE16_M_insert_uniqueIRS7_RKS9_NSB_10_AllocNodeISaINSB_10_Hash_nodeIS9_Lb1EEEEEEEES6_INSB_14_Node_iteratorIS9_Lb0ELb1EEEbEOT_OT0_RKT1_+0x236>
    6396:	48 89 c1             	mov    rcx,rax
    6399:	89 d0                	mov    eax,edx
    639b:	48 89 8d 70 ff ff ff 	mov    QWORD PTR [rbp-0x90],rcx
    63a2:	89 85 6c ff ff ff    	mov    DWORD PTR [rbp-0x94],eax
    63a8:	48 8d 7d 80          	lea    rdi,[rbp-0x80]
    63ac:	e8 8f 03 00 00       	call   6740 <_ZNSt10_HashtableINSt7__cxx1112basic_stringIcSt11char_traitsIcESaIcEEESt4pairIKS5_5TokenESaIS9_ENSt8__detail10_Select1stESt8equal_toIS5_ESt4hashIS5_ENSB_18_Mod_range_hashingENSB_20_Default_ranged_hashENSB_20_Prime_rehash_policyENSB_17_Hashtable_traitsILb1ELb0ELb1EEEE12_Scoped_nodeD2Ev>
    63b1:	e9 10 00 00 00       	jmp    63c6 <_ZNSt10_HashtableINSt7__cxx1112basic_stringIcSt11char_traitsIcESaIcEEESt4pairIKS5_5TokenESaIS9_ENSt8__detail10_Select1stESt8equal_toIS5_ESt4hashIS5_ENSB_18_Mod_range_hashingENSB_20_Default_ranged_hashENSB_20_Prime_rehash_policyENSB_17_Hashtable_traitsILb1ELb0ELb1EEEE16_M_insert_uniqueIRS7_RKS9_NSB_10_AllocNodeISaINSB_10_Hash_nodeIS9_Lb1EEEEEEEES6_INSB_14_Node_iteratorIS9_Lb0ELb1EEEbEOT_OT0_RKT1_+0x246>
    63b6:	48 8b 45 f0          	mov    rax,QWORD PTR [rbp-0x10]
    63ba:	8a 55 f8             	mov    dl,BYTE PTR [rbp-0x8]
    63bd:	48 81 c4 c0 00 00 00 	add    rsp,0xc0
    63c4:	5d                   	pop    rbp
    63c5:	c3                   	ret
    63c6:	48 8b bd 70 ff ff ff 	mov    rdi,QWORD PTR [rbp-0x90]
    63cd:	e8 0e bf ff ff       	call   22e0 <_Unwind_Resume@plt>
    63d2:	66 2e 0f 1f 84 00 00 	cs nop WORD PTR [rax+rax*1+0x0]
    63d9:	00 00 00 
    63dc:	0f 1f 40 00          	nop    DWORD PTR [rax+0x0]

00000000000063e0 <_ZNSt10_HashtableINSt7__cxx1112basic_stringIcSt11char_traitsIcESaIcEEESt4pairIKS5_5TokenESaIS9_ENSt8__detail10_Select1stESt8equal_toIS5_ESt4hashIS5_ENSB_18_Mod_range_hashingENSB_20_Default_ranged_hashENSB_20_Prime_rehash_policyENSB_17_Hashtable_traitsILb1ELb0ELb1EEEE14_S_forward_keyERS7_>:
    63e0:	55                   	push   rbp
    63e1:	48 89 e5             	mov    rbp,rsp
    63e4:	48 89 7d f8          	mov    QWORD PTR [rbp-0x8],rdi
    63e8:	48 8b 45 f8          	mov    rax,QWORD PTR [rbp-0x8]
    63ec:	5d                   	pop    rbp
    63ed:	c3                   	ret
    63ee:	66 90                	xchg   ax,ax

00000000000063f0 <_ZNSt10_HashtableINSt7__cxx1112basic_stringIcSt11char_traitsIcESaIcEEESt4pairIKS5_5TokenESaIS9_ENSt8__detail10_Select1stESt8equal_toIS5_ESt4hashIS5_ENSB_18_Mod_range_hashingENSB_20_Default_ranged_hashENSB_20_Prime_rehash_policyENSB_17_Hashtable_traitsILb1ELb0ELb1EEEE5beginEv>:
    63f0:	55                   	push   rbp
    63f1:	48 89 e5             	mov    rbp,rsp
    63f4:	48 83 ec 10          	sub    rsp,0x10
    63f8:	48 89 7d f0          	mov    QWORD PTR [rbp-0x10],rdi
    63fc:	48 8b 7d f0          	mov    rdi,QWORD PTR [rbp-0x10]
    6400:	e8 6b d0 ff ff       	call   3470 <_ZNKSt10_HashtableINSt7__cxx1112basic_stringIcSt11char_traitsIcESaIcEEESt4pairIKS5_5TokenESaIS9_ENSt8__detail10_Select1stESt8equal_toIS5_ESt4hashIS5_ENSB_18_Mod_range_hashingENSB_20_Default_ranged_hashENSB_20_Prime_rehash_policyENSB_17_Hashtable_traitsILb1ELb0ELb1EEEE8_M_beginEv>
    6405:	48 89 c6             	mov    rsi,rax
    6408:	48 8d 7d f8          	lea    rdi,[rbp-0x8]
    640c:	e8 8f 01 00 00       	call   65a0 <_ZNSt8__detail14_Node_iteratorISt4pairIKNSt7__cxx1112basic_stringIcSt11char_traitsIcESaIcEEE5TokenELb0ELb1EEC2EPNS_10_Hash_nodeISA_Lb1EEE>
    6411:	48 8b 45 f8          	mov    rax,QWORD PTR [rbp-0x8]
    6415:	48 83 c4 10          	add    rsp,0x10
    6419:	5d                   	pop    rbp
    641a:	c3                   	ret
    641b:	0f 1f 44 00 00       	nop    DWORD PTR [rax+rax*1+0x0]

0000000000006420 <_ZNSt10_HashtableINSt7__cxx1112basic_stringIcSt11char_traitsIcESaIcEEESt4pairIKS5_5TokenESaIS9_ENSt8__detail10_Select1stESt8equal_toIS5_ESt4hashIS5_ENSB_18_Mod_range_hashingENSB_20_Default_ranged_hashENSB_20_Prime_rehash_policyENSB_17_Hashtable_traitsILb1ELb0ELb1EEEE3endEv>:
    6420:	55                   	push   rbp
    6421:	48 89 e5             	mov    rbp,rsp
    6424:	48 83 ec 10          	sub    rsp,0x10
    6428:	48 89 7d f0          	mov    QWORD PTR [rbp-0x10],rdi
    642c:	48 8d 7d f8          	lea    rdi,[rbp-0x8]
    6430:	31 c0                	xor    eax,eax
    6432:	89 c6                	mov    esi,eax
    6434:	e8 67 01 00 00       	call   65a0 <_ZNSt8__detail14_Node_iteratorISt4pairIKNSt7__cxx1112basic_stringIcSt11char_traitsIcESaIcEEE5TokenELb0ELb1EEC2EPNS_10_Hash_nodeISA_Lb1EEE>
    6439:	48 8b 45 f8          	mov    rax,QWORD PTR [rbp-0x8]
    643d:	48 83 c4 10          	add    rsp,0x10
    6441:	5d                   	pop    rbp
    6442:	c3                   	ret
    6443:	66 2e 0f 1f 84 00 00 	cs nop WORD PTR [rax+rax*1+0x0]
    644a:	00 00 00 
    644d:	0f 1f 00             	nop    DWORD PTR [rax]

0000000000006450 <_ZNKSt8__detail15_Hashtable_baseINSt7__cxx1112basic_stringIcSt11char_traitsIcESaIcEEESt4pairIKS6_5TokenENS_10_Select1stESt8equal_toIS6_ESt4hashIS6_ENS_18_Mod_range_hashingENS_20_Default_ranged_hashENS_17_Hashtable_traitsILb1ELb0ELb1EEEE16_M_key_equals_trIS6_EEbRKT_RKNS_16_Hash_node_valueISA_Lb1EEE>:
    6450:	55                   	push   rbp
    6451:	48 89 e5             	mov    rbp,rsp
    6454:	48 83 ec 30          	sub    rsp,0x30
    6458:	48 89 7d f8          	mov    QWORD PTR [rbp-0x8],rdi
    645c:	48 89 75 f0          	mov    QWORD PTR [rbp-0x10],rsi
    6460:	48 89 55 e8          	mov    QWORD PTR [rbp-0x18],rdx
    6464:	48 8b 7d f8          	mov    rdi,QWORD PTR [rbp-0x8]
    6468:	e8 c3 ef ff ff       	call   5430 <_ZNKSt8__detail15_Hashtable_baseINSt7__cxx1112basic_stringIcSt11char_traitsIcESaIcEEESt4pairIKS6_5TokenENS_10_Select1stESt8equal_toIS6_ESt4hashIS6_ENS_18_Mod_range_hashingENS_20_Default_ranged_hashENS_17_Hashtable_traitsILb1ELb0ELb1EEEE5_M_eqEv>
    646d:	48 89 45 d0          	mov    QWORD PTR [rbp-0x30],rax
    6471:	48 8b 45 f0          	mov    rax,QWORD PTR [rbp-0x10]
    6475:	48 89 45 d8          	mov    QWORD PTR [rbp-0x28],rax
    6479:	48 8b 7d e8          	mov    rdi,QWORD PTR [rbp-0x18]
    647d:	e8 1e f0 ff ff       	call   54a0 <_ZNKSt8__detail21_Hash_node_value_baseISt4pairIKNSt7__cxx1112basic_stringIcSt11char_traitsIcESaIcEEE5TokenEE4_M_vEv>
    6482:	48 89 c6             	mov    rsi,rax
    6485:	48 8d 7d e0          	lea    rdi,[rbp-0x20]
    6489:	e8 f2 ef ff ff       	call   5480 <_ZNKSt8__detail10_Select1stclIRKSt4pairIKNSt7__cxx1112basic_stringIcSt11char_traitsIcESaIcEEE5TokenEEEONS0_10__1st_typeIT_E4typeEOSF_>
    648e:	48 8b 7d d0          	mov    rdi,QWORD PTR [rbp-0x30]
    6492:	48 8b 75 d8          	mov    rsi,QWORD PTR [rbp-0x28]
    6496:	48 89 c2             	mov    rdx,rax
    6499:	e8 b2 ef ff ff       	call   5450 <_ZNKSt8equal_toINSt7__cxx1112basic_stringIcSt11char_traitsIcESaIcEEEEclERKS5_S8_>
    649e:	24 01                	and    al,0x1
    64a0:	0f b6 c0             	movzx  eax,al
    64a3:	48 83 c4 30          	add    rsp,0x30
    64a7:	5d                   	pop    rbp
    64a8:	c3                   	ret
    64a9:	0f 1f 80 00 00 00 00 	nop    DWORD PTR [rax+0x0]

00000000000064b0 <_ZNSt4pairINSt8__detail14_Node_iteratorIS_IKNSt7__cxx1112basic_stringIcSt11char_traitsIcESaIcEEE5TokenELb0ELb1EEEbEC2IRSB_bLb1EEEOT_OT0_>:
    64b0:	55                   	push   rbp
    64b1:	48 89 e5             	mov    rbp,rsp
    64b4:	48 89 7d f8          	mov    QWORD PTR [rbp-0x8],rdi
    64b8:	48 89 75 f0          	mov    QWORD PTR [rbp-0x10],rsi
    64bc:	48 89 55 e8          	mov    QWORD PTR [rbp-0x18],rdx
    64c0:	48 8b 45 f8          	mov    rax,QWORD PTR [rbp-0x8]
    64c4:	48 8b 4d f0          	mov    rcx,QWORD PTR [rbp-0x10]
    64c8:	48 8b 09             	mov    rcx,QWORD PTR [rcx]
    64cb:	48 89 08             	mov    QWORD PTR [rax],rcx
    64ce:	48 8b 4d e8          	mov    rcx,QWORD PTR [rbp-0x18]
    64d2:	8a 09                	mov    cl,BYTE PTR [rcx]
    64d4:	80 e1 01             	and    cl,0x1
    64d7:	88 48 08             	mov    BYTE PTR [rax+0x8],cl
    64da:	5d                   	pop    rbp
    64db:	c3                   	ret
    64dc:	0f 1f 40 00          	nop    DWORD PTR [rax+0x0]

00000000000064e0 <_ZNSt8__detail14_Node_iteratorISt4pairIKNSt7__cxx1112basic_stringIcSt11char_traitsIcESaIcEEE5TokenELb0ELb1EEppEv>:
    64e0:	55                   	push   rbp
    64e1:	48 89 e5             	mov    rbp,rsp
    64e4:	48 83 ec 10          	sub    rsp,0x10
    64e8:	48 89 7d f8          	mov    QWORD PTR [rbp-0x8],rdi
    64ec:	48 8b 7d f8          	mov    rdi,QWORD PTR [rbp-0x8]
    64f0:	48 89 7d f0          	mov    QWORD PTR [rbp-0x10],rdi
    64f4:	e8 17 f1 ff ff       	call   5610 <_ZNSt8__detail19_Node_iterator_baseISt4pairIKNSt7__cxx1112basic_stringIcSt11char_traitsIcESaIcEEE5TokenELb1EE7_M_incrEv>
    64f9:	48 8b 45 f0          	mov    rax,QWORD PTR [rbp-0x10]
    64fd:	48 83 c4 10          	add    rsp,0x10
    6501:	5d                   	pop    rbp
    6502:	c3                   	ret
    6503:	66 2e 0f 1f 84 00 00 	cs nop WORD PTR [rax+rax*1+0x0]
    650a:	00 00 00 
    650d:	0f 1f 00             	nop    DWORD PTR [rax]

0000000000006510 <_ZNKSt8__detail15_Hash_code_baseINSt7__cxx1112basic_stringIcSt11char_traitsIcESaIcEEESt4pairIKS6_5TokenENS_10_Select1stESt4hashIS6_ENS_18_Mod_range_hashingENS_20_Default_ranged_hashELb1EE15_M_hash_code_trIS6_EEmRKT_>:
    6510:	55                   	push   rbp
    6511:	48 89 e5             	mov    rbp,rsp
    6514:	48 83 ec 10          	sub    rsp,0x10
    6518:	48 89 7d f8          	mov    QWORD PTR [rbp-0x8],rdi
    651c:	48 89 75 f0          	mov    QWORD PTR [rbp-0x10],rsi
    6520:	48 8b 7d f8          	mov    rdi,QWORD PTR [rbp-0x8]
    6524:	e8 17 f1 ff ff       	call   5640 <_ZNKSt8__detail15_Hash_code_baseINSt7__cxx1112basic_stringIcSt11char_traitsIcESaIcEEESt4pairIKS6_5TokenENS_10_Select1stESt4hashIS6_ENS_18_Mod_range_hashingENS_20_Default_ranged_hashELb1EE7_M_hashEv>
    6529:	48 89 c7             	mov    rdi,rax
    652c:	48 8b 75 f0          	mov    rsi,QWORD PTR [rbp-0x10]
    6530:	e8 2b f1 ff ff       	call   5660 <_ZNKSt4hashINSt7__cxx1112basic_stringIcSt11char_traitsIcESaIcEEEEclERKS5_>
    6535:	48 83 c4 10          	add    rsp,0x10
    6539:	5d                   	pop    rbp
    653a:	c3                   	ret
    653b:	0f 1f 44 00 00       	nop    DWORD PTR [rax+rax*1+0x0]

0000000000006540 <_ZNKSt10_HashtableINSt7__cxx1112basic_stringIcSt11char_traitsIcESaIcEEESt4pairIKS5_5TokenESaIS9_ENSt8__detail10_Select1stESt8equal_toIS5_ESt4hashIS5_ENSB_18_Mod_range_hashingENSB_20_Default_ranged_hashENSB_20_Prime_rehash_policyENSB_17_Hashtable_traitsILb1ELb0ELb1EEEE15_M_find_node_trIS5_EEPNSB_10_Hash_nodeIS9_Lb1EEEmRKT_m>:
    6540:	55                   	push   rbp
    6541:	48 89 e5             	mov    rbp,rsp
    6544:	48 83 ec 30          	sub    rsp,0x30
    6548:	48 89 7d f0          	mov    QWORD PTR [rbp-0x10],rdi
    654c:	48 89 75 e8          	mov    QWORD PTR [rbp-0x18],rsi
    6550:	48 89 55 e0          	mov    QWORD PTR [rbp-0x20],rdx
    6554:	48 89 4d d8          	mov    QWORD PTR [rbp-0x28],rcx
    6558:	48 8b 7d f0          	mov    rdi,QWORD PTR [rbp-0x10]
    655c:	48 8b 75 e8          	mov    rsi,QWORD PTR [rbp-0x18]
    6560:	48 8b 55 e0          	mov    rdx,QWORD PTR [rbp-0x20]
    6564:	48 8b 4d d8          	mov    rcx,QWORD PTR [rbp-0x28]
    6568:	e8 23 02 00 00       	call   6790 <_ZNKSt10_HashtableINSt7__cxx1112basic_stringIcSt11char_traitsIcESaIcEEESt4pairIKS5_5TokenESaIS9_ENSt8__detail10_Select1stESt8equal_toIS5_ESt4hashIS5_ENSB_18_Mod_range_hashingENSB_20_Default_ranged_hashENSB_20_Prime_rehash_policyENSB_17_Hashtable_traitsILb1ELb0ELb1EEEE22_M_find_before_node_trIS5_EEPNSB_15_Hash_node_baseEmRKT_m>
    656d:	48 89 45 d0          	mov    QWORD PTR [rbp-0x30],rax
    6571:	48 83 7d d0 00       	cmp    QWORD PTR [rbp-0x30],0x0
    6576:	0f 84 10 00 00 00    	je     658c <_ZNKSt10_HashtableINSt7__cxx1112basic_stringIcSt11char_traitsIcESaIcEEESt4pairIKS5_5TokenESaIS9_ENSt8__detail10_Select1stESt8equal_toIS5_ESt4hashIS5_ENSB_18_Mod_range_hashingENSB_20_Default_ranged_hashENSB_20_Prime_rehash_policyENSB_17_Hashtable_traitsILb1ELb0ELb1EEEE15_M_find_node_trIS5_EEPNSB_10_Hash_nodeIS9_Lb1EEEmRKT_m+0x4c>
    657c:	48 8b 45 d0          	mov    rax,QWORD PTR [rbp-0x30]
    6580:	48 8b 00             	mov    rax,QWORD PTR [rax]
    6583:	48 89 45 f8          	mov    QWORD PTR [rbp-0x8],rax
    6587:	e9 08 00 00 00       	jmp    6594 <_ZNKSt10_HashtableINSt7__cxx1112basic_stringIcSt11char_traitsIcESaIcEEESt4pairIKS5_5TokenESaIS9_ENSt8__detail10_Select1stESt8equal_toIS5_ESt4hashIS5_ENSB_18_Mod_range_hashingENSB_20_Default_ranged_hashENSB_20_Prime_rehash_policyENSB_17_Hashtable_traitsILb1ELb0ELb1EEEE15_M_find_node_trIS5_EEPNSB_10_Hash_nodeIS9_Lb1EEEmRKT_m+0x54>
    658c:	48 c7 45 f8 00 00 00 	mov    QWORD PTR [rbp-0x8],0x0
    6593:	00 
    6594:	48 8b 45 f8          	mov    rax,QWORD PTR [rbp-0x8]
    6598:	48 83 c4 30          	add    rsp,0x30
    659c:	5d                   	pop    rbp
    659d:	c3                   	ret
    659e:	66 90                	xchg   ax,ax

00000000000065a0 <_ZNSt8__detail14_Node_iteratorISt4pairIKNSt7__cxx1112basic_stringIcSt11char_traitsIcESaIcEEE5TokenELb0ELb1EEC2EPNS_10_Hash_nodeISA_Lb1EEE>:
    65a0:	55                   	push   rbp
    65a1:	48 89 e5             	mov    rbp,rsp
    65a4:	48 83 ec 10          	sub    rsp,0x10
    65a8:	48 89 7d f8          	mov    QWORD PTR [rbp-0x8],rdi
    65ac:	48 89 75 f0          	mov    QWORD PTR [rbp-0x10],rsi
    65b0:	48 8b 7d f8          	mov    rdi,QWORD PTR [rbp-0x8]
    65b4:	48 8b 75 f0          	mov    rsi,QWORD PTR [rbp-0x10]
    65b8:	e8 93 f3 ff ff       	call   5950 <_ZNSt8__detail19_Node_iterator_baseISt4pairIKNSt7__cxx1112basic_stringIcSt11char_traitsIcESaIcEEE5TokenELb1EEC2EPNS_10_Hash_nodeISA_Lb1EEE>
    65bd:	48 83 c4 10          	add    rsp,0x10
    65c1:	5d                   	pop    rbp
    65c2:	c3                   	ret
    65c3:	66 2e 0f 1f 84 00 00 	cs nop WORD PTR [rax+rax*1+0x0]
    65ca:	00 00 00 
    65cd:	0f 1f 00             	nop    DWORD PTR [rax]

00000000000065d0 <_ZNSt4pairINSt8__detail14_Node_iteratorIS_IKNSt7__cxx1112basic_stringIcSt11char_traitsIcESaIcEEE5TokenELb0ELb1EEEbEC2ISB_bLb1EEEOT_OT0_>:
    65d0:	55                   	push   rbp
    65d1:	48 89 e5             	mov    rbp,rsp
    65d4:	48 89 7d f8          	mov    QWORD PTR [rbp-0x8],rdi
    65d8:	48 89 75 f0          	mov    QWORD PTR [rbp-0x10],rsi
    65dc:	48 89 55 e8          	mov    QWORD PTR [rbp-0x18],rdx
    65e0:	48 8b 45 f8          	mov    rax,QWORD PTR [rbp-0x8]
    65e4:	48 8b 4d f0          	mov    rcx,QWORD PTR [rbp-0x10]
    65e8:	48 8b 09             	mov    rcx,QWORD PTR [rcx]
    65eb:	48 89 08             	mov    QWORD PTR [rax],rcx
    65ee:	48 8b 4d e8          	mov    rcx,QWORD PTR [rbp-0x18]
    65f2:	8a 09                	mov    cl,BYTE PTR [rcx]
    65f4:	80 e1 01             	and    cl,0x1
    65f7:	88 48 08             	mov    BYTE PTR [rax+0x8],cl
    65fa:	5d                   	pop    rbp
    65fb:	c3                   	ret
    65fc:	0f 1f 40 00          	nop    DWORD PTR [rax+0x0]

0000000000006600 <_ZNSt8__detail12_NodeBuilderINS_10_Select1stEE8_S_buildIRKNSt7__cxx1112basic_stringIcSt11char_traitsIcESaIcEEERKSt4pairISA_5TokenENS_10_AllocNodeISaINS_10_Hash_nodeISE_Lb1EEEEEEEEPNT1_11__node_typeEOT_OT0_RKSM_>:
    6600:	55                   	push   rbp
    6601:	48 89 e5             	mov    rbp,rsp
    6604:	48 83 ec 20          	sub    rsp,0x20
    6608:	48 89 7d f8          	mov    QWORD PTR [rbp-0x8],rdi
    660c:	48 89 75 f0          	mov    QWORD PTR [rbp-0x10],rsi
    6610:	48 89 55 e8          	mov    QWORD PTR [rbp-0x18],rdx
    6614:	48 8b 7d e8          	mov    rdi,QWORD PTR [rbp-0x18]
    6618:	48 8b 75 f8          	mov    rsi,QWORD PTR [rbp-0x8]
    661c:	48 8b 55 f0          	mov    rdx,QWORD PTR [rbp-0x10]
    6620:	48 83 c2 20          	add    rdx,0x20
    6624:	e8 c7 02 00 00       	call   68f0 <_ZNKSt8__detail10_AllocNodeISaINS_10_Hash_nodeISt4pairIKNSt7__cxx1112basic_stringIcSt11char_traitsIcESaIcEEE5TokenELb1EEEEEclIJRS9_RKSA_EEEPSC_DpOT_>
    6629:	48 83 c4 20          	add    rsp,0x20
    662d:	5d                   	pop    rbp
    662e:	c3                   	ret
    662f:	90                   	nop

0000000000006630 <_ZNSt10_HashtableINSt7__cxx1112basic_stringIcSt11char_traitsIcESaIcEEESt4pairIKS5_5TokenESaIS9_ENSt8__detail10_Select1stESt8equal_toIS5_ESt4hashIS5_ENSB_18_Mod_range_hashingENSB_20_Default_ranged_hashENSB_20_Prime_rehash_policyENSB_17_Hashtable_traitsILb1ELb0ELb1EEEE12_Scoped_nodeC2EPNSB_10_Hash_nodeIS9_Lb1EEEPNSB_16_Hashtable_allocISaISP_EEE>:
    6630:	55                   	push   rbp
    6631:	48 89 e5             	mov    rbp,rsp
    6634:	48 89 7d f8          	mov    QWORD PTR [rbp-0x8],rdi
    6638:	48 89 75 f0          	mov    QWORD PTR [rbp-0x10],rsi
    663c:	48 89 55 e8          	mov    QWORD PTR [rbp-0x18],rdx
    6640:	48 8b 45 f8          	mov    rax,QWORD PTR [rbp-0x8]
    6644:	48 8b 4d e8          	mov    rcx,QWORD PTR [rbp-0x18]
    6648:	48 89 08             	mov    QWORD PTR [rax],rcx
    664b:	48 8b 4d f0          	mov    rcx,QWORD PTR [rbp-0x10]
    664f:	48 89 48 08          	mov    QWORD PTR [rax+0x8],rcx
    6653:	5d                   	pop    rbp
    6654:	c3                   	ret
    6655:	66 2e 0f 1f 84 00 00 	cs nop WORD PTR [rax+rax*1+0x0]
    665c:	00 00 00 
    665f:	90                   	nop

0000000000006660 <_ZNSt10_HashtableINSt7__cxx1112basic_stringIcSt11char_traitsIcESaIcEEESt4pairIKS5_5TokenESaIS9_ENSt8__detail10_Select1stESt8equal_toIS5_ESt4hashIS5_ENSB_18_Mod_range_hashingENSB_20_Default_ranged_hashENSB_20_Prime_rehash_policyENSB_17_Hashtable_traitsILb1ELb0ELb1EEEE21_M_insert_unique_nodeEmmPNSB_10_Hash_nodeIS9_Lb1EEEm>:
    6660:	55                   	push   rbp
    6661:	48 89 e5             	mov    rbp,rsp
    6664:	48 83 ec 60          	sub    rsp,0x60
    6668:	48 89 7d f0          	mov    QWORD PTR [rbp-0x10],rdi
    666c:	48 89 75 e8          	mov    QWORD PTR [rbp-0x18],rsi
    6670:	48 89 55 e0          	mov    QWORD PTR [rbp-0x20],rdx
    6674:	48 89 4d d8          	mov    QWORD PTR [rbp-0x28],rcx
    6678:	4c 89 45 d0          	mov    QWORD PTR [rbp-0x30],r8
    667c:	48 8b 7d f0          	mov    rdi,QWORD PTR [rbp-0x10]
    6680:	48 89 7d a8          	mov    QWORD PTR [rbp-0x58],rdi
    6684:	48 83 c7 20          	add    rdi,0x20
    6688:	e8 33 05 00 00       	call   6bc0 <_ZNKSt8__detail20_Prime_rehash_policy8_M_stateEv>
    668d:	48 89 c1             	mov    rcx,rax
    6690:	48 8b 45 a8          	mov    rax,QWORD PTR [rbp-0x58]
    6694:	48 89 4d c0          	mov    QWORD PTR [rbp-0x40],rcx
    6698:	48 8d 4d c0          	lea    rcx,[rbp-0x40]
    669c:	48 89 4d c8          	mov    QWORD PTR [rbp-0x38],rcx
    66a0:	48 89 c7             	mov    rdi,rax
    66a3:	48 83 c7 20          	add    rdi,0x20
    66a7:	48 8b 70 08          	mov    rsi,QWORD PTR [rax+0x8]
    66ab:	48 8b 50 18          	mov    rdx,QWORD PTR [rax+0x18]
    66af:	48 8b 4d d0          	mov    rcx,QWORD PTR [rbp-0x30]
    66b3:	e8 88 bb ff ff       	call   2240 <_ZNKSt8__detail20_Prime_rehash_policy14_M_need_rehashEmmm@plt>
    66b8:	88 45 b0             	mov    BYTE PTR [rbp-0x50],al
    66bb:	48 89 55 b8          	mov    QWORD PTR [rbp-0x48],rdx
    66bf:	f6 45 b0 01          	test   BYTE PTR [rbp-0x50],0x1
    66c3:	0f 84 22 00 00 00    	je     66eb <_ZNSt10_HashtableINSt7__cxx1112basic_stringIcSt11char_traitsIcESaIcEEESt4pairIKS5_5TokenESaIS9_ENSt8__detail10_Select1stESt8equal_toIS5_ESt4hashIS5_ENSB_18_Mod_range_hashingENSB_20_Default_ranged_hashENSB_20_Prime_rehash_policyENSB_17_Hashtable_traitsILb1ELb0ELb1EEEE21_M_insert_unique_nodeEmmPNSB_10_Hash_nodeIS9_Lb1EEEm+0x8b>
    66c9:	48 8b 7d a8          	mov    rdi,QWORD PTR [rbp-0x58]
    66cd:	48 8b 75 b8          	mov    rsi,QWORD PTR [rbp-0x48]
    66d1:	48 8b 55 c8          	mov    rdx,QWORD PTR [rbp-0x38]
    66d5:	e8 06 05 00 00       	call   6be0 <_ZNSt10_HashtableINSt7__cxx1112basic_stringIcSt11char_traitsIcESaIcEEESt4pairIKS5_5TokenESaIS9_ENSt8__detail10_Select1stESt8equal_toIS5_ESt4hashIS5_ENSB_18_Mod_range_hashingENSB_20_Default_ranged_hashENSB_20_Prime_rehash_policyENSB_17_Hashtable_traitsILb1ELb0ELb1EEEE9_M_rehashEmRKm>
    66da:	48 8b 7d a8          	mov    rdi,QWORD PTR [rbp-0x58]
    66de:	48 8b 75 e0          	mov    rsi,QWORD PTR [rbp-0x20]
    66e2:	e8 79 ec ff ff       	call   5360 <_ZNKSt10_HashtableINSt7__cxx1112basic_stringIcSt11char_traitsIcESaIcEEESt4pairIKS5_5TokenESaIS9_ENSt8__detail10_Select1stESt8equal_toIS5_ESt4hashIS5_ENSB_18_Mod_range_hashingENSB_20_Default_ranged_hashENSB_20_Prime_rehash_policyENSB_17_Hashtable_traitsILb1ELb0ELb1EEEE15_M_bucket_indexEm>
    66e7:	48 89 45 e8          	mov    QWORD PTR [rbp-0x18],rax
    66eb:	48 8b 7d a8          	mov    rdi,QWORD PTR [rbp-0x58]
    66ef:	48 8b 75 d8          	mov    rsi,QWORD PTR [rbp-0x28]
    66f3:	48 83 c6 30          	add    rsi,0x30
    66f7:	48 8b 55 e0          	mov    rdx,QWORD PTR [rbp-0x20]
    66fb:	e8 80 05 00 00       	call   6c80 <_ZNKSt8__detail15_Hash_code_baseINSt7__cxx1112basic_stringIcSt11char_traitsIcESaIcEEESt4pairIKS6_5TokenENS_10_Select1stESt4hashIS6_ENS_18_Mod_range_hashingENS_20_Default_ranged_hashELb1EE13_M_store_codeERNS_21_Hash_node_code_cacheILb1EEEm>
    6700:	48 8b 7d a8          	mov    rdi,QWORD PTR [rbp-0x58]
    6704:	48 8b 75 e8          	mov    rsi,QWORD PTR [rbp-0x18]
    6708:	48 8b 55 d8          	mov    rdx,QWORD PTR [rbp-0x28]
    670c:	e8 8f 05 00 00       	call   6ca0 <_ZNSt10_HashtableINSt7__cxx1112basic_stringIcSt11char_traitsIcESaIcEEESt4pairIKS5_5TokenESaIS9_ENSt8__detail10_Select1stESt8equal_toIS5_ESt4hashIS5_ENSB_18_Mod_range_hashingENSB_20_Default_ranged_hashENSB_20_Prime_rehash_policyENSB_17_Hashtable_traitsILb1ELb0ELb1EEEE22_M_insert_bucket_beginEmPNSB_10_Hash_nodeIS9_Lb1EEE>
    6711:	48 8b 45 a8          	mov    rax,QWORD PTR [rbp-0x58]
    6715:	48 8b 48 18          	mov    rcx,QWORD PTR [rax+0x18]
    6719:	48 83 c1 01          	add    rcx,0x1
    671d:	48 89 48 18          	mov    QWORD PTR [rax+0x18],rcx
    6721:	48 8b 75 d8          	mov    rsi,QWORD PTR [rbp-0x28]
    6725:	48 8d 7d f8          	lea    rdi,[rbp-0x8]
    6729:	e8 72 fe ff ff       	call   65a0 <_ZNSt8__detail14_Node_iteratorISt4pairIKNSt7__cxx1112basic_stringIcSt11char_traitsIcESaIcEEE5TokenELb0ELb1EEC2EPNS_10_Hash_nodeISA_Lb1EEE>
    672e:	48 8b 45 f8          	mov    rax,QWORD PTR [rbp-0x8]
    6732:	48 83 c4 60          	add    rsp,0x60
    6736:	5d                   	pop    rbp
    6737:	c3                   	ret
    6738:	0f 1f 84 00 00 00 00 	nop    DWORD PTR [rax+rax*1+0x0]
    673f:	00 

0000000000006740 <_ZNSt10_HashtableINSt7__cxx1112basic_stringIcSt11char_traitsIcESaIcEEESt4pairIKS5_5TokenESaIS9_ENSt8__detail10_Select1stESt8equal_toIS5_ESt4hashIS5_ENSB_18_Mod_range_hashingENSB_20_Default_ranged_hashENSB_20_Prime_rehash_policyENSB_17_Hashtable_traitsILb1ELb0ELb1EEEE12_Scoped_nodeD2Ev>:
    6740:	55                   	push   rbp
    6741:	48 89 e5             	mov    rbp,rsp
    6744:	48 83 ec 10          	sub    rsp,0x10
    6748:	48 89 7d f8          	mov    QWORD PTR [rbp-0x8],rdi
    674c:	48 8b 45 f8          	mov    rax,QWORD PTR [rbp-0x8]
    6750:	48 89 45 f0          	mov    QWORD PTR [rbp-0x10],rax
    6754:	48 83 78 08 00       	cmp    QWORD PTR [rax+0x8],0x0
    6759:	0f 84 1a 00 00 00    	je     6779 <_ZNSt10_HashtableINSt7__cxx1112basic_stringIcSt11char_traitsIcESaIcEEESt4pairIKS5_5TokenESaIS9_ENSt8__detail10_Select1stESt8equal_toIS5_ESt4hashIS5_ENSB_18_Mod_range_hashingENSB_20_Default_ranged_hashENSB_20_Prime_rehash_policyENSB_17_Hashtable_traitsILb1ELb0ELb1EEEE12_Scoped_nodeD2Ev+0x39>
    675f:	48 8b 45 f0          	mov    rax,QWORD PTR [rbp-0x10]
    6763:	48 8b 38             	mov    rdi,QWORD PTR [rax]
    6766:	48 8b 70 08          	mov    rsi,QWORD PTR [rax+0x8]
    676a:	e8 41 cd ff ff       	call   34b0 <_ZNSt8__detail16_Hashtable_allocISaINS_10_Hash_nodeISt4pairIKNSt7__cxx1112basic_stringIcSt11char_traitsIcESaIcEEE5TokenELb1EEEEE18_M_deallocate_nodeEPSC_>
    676f:	e9 00 00 00 00       	jmp    6774 <_ZNSt10_HashtableINSt7__cxx1112basic_stringIcSt11char_traitsIcESaIcEEESt4pairIKS5_5TokenESaIS9_ENSt8__detail10_Select1stESt8equal_toIS5_ESt4hashIS5_ENSB_18_Mod_range_hashingENSB_20_Default_ranged_hashENSB_20_Prime_rehash_policyENSB_17_Hashtable_traitsILb1ELb0ELb1EEEE12_Scoped_nodeD2Ev+0x34>
    6774:	e9 00 00 00 00       	jmp    6779 <_ZNSt10_HashtableINSt7__cxx1112basic_stringIcSt11char_traitsIcESaIcEEESt4pairIKS5_5TokenESaIS9_ENSt8__detail10_Select1stESt8equal_toIS5_ESt4hashIS5_ENSB_18_Mod_range_hashingENSB_20_Default_ranged_hashENSB_20_Prime_rehash_policyENSB_17_Hashtable_traitsILb1ELb0ELb1EEEE12_Scoped_nodeD2Ev+0x39>
    6779:	48 83 c4 10          	add    rsp,0x10
    677d:	5d                   	pop    rbp
    677e:	c3                   	ret
    677f:	48 89 c7             	mov    rdi,rax
    6782:	e8 69 cc ff ff       	call   33f0 <__clang_call_terminate>
    6787:	66 0f 1f 84 00 00 00 	nop    WORD PTR [rax+rax*1+0x0]
    678e:	00 00 

0000000000006790 <_ZNKSt10_HashtableINSt7__cxx1112basic_stringIcSt11char_traitsIcESaIcEEESt4pairIKS5_5TokenESaIS9_ENSt8__detail10_Select1stESt8equal_toIS5_ESt4hashIS5_ENSB_18_Mod_range_hashingENSB_20_Default_ranged_hashENSB_20_Prime_rehash_policyENSB_17_Hashtable_traitsILb1ELb0ELb1EEEE22_M_find_before_node_trIS5_EEPNSB_15_Hash_node_baseEmRKT_m>:
    6790:	55                   	push   rbp
    6791:	48 89 e5             	mov    rbp,rsp
    6794:	48 83 ec 40          	sub    rsp,0x40
    6798:	48 89 7d f0          	mov    QWORD PTR [rbp-0x10],rdi
    679c:	48 89 75 e8          	mov    QWORD PTR [rbp-0x18],rsi
    67a0:	48 89 55 e0          	mov    QWORD PTR [rbp-0x20],rdx
    67a4:	48 89 4d d8          	mov    QWORD PTR [rbp-0x28],rcx
    67a8:	48 8b 45 f0          	mov    rax,QWORD PTR [rbp-0x10]
    67ac:	48 89 45 c0          	mov    QWORD PTR [rbp-0x40],rax
    67b0:	48 8b 00             	mov    rax,QWORD PTR [rax]
    67b3:	48 8b 4d e8          	mov    rcx,QWORD PTR [rbp-0x18]
    67b7:	48 8b 04 c8          	mov    rax,QWORD PTR [rax+rcx*8]
    67bb:	48 89 45 d0          	mov    QWORD PTR [rbp-0x30],rax
    67bf:	48 83 7d d0 00       	cmp    QWORD PTR [rbp-0x30],0x0
    67c4:	0f 85 0d 00 00 00    	jne    67d7 <_ZNKSt10_HashtableINSt7__cxx1112basic_stringIcSt11char_traitsIcESaIcEEESt4pairIKS5_5TokenESaIS9_ENSt8__detail10_Select1stESt8equal_toIS5_ESt4hashIS5_ENSB_18_Mod_range_hashingENSB_20_Default_ranged_hashENSB_20_Prime_rehash_policyENSB_17_Hashtable_traitsILb1ELb0ELb1EEEE22_M_find_before_node_trIS5_EEPNSB_15_Hash_node_baseEmRKT_m+0x47>
    67ca:	48 c7 45 f8 00 00 00 	mov    QWORD PTR [rbp-0x8],0x0
    67d1:	00 
    67d2:	e9 96 00 00 00       	jmp    686d <_ZNKSt10_HashtableINSt7__cxx1112basic_stringIcSt11char_traitsIcESaIcEEESt4pairIKS5_5TokenESaIS9_ENSt8__detail10_Select1stESt8equal_toIS5_ESt4hashIS5_ENSB_18_Mod_range_hashingENSB_20_Default_ranged_hashENSB_20_Prime_rehash_policyENSB_17_Hashtable_traitsILb1ELb0ELb1EEEE22_M_find_before_node_trIS5_EEPNSB_15_Hash_node_baseEmRKT_m+0xdd>
    67d7:	48 8b 45 d0          	mov    rax,QWORD PTR [rbp-0x30]
    67db:	48 8b 00             	mov    rax,QWORD PTR [rax]
    67de:	48 89 45 c8          	mov    QWORD PTR [rbp-0x38],rax
    67e2:	48 8b 7d c0          	mov    rdi,QWORD PTR [rbp-0x40]
    67e6:	48 8b 75 e0          	mov    rsi,QWORD PTR [rbp-0x20]
    67ea:	48 8b 55 d8          	mov    rdx,QWORD PTR [rbp-0x28]
    67ee:	48 8b 4d c8          	mov    rcx,QWORD PTR [rbp-0x38]
    67f2:	48 83 c1 08          	add    rcx,0x8
    67f6:	e8 85 00 00 00       	call   6880 <_ZNKSt8__detail15_Hashtable_baseINSt7__cxx1112basic_stringIcSt11char_traitsIcESaIcEEESt4pairIKS6_5TokenENS_10_Select1stESt8equal_toIS6_ESt4hashIS6_ENS_18_Mod_range_hashingENS_20_Default_ranged_hashENS_17_Hashtable_traitsILb1ELb0ELb1EEEE12_M_equals_trIS6_EEbRKT_mRKNS_16_Hash_node_valueISA_Lb1EEE>
    67fb:	a8 01                	test   al,0x1
    67fd:	0f 85 05 00 00 00    	jne    6808 <_ZNKSt10_HashtableINSt7__cxx1112basic_stringIcSt11char_traitsIcESaIcEEESt4pairIKS5_5TokenESaIS9_ENSt8__detail10_Select1stESt8equal_toIS5_ESt4hashIS5_ENSB_18_Mod_range_hashingENSB_20_Default_ranged_hashENSB_20_Prime_rehash_policyENSB_17_Hashtable_traitsILb1ELb0ELb1EEEE22_M_find_before_node_trIS5_EEPNSB_15_Hash_node_baseEmRKT_m+0x78>
    6803:	e9 0d 00 00 00       	jmp    6815 <_ZNKSt10_HashtableINSt7__cxx1112basic_stringIcSt11char_traitsIcESaIcEEESt4pairIKS5_5TokenESaIS9_ENSt8__detail10_Select1stESt8equal_toIS5_ESt4hashIS5_ENSB_18_Mod_range_hashingENSB_20_Default_ranged_hashENSB_20_Prime_rehash_policyENSB_17_Hashtable_traitsILb1ELb0ELb1EEEE22_M_find_before_node_trIS5_EEPNSB_15_Hash_node_baseEmRKT_m+0x85>
    6808:	48 8b 45 d0          	mov    rax,QWORD PTR [rbp-0x30]
    680c:	48 89 45 f8          	mov    QWORD PTR [rbp-0x8],rax
    6810:	e9 58 00 00 00       	jmp    686d <_ZNKSt10_HashtableINSt7__cxx1112basic_stringIcSt11char_traitsIcESaIcEEESt4pairIKS5_5TokenESaIS9_ENSt8__detail10_Select1stESt8equal_toIS5_ESt4hashIS5_ENSB_18_Mod_range_hashingENSB_20_Default_ranged_hashENSB_20_Prime_rehash_policyENSB_17_Hashtable_traitsILb1ELb0ELb1EEEE22_M_find_before_node_trIS5_EEPNSB_15_Hash_node_baseEmRKT_m+0xdd>
    6815:	48 8b 45 c8          	mov    rax,QWORD PTR [rbp-0x38]
    6819:	48 83 38 00          	cmp    QWORD PTR [rax],0x0
    681d:	0f 84 23 00 00 00    	je     6846 <_ZNKSt10_HashtableINSt7__cxx1112basic_stringIcSt11char_traitsIcESaIcEEESt4pairIKS5_5TokenESaIS9_ENSt8__detail10_Select1stESt8equal_toIS5_ESt4hashIS5_ENSB_18_Mod_range_hashingENSB_20_Default_ranged_hashENSB_20_Prime_rehash_policyENSB_17_Hashtable_traitsILb1ELb0ELb1EEEE22_M_find_before_node_trIS5_EEPNSB_15_Hash_node_baseEmRKT_m+0xb6>
    6823:	48 8b 7d c8          	mov    rdi,QWORD PTR [rbp-0x38]
    6827:	e8 64 cc ff ff       	call   3490 <_ZNKSt8__detail10_Hash_nodeISt4pairIKNSt7__cxx1112basic_stringIcSt11char_traitsIcESaIcEEE5TokenELb1EE7_M_nextEv>
    682c:	48 8b 7d c0          	mov    rdi,QWORD PTR [rbp-0x40]
    6830:	48 89 c6             	mov    rsi,rax
    6833:	48 83 c6 08          	add    rsi,0x8
    6837:	e8 84 f0 ff ff       	call   58c0 <_ZNKSt10_HashtableINSt7__cxx1112basic_stringIcSt11char_traitsIcESaIcEEESt4pairIKS5_5TokenESaIS9_ENSt8__detail10_Select1stESt8equal_toIS5_ESt4hashIS5_ENSB_18_Mod_range_hashingENSB_20_Default_ranged_hashENSB_20_Prime_rehash_policyENSB_17_Hashtable_traitsILb1ELb0ELb1EEEE15_M_bucket_indexERKNSB_16_Hash_node_valueIS9_Lb1EEE>
    683c:	48 3b 45 e8          	cmp    rax,QWORD PTR [rbp-0x18]
    6840:	0f 84 05 00 00 00    	je     684b <_ZNKSt10_HashtableINSt7__cxx1112basic_stringIcSt11char_traitsIcESaIcEEESt4pairIKS5_5TokenESaIS9_ENSt8__detail10_Select1stESt8equal_toIS5_ESt4hashIS5_ENSB_18_Mod_range_hashingENSB_20_Default_ranged_hashENSB_20_Prime_rehash_policyENSB_17_Hashtable_traitsILb1ELb0ELb1EEEE22_M_find_before_node_trIS5_EEPNSB_15_Hash_node_baseEmRKT_m+0xbb>
    6846:	e9 1a 00 00 00       	jmp    6865 <_ZNKSt10_HashtableINSt7__cxx1112basic_stringIcSt11char_traitsIcESaIcEEESt4pairIKS5_5TokenESaIS9_ENSt8__detail10_Select1stESt8equal_toIS5_ESt4hashIS5_ENSB_18_Mod_range_hashingENSB_20_Default_ranged_hashENSB_20_Prime_rehash_policyENSB_17_Hashtable_traitsILb1ELb0ELb1EEEE22_M_find_before_node_trIS5_EEPNSB_15_Hash_node_baseEmRKT_m+0xd5>
    684b:	48 8b 45 c8          	mov    rax,QWORD PTR [rbp-0x38]
    684f:	48 89 45 d0          	mov    QWORD PTR [rbp-0x30],rax
    6853:	48 8b 7d c8          	mov    rdi,QWORD PTR [rbp-0x38]
    6857:	e8 34 cc ff ff       	call   3490 <_ZNKSt8__detail10_Hash_nodeISt4pairIKNSt7__cxx1112basic_stringIcSt11char_traitsIcESaIcEEE5TokenELb1EE7_M_nextEv>
    685c:	48 89 45 c8          	mov    QWORD PTR [rbp-0x38],rax
    6860:	e9 7d ff ff ff       	jmp    67e2 <_ZNKSt10_HashtableINSt7__cxx1112basic_stringIcSt11char_traitsIcESaIcEEESt4pairIKS5_5TokenESaIS9_ENSt8__detail10_Select1stESt8equal_toIS5_ESt4hashIS5_ENSB_18_Mod_range_hashingENSB_20_Default_ranged_hashENSB_20_Prime_rehash_policyENSB_17_Hashtable_traitsILb1ELb0ELb1EEEE22_M_find_before_node_trIS5_EEPNSB_15_Hash_node_baseEmRKT_m+0x52>
    6865:	48 c7 45 f8 00 00 00 	mov    QWORD PTR [rbp-0x8],0x0
    686c:	00 
    686d:	48 8b 45 f8          	mov    rax,QWORD PTR [rbp-0x8]
    6871:	48 83 c4 40          	add    rsp,0x40
    6875:	5d                   	pop    rbp
    6876:	c3                   	ret
    6877:	66 0f 1f 84 00 00 00 	nop    WORD PTR [rax+rax*1+0x0]
    687e:	00 00 

0000000000006880 <_ZNKSt8__detail15_Hashtable_baseINSt7__cxx1112basic_stringIcSt11char_traitsIcESaIcEEESt4pairIKS6_5TokenENS_10_Select1stESt8equal_toIS6_ESt4hashIS6_ENS_18_Mod_range_hashingENS_20_Default_ranged_hashENS_17_Hashtable_traitsILb1ELb0ELb1EEEE12_M_equals_trIS6_EEbRKT_mRKNS_16_Hash_node_valueISA_Lb1EEE>:
    6880:	55                   	push   rbp
    6881:	48 89 e5             	mov    rbp,rsp
    6884:	48 83 ec 30          	sub    rsp,0x30
    6888:	48 89 7d f8          	mov    QWORD PTR [rbp-0x8],rdi
    688c:	48 89 75 f0          	mov    QWORD PTR [rbp-0x10],rsi
    6890:	48 89 55 e8          	mov    QWORD PTR [rbp-0x18],rdx
    6894:	48 89 4d e0          	mov    QWORD PTR [rbp-0x20],rcx
    6898:	48 8b 45 f8          	mov    rax,QWORD PTR [rbp-0x8]
    689c:	48 89 45 d0          	mov    QWORD PTR [rbp-0x30],rax
    68a0:	48 8b 7d e8          	mov    rdi,QWORD PTR [rbp-0x18]
    68a4:	48 8b 75 e0          	mov    rsi,QWORD PTR [rbp-0x20]
    68a8:	48 83 c6 28          	add    rsi,0x28
    68ac:	e8 3f f0 ff ff       	call   58f0 <_ZNSt8__detail15_Hashtable_baseINSt7__cxx1112basic_stringIcSt11char_traitsIcESaIcEEESt4pairIKS6_5TokenENS_10_Select1stESt8equal_toIS6_ESt4hashIS6_ENS_18_Mod_range_hashingENS_20_Default_ranged_hashENS_17_Hashtable_traitsILb1ELb0ELb1EEEE9_S_equalsEmRKNS_21_Hash_node_code_cacheILb1EEE>
    68b1:	88 c1                	mov    cl,al
    68b3:	31 c0                	xor    eax,eax
    68b5:	f6 c1 01             	test   cl,0x1
    68b8:	88 45 df             	mov    BYTE PTR [rbp-0x21],al
    68bb:	0f 85 05 00 00 00    	jne    68c6 <_ZNKSt8__detail15_Hashtable_baseINSt7__cxx1112basic_stringIcSt11char_traitsIcESaIcEEESt4pairIKS6_5TokenENS_10_Select1stESt8equal_toIS6_ESt4hashIS6_ENS_18_Mod_range_hashingENS_20_Default_ranged_hashENS_17_Hashtable_traitsILb1ELb0ELb1EEEE12_M_equals_trIS6_EEbRKT_mRKNS_16_Hash_node_valueISA_Lb1EEE+0x46>
    68c1:	e9 14 00 00 00       	jmp    68da <_ZNKSt8__detail15_Hashtable_baseINSt7__cxx1112basic_stringIcSt11char_traitsIcESaIcEEESt4pairIKS6_5TokenENS_10_Select1stESt8equal_toIS6_ESt4hashIS6_ENS_18_Mod_range_hashingENS_20_Default_ranged_hashENS_17_Hashtable_traitsILb1ELb0ELb1EEEE12_M_equals_trIS6_EEbRKT_mRKNS_16_Hash_node_valueISA_Lb1EEE+0x5a>
    68c6:	48 8b 7d d0          	mov    rdi,QWORD PTR [rbp-0x30]
    68ca:	48 8b 75 f0          	mov    rsi,QWORD PTR [rbp-0x10]
    68ce:	48 8b 55 e0          	mov    rdx,QWORD PTR [rbp-0x20]
    68d2:	e8 79 fb ff ff       	call   6450 <_ZNKSt8__detail15_Hashtable_baseINSt7__cxx1112basic_stringIcSt11char_traitsIcESaIcEEESt4pairIKS6_5TokenENS_10_Select1stESt8equal_toIS6_ESt4hashIS6_ENS_18_Mod_range_hashingENS_20_Default_ranged_hashENS_17_Hashtable_traitsILb1ELb0ELb1EEEE16_M_key_equals_trIS6_EEbRKT_RKNS_16_Hash_node_valueISA_Lb1EEE>
    68d7:	88 45 df             	mov    BYTE PTR [rbp-0x21],al
    68da:	8a 45 df             	mov    al,BYTE PTR [rbp-0x21]
    68dd:	24 01                	and    al,0x1
    68df:	0f b6 c0             	movzx  eax,al
    68e2:	48 83 c4 30          	add    rsp,0x30
    68e6:	5d                   	pop    rbp
    68e7:	c3                   	ret
    68e8:	0f 1f 84 00 00 00 00 	nop    DWORD PTR [rax+rax*1+0x0]
    68ef:	00 

00000000000068f0 <_ZNKSt8__detail10_AllocNodeISaINS_10_Hash_nodeISt4pairIKNSt7__cxx1112basic_stringIcSt11char_traitsIcESaIcEEE5TokenELb1EEEEEclIJRS9_RKSA_EEEPSC_DpOT_>:
    68f0:	55                   	push   rbp
    68f1:	48 89 e5             	mov    rbp,rsp
    68f4:	48 83 ec 20          	sub    rsp,0x20
    68f8:	48 89 7d f8          	mov    QWORD PTR [rbp-0x8],rdi
    68fc:	48 89 75 f0          	mov    QWORD PTR [rbp-0x10],rsi
    6900:	48 89 55 e8          	mov    QWORD PTR [rbp-0x18],rdx
    6904:	48 8b 45 f8          	mov    rax,QWORD PTR [rbp-0x8]
    6908:	48 8b 38             	mov    rdi,QWORD PTR [rax]
    690b:	48 8b 75 f0          	mov    rsi,QWORD PTR [rbp-0x10]
    690f:	48 8b 55 e8          	mov    rdx,QWORD PTR [rbp-0x18]
    6913:	e8 08 00 00 00       	call   6920 <_ZNSt8__detail16_Hashtable_allocISaINS_10_Hash_nodeISt4pairIKNSt7__cxx1112basic_stringIcSt11char_traitsIcESaIcEEE5TokenELb1EEEEE16_M_allocate_nodeIJRS9_RKSA_EEEPSC_DpOT_>
    6918:	48 83 c4 20          	add    rsp,0x20
    691c:	5d                   	pop    rbp
    691d:	c3                   	ret
    691e:	66 90                	xchg   ax,ax

0000000000006920 <_ZNSt8__detail16_Hashtable_allocISaINS_10_Hash_nodeISt4pairIKNSt7__cxx1112basic_stringIcSt11char_traitsIcESaIcEEE5TokenELb1EEEEE16_M_allocate_nodeIJRS9_RKSA_EEEPSC_DpOT_>:
    6920:	55                   	push   rbp
    6921:	48 89 e5             	mov    rbp,rsp
    6924:	48 83 ec 50          	sub    rsp,0x50
    6928:	48 89 7d f8          	mov    QWORD PTR [rbp-0x8],rdi
    692c:	48 89 75 f0          	mov    QWORD PTR [rbp-0x10],rsi
    6930:	48 89 55 e8          	mov    QWORD PTR [rbp-0x18],rdx
    6934:	48 8b 7d f8          	mov    rdi,QWORD PTR [rbp-0x8]
    6938:	48 89 7d b8          	mov    QWORD PTR [rbp-0x48],rdi
    693c:	e8 ef cb ff ff       	call   3530 <_ZNSt8__detail16_Hashtable_allocISaINS_10_Hash_nodeISt4pairIKNSt7__cxx1112basic_stringIcSt11char_traitsIcESaIcEEE5TokenELb1EEEEE17_M_node_allocatorEv>
    6941:	48 89 c7             	mov    rdi,rax
    6944:	be 01 00 00 00       	mov    esi,0x1
    6949:	e8 d2 00 00 00       	call   6a20 <_ZNSt16allocator_traitsISaINSt8__detail10_Hash_nodeISt4pairIKNSt7__cxx1112basic_stringIcSt11char_traitsIcESaIcEEE5TokenELb1EEEEE8allocateERSD_m>
    694e:	48 89 45 e0          	mov    QWORD PTR [rbp-0x20],rax
    6952:	48 8b 7d e0          	mov    rdi,QWORD PTR [rbp-0x20]
    6956:	e8 f5 00 00 00       	call   6a50 <_ZSt12__to_addressINSt8__detail10_Hash_nodeISt4pairIKNSt7__cxx1112basic_stringIcSt11char_traitsIcESaIcEEE5TokenELb1EEEEPT_SE_>
    695b:	48 89 45 d8          	mov    QWORD PTR [rbp-0x28],rax
    695f:	48 8b 7d d8          	mov    rdi,QWORD PTR [rbp-0x28]
    6963:	e8 f8 00 00 00       	call   6a60 <_ZNSt8__detail10_Hash_nodeISt4pairIKNSt7__cxx1112basic_stringIcSt11char_traitsIcESaIcEEE5TokenELb1EEC2Ev>
    6968:	48 8b 7d b8          	mov    rdi,QWORD PTR [rbp-0x48]
    696c:	e8 bf cb ff ff       	call   3530 <_ZNSt8__detail16_Hashtable_allocISaINS_10_Hash_nodeISt4pairIKNSt7__cxx1112basic_stringIcSt11char_traitsIcESaIcEEE5TokenELb1EEEEE17_M_node_allocatorEv>
    6971:	48 89 45 c0          	mov    QWORD PTR [rbp-0x40],rax
    6975:	e9 00 00 00 00       	jmp    697a <_ZNSt8__detail16_Hashtable_allocISaINS_10_Hash_nodeISt4pairIKNSt7__cxx1112basic_stringIcSt11char_traitsIcESaIcEEE5TokenELb1EEEEE16_M_allocate_nodeIJRS9_RKSA_EEEPSC_DpOT_+0x5a>
    697a:	48 8b 7d d8          	mov    rdi,QWORD PTR [rbp-0x28]
    697e:	48 83 c7 08          	add    rdi,0x8
    6982:	e8 c9 cb ff ff       	call   3550 <_ZNSt8__detail21_Hash_node_value_baseISt4pairIKNSt7__cxx1112basic_stringIcSt11char_traitsIcESaIcEEE5TokenEE9_M_valptrEv>
    6987:	48 8b 7d c0          	mov    rdi,QWORD PTR [rbp-0x40]
    698b:	48 89 c6             	mov    rsi,rax
    698e:	48 8b 55 f0          	mov    rdx,QWORD PTR [rbp-0x10]
    6992:	48 8b 4d e8          	mov    rcx,QWORD PTR [rbp-0x18]
    6996:	e8 e5 00 00 00       	call   6a80 <_ZNSt16allocator_traitsISaINSt8__detail10_Hash_nodeISt4pairIKNSt7__cxx1112basic_stringIcSt11char_traitsIcESaIcEEE5TokenELb1EEEEE9constructISB_JRS9_RKSA_EEEvRSD_PT_DpOT0_>
    699b:	e9 00 00 00 00       	jmp    69a0 <_ZNSt8__detail16_Hashtable_allocISaINS_10_Hash_nodeISt4pairIKNSt7__cxx1112basic_stringIcSt11char_traitsIcESaIcEEE5TokenELb1EEEEE16_M_allocate_nodeIJRS9_RKSA_EEEPSC_DpOT_+0x80>
    69a0:	48 8b 45 d8          	mov    rax,QWORD PTR [rbp-0x28]
    69a4:	48 83 c4 50          	add    rsp,0x50
    69a8:	5d                   	pop    rbp
    69a9:	c3                   	ret
    69aa:	48 89 c1             	mov    rcx,rax
    69ad:	89 d0                	mov    eax,edx
    69af:	48 89 4d d0          	mov    QWORD PTR [rbp-0x30],rcx
    69b3:	89 45 cc             	mov    DWORD PTR [rbp-0x34],eax
    69b6:	48 8b 7d d0          	mov    rdi,QWORD PTR [rbp-0x30]
    69ba:	e8 c1 b6 ff ff       	call   2080 <__cxa_begin_catch@plt>
    69bf:	48 8b 7d b8          	mov    rdi,QWORD PTR [rbp-0x48]
    69c3:	e8 68 cb ff ff       	call   3530 <_ZNSt8__detail16_Hashtable_allocISaINS_10_Hash_nodeISt4pairIKNSt7__cxx1112basic_stringIcSt11char_traitsIcESaIcEEE5TokenELb1EEEEE17_M_node_allocatorEv>
    69c8:	48 89 45 b0          	mov    QWORD PTR [rbp-0x50],rax
    69cc:	e9 00 00 00 00       	jmp    69d1 <_ZNSt8__detail16_Hashtable_allocISaINS_10_Hash_nodeISt4pairIKNSt7__cxx1112basic_stringIcSt11char_traitsIcESaIcEEE5TokenELb1EEEEE16_M_allocate_nodeIJRS9_RKSA_EEEPSC_DpOT_+0xb1>
    69d1:	48 8b 7d b0          	mov    rdi,QWORD PTR [rbp-0x50]
    69d5:	48 8b 75 e0          	mov    rsi,QWORD PTR [rbp-0x20]
    69d9:	ba 01 00 00 00       	mov    edx,0x1
    69de:	e8 4d cc ff ff       	call   3630 <_ZNSt16allocator_traitsISaINSt8__detail10_Hash_nodeISt4pairIKNSt7__cxx1112basic_stringIcSt11char_traitsIcESaIcEEE5TokenELb1EEEEE10deallocateERSD_PSC_m>
    69e3:	e9 00 00 00 00       	jmp    69e8 <_ZNSt8__detail16_Hashtable_allocISaINS_10_Hash_nodeISt4pairIKNSt7__cxx1112basic_stringIcSt11char_traitsIcESaIcEEE5TokenELb1EEEEE16_M_allocate_nodeIJRS9_RKSA_EEEPSC_DpOT_+0xc8>
    69e8:	e8 83 b8 ff ff       	call   2270 <__cxa_rethrow@plt>
    69ed:	e9 2c 00 00 00       	jmp    6a1e <_ZNSt8__detail16_Hashtable_allocISaINS_10_Hash_nodeISt4pairIKNSt7__cxx1112basic_stringIcSt11char_traitsIcESaIcEEE5TokenELb1EEEEE16_M_allocate_nodeIJRS9_RKSA_EEEPSC_DpOT_+0xfe>
    69f2:	48 89 c1             	mov    rcx,rax
    69f5:	89 d0                	mov    eax,edx
    69f7:	48 89 4d d0          	mov    QWORD PTR [rbp-0x30],rcx
    69fb:	89 45 cc             	mov    DWORD PTR [rbp-0x34],eax
    69fe:	e8 ad b8 ff ff       	call   22b0 <__cxa_end_catch@plt>
    6a03:	e9 00 00 00 00       	jmp    6a08 <_ZNSt8__detail16_Hashtable_allocISaINS_10_Hash_nodeISt4pairIKNSt7__cxx1112basic_stringIcSt11char_traitsIcESaIcEEE5TokenELb1EEEEE16_M_allocate_nodeIJRS9_RKSA_EEEPSC_DpOT_+0xe8>
    6a08:	e9 00 00 00 00       	jmp    6a0d <_ZNSt8__detail16_Hashtable_allocISaINS_10_Hash_nodeISt4pairIKNSt7__cxx1112basic_stringIcSt11char_traitsIcESaIcEEE5TokenELb1EEEEE16_M_allocate_nodeIJRS9_RKSA_EEEPSC_DpOT_+0xed>
    6a0d:	48 8b 7d d0          	mov    rdi,QWORD PTR [rbp-0x30]
    6a11:	e8 ca b8 ff ff       	call   22e0 <_Unwind_Resume@plt>
    6a16:	48 89 c7             	mov    rdi,rax
    6a19:	e8 d2 c9 ff ff       	call   33f0 <__clang_call_terminate>
    6a1e:	66 90                	xchg   ax,ax

0000000000006a20 <_ZNSt16allocator_traitsISaINSt8__detail10_Hash_nodeISt4pairIKNSt7__cxx1112basic_stringIcSt11char_traitsIcESaIcEEE5TokenELb1EEEEE8allocateERSD_m>:
    6a20:	55                   	push   rbp
    6a21:	48 89 e5             	mov    rbp,rsp
    6a24:	48 83 ec 10          	sub    rsp,0x10
    6a28:	48 89 7d f8          	mov    QWORD PTR [rbp-0x8],rdi
    6a2c:	48 89 75 f0          	mov    QWORD PTR [rbp-0x10],rsi
    6a30:	48 8b 7d f8          	mov    rdi,QWORD PTR [rbp-0x8]
    6a34:	48 8b 75 f0          	mov    rsi,QWORD PTR [rbp-0x10]
    6a38:	31 c0                	xor    eax,eax
    6a3a:	89 c2                	mov    edx,eax
    6a3c:	e8 7f 00 00 00       	call   6ac0 <_ZNSt15__new_allocatorINSt8__detail10_Hash_nodeISt4pairIKNSt7__cxx1112basic_stringIcSt11char_traitsIcESaIcEEE5TokenELb1EEEE8allocateEmPKv>
    6a41:	48 83 c4 10          	add    rsp,0x10
    6a45:	5d                   	pop    rbp
    6a46:	c3                   	ret
    6a47:	66 0f 1f 84 00 00 00 	nop    WORD PTR [rax+rax*1+0x0]
    6a4e:	00 00 

0000000000006a50 <_ZSt12__to_addressINSt8__detail10_Hash_nodeISt4pairIKNSt7__cxx1112basic_stringIcSt11char_traitsIcESaIcEEE5TokenELb1EEEEPT_SE_>:
    6a50:	55                   	push   rbp
    6a51:	48 89 e5             	mov    rbp,rsp
    6a54:	48 89 7d f8          	mov    QWORD PTR [rbp-0x8],rdi
    6a58:	48 8b 45 f8          	mov    rax,QWORD PTR [rbp-0x8]
    6a5c:	5d                   	pop    rbp
    6a5d:	c3                   	ret
    6a5e:	66 90                	xchg   ax,ax

0000000000006a60 <_ZNSt8__detail10_Hash_nodeISt4pairIKNSt7__cxx1112basic_stringIcSt11char_traitsIcESaIcEEE5TokenELb1EEC2Ev>:
    6a60:	55                   	push   rbp
    6a61:	48 89 e5             	mov    rbp,rsp
    6a64:	48 83 ec 10          	sub    rsp,0x10
    6a68:	48 89 7d f8          	mov    QWORD PTR [rbp-0x8],rdi
    6a6c:	48 8b 7d f8          	mov    rdi,QWORD PTR [rbp-0x8]
    6a70:	e8 eb f3 ff ff       	call   5e60 <_ZNSt8__detail15_Hash_node_baseC2Ev>
    6a75:	48 83 c4 10          	add    rsp,0x10
    6a79:	5d                   	pop    rbp
    6a7a:	c3                   	ret
    6a7b:	0f 1f 44 00 00       	nop    DWORD PTR [rax+rax*1+0x0]

0000000000006a80 <_ZNSt16allocator_traitsISaINSt8__detail10_Hash_nodeISt4pairIKNSt7__cxx1112basic_stringIcSt11char_traitsIcESaIcEEE5TokenELb1EEEEE9constructISB_JRS9_RKSA_EEEvRSD_PT_DpOT0_>:
    6a80:	55                   	push   rbp
    6a81:	48 89 e5             	mov    rbp,rsp
    6a84:	48 83 ec 20          	sub    rsp,0x20
    6a88:	48 89 7d f8          	mov    QWORD PTR [rbp-0x8],rdi
    6a8c:	48 89 75 f0          	mov    QWORD PTR [rbp-0x10],rsi
    6a90:	48 89 55 e8          	mov    QWORD PTR [rbp-0x18],rdx
    6a94:	48 89 4d e0          	mov    QWORD PTR [rbp-0x20],rcx
    6a98:	48 8b 7d f8          	mov    rdi,QWORD PTR [rbp-0x8]
    6a9c:	48 8b 75 f0          	mov    rsi,QWORD PTR [rbp-0x10]
    6aa0:	48 8b 55 e8          	mov    rdx,QWORD PTR [rbp-0x18]
    6aa4:	48 8b 4d e0          	mov    rcx,QWORD PTR [rbp-0x20]
    6aa8:	e8 a3 00 00 00       	call   6b50 <_ZNSt15__new_allocatorINSt8__detail10_Hash_nodeISt4pairIKNSt7__cxx1112basic_stringIcSt11char_traitsIcESaIcEEE5TokenELb1EEEE9constructISB_JRS9_RKSA_EEEvPT_DpOT0_>
    6aad:	48 83 c4 20          	add    rsp,0x20
    6ab1:	5d                   	pop    rbp
    6ab2:	c3                   	ret
    6ab3:	66 2e 0f 1f 84 00 00 	cs nop WORD PTR [rax+rax*1+0x0]
    6aba:	00 00 00 
    6abd:	0f 1f 00             	nop    DWORD PTR [rax]

0000000000006ac0 <_ZNSt15__new_allocatorINSt8__detail10_Hash_nodeISt4pairIKNSt7__cxx1112basic_stringIcSt11char_traitsIcESaIcEEE5TokenELb1EEEE8allocateEmPKv>:
    6ac0:	55                   	push   rbp
    6ac1:	48 89 e5             	mov    rbp,rsp
    6ac4:	48 83 ec 20          	sub    rsp,0x20
    6ac8:	48 89 7d f8          	mov    QWORD PTR [rbp-0x8],rdi
    6acc:	48 89 75 f0          	mov    QWORD PTR [rbp-0x10],rsi
    6ad0:	48 89 55 e8          	mov    QWORD PTR [rbp-0x18],rdx
    6ad4:	48 8b 7d f8          	mov    rdi,QWORD PTR [rbp-0x8]
    6ad8:	48 8b 45 f0          	mov    rax,QWORD PTR [rbp-0x10]
    6adc:	48 89 45 e0          	mov    QWORD PTR [rbp-0x20],rax
    6ae0:	e8 4b 00 00 00       	call   6b30 <_ZNKSt15__new_allocatorINSt8__detail10_Hash_nodeISt4pairIKNSt7__cxx1112basic_stringIcSt11char_traitsIcESaIcEEE5TokenELb1EEEE11_M_max_sizeEv>
    6ae5:	48 89 c1             	mov    rcx,rax
    6ae8:	48 8b 45 e0          	mov    rax,QWORD PTR [rbp-0x20]
    6aec:	48 39 c8             	cmp    rax,rcx
    6aef:	0f 86 1e 00 00 00    	jbe    6b13 <_ZNSt15__new_allocatorINSt8__detail10_Hash_nodeISt4pairIKNSt7__cxx1112basic_stringIcSt11char_traitsIcESaIcEEE5TokenELb1EEEE8allocateEmPKv+0x53>
    6af5:	48 b8 92 24 49 92 24 	movabs rax,0x492492492492492
    6afc:	49 92 04 
    6aff:	48 39 45 f0          	cmp    QWORD PTR [rbp-0x10],rax
    6b03:	0f 86 05 00 00 00    	jbe    6b0e <_ZNSt15__new_allocatorINSt8__detail10_Hash_nodeISt4pairIKNSt7__cxx1112basic_stringIcSt11char_traitsIcESaIcEEE5TokenELb1EEEE8allocateEmPKv+0x4e>
    6b09:	e8 42 b6 ff ff       	call   2150 <_ZSt28__throw_bad_array_new_lengthv@plt>
    6b0e:	e8 5d b5 ff ff       	call   2070 <_ZSt17__throw_bad_allocv@plt>
    6b13:	48 6b 7d f0 38       	imul   rdi,QWORD PTR [rbp-0x10],0x38
    6b18:	e8 a3 b6 ff ff       	call   21c0 <_Znwm@plt>
    6b1d:	48 83 c4 20          	add    rsp,0x20
    6b21:	5d                   	pop    rbp
    6b22:	c3                   	ret
    6b23:	66 2e 0f 1f 84 00 00 	cs nop WORD PTR [rax+rax*1+0x0]
    6b2a:	00 00 00 
    6b2d:	0f 1f 00             	nop    DWORD PTR [rax]

0000000000006b30 <_ZNKSt15__new_allocatorINSt8__detail10_Hash_nodeISt4pairIKNSt7__cxx1112basic_stringIcSt11char_traitsIcESaIcEEE5TokenELb1EEEE11_M_max_sizeEv>:
    6b30:	55                   	push   rbp
    6b31:	48 89 e5             	mov    rbp,rsp
    6b34:	48 89 7d f8          	mov    QWORD PTR [rbp-0x8],rdi
    6b38:	48 b8 49 92 24 49 92 	movabs rax,0x249249249249249
    6b3f:	24 49 02 
    6b42:	5d                   	pop    rbp
    6b43:	c3                   	ret
    6b44:	66 2e 0f 1f 84 00 00 	cs nop WORD PTR [rax+rax*1+0x0]
    6b4b:	00 00 00 
    6b4e:	66 90                	xchg   ax,ax

0000000000006b50 <_ZNSt15__new_allocatorINSt8__detail10_Hash_nodeISt4pairIKNSt7__cxx1112basic_stringIcSt11char_traitsIcESaIcEEE5TokenELb1EEEE9constructISB_JRS9_RKSA_EEEvPT_DpOT0_>:
    6b50:	55                   	push   rbp
    6b51:	48 89 e5             	mov    rbp,rsp
    6b54:	48 83 ec 20          	sub    rsp,0x20
    6b58:	48 89 7d f8          	mov    QWORD PTR [rbp-0x8],rdi
    6b5c:	48 89 75 f0          	mov    QWORD PTR [rbp-0x10],rsi
    6b60:	48 89 55 e8          	mov    QWORD PTR [rbp-0x18],rdx
    6b64:	48 89 4d e0          	mov    QWORD PTR [rbp-0x20],rcx
    6b68:	48 8b 7d f0          	mov    rdi,QWORD PTR [rbp-0x10]
    6b6c:	48 8b 75 e8          	mov    rsi,QWORD PTR [rbp-0x18]
    6b70:	48 8b 55 e0          	mov    rdx,QWORD PTR [rbp-0x20]
    6b74:	e8 07 00 00 00       	call   6b80 <_ZNSt4pairIKNSt7__cxx1112basic_stringIcSt11char_traitsIcESaIcEEE5TokenEC2IS6_S7_Lb1EEERS6_RKS7_>
    6b79:	48 83 c4 20          	add    rsp,0x20
    6b7d:	5d                   	pop    rbp
    6b7e:	c3                   	ret
    6b7f:	90                   	nop

0000000000006b80 <_ZNSt4pairIKNSt7__cxx1112basic_stringIcSt11char_traitsIcESaIcEEE5TokenEC2IS6_S7_Lb1EEERS6_RKS7_>:
    6b80:	55                   	push   rbp
    6b81:	48 89 e5             	mov    rbp,rsp
    6b84:	48 83 ec 20          	sub    rsp,0x20
    6b88:	48 89 7d f8          	mov    QWORD PTR [rbp-0x8],rdi
    6b8c:	48 89 75 f0          	mov    QWORD PTR [rbp-0x10],rsi
    6b90:	48 89 55 e8          	mov    QWORD PTR [rbp-0x18],rdx
    6b94:	48 8b 7d f8          	mov    rdi,QWORD PTR [rbp-0x8]
    6b98:	48 89 7d e0          	mov    QWORD PTR [rbp-0x20],rdi
    6b9c:	48 8b 75 f0          	mov    rsi,QWORD PTR [rbp-0x10]
    6ba0:	e8 eb b4 ff ff       	call   2090 <_ZNSt7__cxx1112basic_stringIcSt11char_traitsIcESaIcEEC1ERKS4_@plt>
    6ba5:	48 8b 45 e0          	mov    rax,QWORD PTR [rbp-0x20]
    6ba9:	48 8b 4d e8          	mov    rcx,QWORD PTR [rbp-0x18]
    6bad:	8b 09                	mov    ecx,DWORD PTR [rcx]
    6baf:	89 48 20             	mov    DWORD PTR [rax+0x20],ecx
    6bb2:	48 83 c4 20          	add    rsp,0x20
    6bb6:	5d                   	pop    rbp
    6bb7:	c3                   	ret
    6bb8:	0f 1f 84 00 00 00 00 	nop    DWORD PTR [rax+rax*1+0x0]
    6bbf:	00 

0000000000006bc0 <_ZNKSt8__detail20_Prime_rehash_policy8_M_stateEv>:
    6bc0:	55                   	push   rbp
    6bc1:	48 89 e5             	mov    rbp,rsp
    6bc4:	48 89 7d f8          	mov    QWORD PTR [rbp-0x8],rdi
    6bc8:	48 8b 45 f8          	mov    rax,QWORD PTR [rbp-0x8]
    6bcc:	48 8b 40 08          	mov    rax,QWORD PTR [rax+0x8]
    6bd0:	5d                   	pop    rbp
    6bd1:	c3                   	ret
    6bd2:	66 2e 0f 1f 84 00 00 	cs nop WORD PTR [rax+rax*1+0x0]
    6bd9:	00 00 00 
    6bdc:	0f 1f 40 00          	nop    DWORD PTR [rax+0x0]

0000000000006be0 <_ZNSt10_HashtableINSt7__cxx1112basic_stringIcSt11char_traitsIcESaIcEEESt4pairIKS5_5TokenESaIS9_ENSt8__detail10_Select1stESt8equal_toIS5_ESt4hashIS5_ENSB_18_Mod_range_hashingENSB_20_Default_ranged_hashENSB_20_Prime_rehash_policyENSB_17_Hashtable_traitsILb1ELb0ELb1EEEE9_M_rehashEmRKm>:
    6be0:	55                   	push   rbp
    6be1:	48 89 e5             	mov    rbp,rsp
    6be4:	48 83 ec 40          	sub    rsp,0x40
    6be8:	48 89 7d f8          	mov    QWORD PTR [rbp-0x8],rdi
    6bec:	48 89 75 f0          	mov    QWORD PTR [rbp-0x10],rsi
    6bf0:	48 89 55 e8          	mov    QWORD PTR [rbp-0x18],rdx
    6bf4:	48 8b 7d f8          	mov    rdi,QWORD PTR [rbp-0x8]
    6bf8:	48 89 7d c8          	mov    QWORD PTR [rbp-0x38],rdi
    6bfc:	48 8b 75 f0          	mov    rsi,QWORD PTR [rbp-0x10]
    6c00:	e8 7b 01 00 00       	call   6d80 <_ZNSt10_HashtableINSt7__cxx1112basic_stringIcSt11char_traitsIcESaIcEEESt4pairIKS5_5TokenESaIS9_ENSt8__detail10_Select1stESt8equal_toIS5_ESt4hashIS5_ENSB_18_Mod_range_hashingENSB_20_Default_ranged_hashENSB_20_Prime_rehash_policyENSB_17_Hashtable_traitsILb1ELb0ELb1EEEE13_M_rehash_auxEmSt17integral_constantIbLb1EE>
    6c05:	e9 00 00 00 00       	jmp    6c0a <_ZNSt10_HashtableINSt7__cxx1112basic_stringIcSt11char_traitsIcESaIcEEESt4pairIKS5_5TokenESaIS9_ENSt8__detail10_Select1stESt8equal_toIS5_ESt4hashIS5_ENSB_18_Mod_range_hashingENSB_20_Default_ranged_hashENSB_20_Prime_rehash_policyENSB_17_Hashtable_traitsILb1ELb0ELb1EEEE9_M_rehashEmRKm+0x2a>
    6c0a:	e9 53 00 00 00       	jmp    6c62 <_ZNSt10_HashtableINSt7__cxx1112basic_stringIcSt11char_traitsIcESaIcEEESt4pairIKS5_5TokenESaIS9_ENSt8__detail10_Select1stESt8equal_toIS5_ESt4hashIS5_ENSB_18_Mod_range_hashingENSB_20_Default_ranged_hashENSB_20_Prime_rehash_policyENSB_17_Hashtable_traitsILb1ELb0ELb1EEEE9_M_rehashEmRKm+0x82>
    6c0f:	48 89 c1             	mov    rcx,rax
    6c12:	89 d0                	mov    eax,edx
    6c14:	48 89 4d d8          	mov    QWORD PTR [rbp-0x28],rcx
    6c18:	89 45 d4             	mov    DWORD PTR [rbp-0x2c],eax
    6c1b:	48 8b 7d d8          	mov    rdi,QWORD PTR [rbp-0x28]
    6c1f:	e8 5c b4 ff ff       	call   2080 <__cxa_begin_catch@plt>
    6c24:	48 8b 7d c8          	mov    rdi,QWORD PTR [rbp-0x38]
    6c28:	48 83 c7 20          	add    rdi,0x20
    6c2c:	48 8b 45 e8          	mov    rax,QWORD PTR [rbp-0x18]
    6c30:	48 8b 30             	mov    rsi,QWORD PTR [rax]
    6c33:	e8 88 02 00 00       	call   6ec0 <_ZNSt8__detail20_Prime_rehash_policy8_M_resetEm>
    6c38:	e9 00 00 00 00       	jmp    6c3d <_ZNSt10_HashtableINSt7__cxx1112basic_stringIcSt11char_traitsIcESaIcEEESt4pairIKS5_5TokenESaIS9_ENSt8__detail10_Select1stESt8equal_toIS5_ESt4hashIS5_ENSB_18_Mod_range_hashingENSB_20_Default_ranged_hashENSB_20_Prime_rehash_policyENSB_17_Hashtable_traitsILb1ELb0ELb1EEEE9_M_rehashEmRKm+0x5d>
    6c3d:	e8 2e b6 ff ff       	call   2270 <__cxa_rethrow@plt>
    6c42:	e9 32 00 00 00       	jmp    6c79 <_ZNSt10_HashtableINSt7__cxx1112basic_stringIcSt11char_traitsIcESaIcEEESt4pairIKS5_5TokenESaIS9_ENSt8__detail10_Select1stESt8equal_toIS5_ESt4hashIS5_ENSB_18_Mod_range_hashingENSB_20_Default_ranged_hashENSB_20_Prime_rehash_policyENSB_17_Hashtable_traitsILb1ELb0ELb1EEEE9_M_rehashEmRKm+0x99>
    6c47:	48 89 c1             	mov    rcx,rax
    6c4a:	89 d0                	mov    eax,edx
    6c4c:	48 89 4d d8          	mov    QWORD PTR [rbp-0x28],rcx
    6c50:	89 45 d4             	mov    DWORD PTR [rbp-0x2c],eax
    6c53:	e8 58 b6 ff ff       	call   22b0 <__cxa_end_catch@plt>
    6c58:	e9 00 00 00 00       	jmp    6c5d <_ZNSt10_HashtableINSt7__cxx1112basic_stringIcSt11char_traitsIcESaIcEEESt4pairIKS5_5TokenESaIS9_ENSt8__detail10_Select1stESt8equal_toIS5_ESt4hashIS5_ENSB_18_Mod_range_hashingENSB_20_Default_ranged_hashENSB_20_Prime_rehash_policyENSB_17_Hashtable_traitsILb1ELb0ELb1EEEE9_M_rehashEmRKm+0x7d>
    6c5d:	e9 06 00 00 00       	jmp    6c68 <_ZNSt10_HashtableINSt7__cxx1112basic_stringIcSt11char_traitsIcESaIcEEESt4pairIKS5_5TokenESaIS9_ENSt8__detail10_Select1stESt8equal_toIS5_ESt4hashIS5_ENSB_18_Mod_range_hashingENSB_20_Default_ranged_hashENSB_20_Prime_rehash_policyENSB_17_Hashtable_traitsILb1ELb0ELb1EEEE9_M_rehashEmRKm+0x88>
    6c62:	48 83 c4 40          	add    rsp,0x40
    6c66:	5d                   	pop    rbp
    6c67:	c3                   	ret
    6c68:	48 8b 7d d8          	mov    rdi,QWORD PTR [rbp-0x28]
    6c6c:	e8 6f b6 ff ff       	call   22e0 <_Unwind_Resume@plt>
    6c71:	48 89 c7             	mov    rdi,rax
    6c74:	e8 77 c7 ff ff       	call   33f0 <__clang_call_terminate>
    6c79:	0f 1f 80 00 00 00 00 	nop    DWORD PTR [rax+0x0]

0000000000006c80 <_ZNKSt8__detail15_Hash_code_baseINSt7__cxx1112basic_stringIcSt11char_traitsIcESaIcEEESt4pairIKS6_5TokenENS_10_Select1stESt4hashIS6_ENS_18_Mod_range_hashingENS_20_Default_ranged_hashELb1EE13_M_store_codeERNS_21_Hash_node_code_cacheILb1EEEm>:
    6c80:	55                   	push   rbp
    6c81:	48 89 e5             	mov    rbp,rsp
    6c84:	48 89 7d f8          	mov    QWORD PTR [rbp-0x8],rdi
    6c88:	48 89 75 f0          	mov    QWORD PTR [rbp-0x10],rsi
    6c8c:	48 89 55 e8          	mov    QWORD PTR [rbp-0x18],rdx
    6c90:	48 8b 4d e8          	mov    rcx,QWORD PTR [rbp-0x18]
    6c94:	48 8b 45 f0          	mov    rax,QWORD PTR [rbp-0x10]
    6c98:	48 89 08             	mov    QWORD PTR [rax],rcx
    6c9b:	5d                   	pop    rbp
    6c9c:	c3                   	ret
    6c9d:	0f 1f 00             	nop    DWORD PTR [rax]

0000000000006ca0 <_ZNSt10_HashtableINSt7__cxx1112basic_stringIcSt11char_traitsIcESaIcEEESt4pairIKS5_5TokenESaIS9_ENSt8__detail10_Select1stESt8equal_toIS5_ESt4hashIS5_ENSB_18_Mod_range_hashingENSB_20_Default_ranged_hashENSB_20_Prime_rehash_policyENSB_17_Hashtable_traitsILb1ELb0ELb1EEEE22_M_insert_bucket_beginEmPNSB_10_Hash_nodeIS9_Lb1EEE>:
    6ca0:	55                   	push   rbp
    6ca1:	48 89 e5             	mov    rbp,rsp
    6ca4:	48 83 ec 30          	sub    rsp,0x30
    6ca8:	48 89 7d f8          	mov    QWORD PTR [rbp-0x8],rdi
    6cac:	48 89 75 f0          	mov    QWORD PTR [rbp-0x10],rsi
    6cb0:	48 89 55 e8          	mov    QWORD PTR [rbp-0x18],rdx
    6cb4:	48 8b 45 f8          	mov    rax,QWORD PTR [rbp-0x8]
    6cb8:	48 89 45 e0          	mov    QWORD PTR [rbp-0x20],rax
    6cbc:	48 8b 00             	mov    rax,QWORD PTR [rax]
    6cbf:	48 8b 4d f0          	mov    rcx,QWORD PTR [rbp-0x10]
    6cc3:	48 83 3c c8 00       	cmp    QWORD PTR [rax+rcx*8],0x0
    6cc8:	0f 84 30 00 00 00    	je     6cfe <_ZNSt10_HashtableINSt7__cxx1112basic_stringIcSt11char_traitsIcESaIcEEESt4pairIKS5_5TokenESaIS9_ENSt8__detail10_Select1stESt8equal_toIS5_ESt4hashIS5_ENSB_18_Mod_range_hashingENSB_20_Default_ranged_hashENSB_20_Prime_rehash_policyENSB_17_Hashtable_traitsILb1ELb0ELb1EEEE22_M_insert_bucket_beginEmPNSB_10_Hash_nodeIS9_Lb1EEE+0x5e>
    6cce:	48 8b 45 e0          	mov    rax,QWORD PTR [rbp-0x20]
    6cd2:	48 8b 08             	mov    rcx,QWORD PTR [rax]
    6cd5:	48 8b 55 f0          	mov    rdx,QWORD PTR [rbp-0x10]
    6cd9:	48 8b 0c d1          	mov    rcx,QWORD PTR [rcx+rdx*8]
    6cdd:	48 8b 11             	mov    rdx,QWORD PTR [rcx]
    6ce0:	48 8b 4d e8          	mov    rcx,QWORD PTR [rbp-0x18]
    6ce4:	48 89 11             	mov    QWORD PTR [rcx],rdx
    6ce7:	48 8b 4d e8          	mov    rcx,QWORD PTR [rbp-0x18]
    6ceb:	48 8b 00             	mov    rax,QWORD PTR [rax]
    6cee:	48 8b 55 f0          	mov    rdx,QWORD PTR [rbp-0x10]
    6cf2:	48 8b 04 d0          	mov    rax,QWORD PTR [rax+rdx*8]
    6cf6:	48 89 08             	mov    QWORD PTR [rax],rcx
    6cf9:	e9 76 00 00 00       	jmp    6d74 <_ZNSt10_HashtableINSt7__cxx1112basic_stringIcSt11char_traitsIcESaIcEEESt4pairIKS5_5TokenESaIS9_ENSt8__detail10_Select1stESt8equal_toIS5_ESt4hashIS5_ENSB_18_Mod_range_hashingENSB_20_Default_ranged_hashENSB_20_Prime_rehash_policyENSB_17_Hashtable_traitsILb1ELb0ELb1EEEE22_M_insert_bucket_beginEmPNSB_10_Hash_nodeIS9_Lb1EEE+0xd4>
    6cfe:	48 8b 45 e0          	mov    rax,QWORD PTR [rbp-0x20]
    6d02:	48 8b 50 10          	mov    rdx,QWORD PTR [rax+0x10]
    6d06:	48 8b 4d e8          	mov    rcx,QWORD PTR [rbp-0x18]
    6d0a:	48 89 11             	mov    QWORD PTR [rcx],rdx
    6d0d:	48 8b 4d e8          	mov    rcx,QWORD PTR [rbp-0x18]
    6d11:	48 89 48 10          	mov    QWORD PTR [rax+0x10],rcx
    6d15:	48 8b 45 e8          	mov    rax,QWORD PTR [rbp-0x18]
    6d19:	48 83 38 00          	cmp    QWORD PTR [rax],0x0
    6d1d:	0f 84 3b 00 00 00    	je     6d5e <_ZNSt10_HashtableINSt7__cxx1112basic_stringIcSt11char_traitsIcESaIcEEESt4pairIKS5_5TokenESaIS9_ENSt8__detail10_Select1stESt8equal_toIS5_ESt4hashIS5_ENSB_18_Mod_range_hashingENSB_20_Default_ranged_hashENSB_20_Prime_rehash_policyENSB_17_Hashtable_traitsILb1ELb0ELb1EEEE22_M_insert_bucket_beginEmPNSB_10_Hash_nodeIS9_Lb1EEE+0xbe>
    6d23:	48 8b 45 e0          	mov    rax,QWORD PTR [rbp-0x20]
    6d27:	48 8b 4d e8          	mov    rcx,QWORD PTR [rbp-0x18]
    6d2b:	48 89 4d d0          	mov    QWORD PTR [rbp-0x30],rcx
    6d2f:	48 8b 00             	mov    rax,QWORD PTR [rax]
    6d32:	48 89 45 d8          	mov    QWORD PTR [rbp-0x28],rax
    6d36:	48 8b 7d e8          	mov    rdi,QWORD PTR [rbp-0x18]
    6d3a:	e8 51 c7 ff ff       	call   3490 <_ZNKSt8__detail10_Hash_nodeISt4pairIKNSt7__cxx1112basic_stringIcSt11char_traitsIcESaIcEEE5TokenELb1EE7_M_nextEv>
    6d3f:	48 8b 7d e0          	mov    rdi,QWORD PTR [rbp-0x20]
    6d43:	48 89 c6             	mov    rsi,rax
    6d46:	48 83 c6 08          	add    rsi,0x8
    6d4a:	e8 71 eb ff ff       	call   58c0 <_ZNKSt10_HashtableINSt7__cxx1112basic_stringIcSt11char_traitsIcESaIcEEESt4pairIKS5_5TokenESaIS9_ENSt8__detail10_Select1stESt8equal_toIS5_ESt4hashIS5_ENSB_18_Mod_range_hashingENSB_20_Default_ranged_hashENSB_20_Prime_rehash_policyENSB_17_Hashtable_traitsILb1ELb0ELb1EEEE15_M_bucket_indexERKNSB_16_Hash_node_valueIS9_Lb1EEE>
    6d4f:	48 8b 55 d0          	mov    rdx,QWORD PTR [rbp-0x30]
    6d53:	48 89 c1             	mov    rcx,rax
    6d56:	48 8b 45 d8          	mov    rax,QWORD PTR [rbp-0x28]
    6d5a:	48 89 14 c8          	mov    QWORD PTR [rax+rcx*8],rdx
    6d5e:	48 8b 45 e0          	mov    rax,QWORD PTR [rbp-0x20]
    6d62:	48 89 c2             	mov    rdx,rax
    6d65:	48 83 c2 10          	add    rdx,0x10
    6d69:	48 8b 00             	mov    rax,QWORD PTR [rax]
    6d6c:	48 8b 4d f0          	mov    rcx,QWORD PTR [rbp-0x10]
    6d70:	48 89 14 c8          	mov    QWORD PTR [rax+rcx*8],rdx
    6d74:	48 83 c4 30          	add    rsp,0x30
    6d78:	5d                   	pop    rbp
    6d79:	c3                   	ret
    6d7a:	66 0f 1f 44 00 00    	nop    WORD PTR [rax+rax*1+0x0]

0000000000006d80 <_ZNSt10_HashtableINSt7__cxx1112basic_stringIcSt11char_traitsIcESaIcEEESt4pairIKS5_5TokenESaIS9_ENSt8__detail10_Select1stESt8equal_toIS5_ESt4hashIS5_ENSB_18_Mod_range_hashingENSB_20_Default_ranged_hashENSB_20_Prime_rehash_policyENSB_17_Hashtable_traitsILb1ELb0ELb1EEEE13_M_rehash_auxEmSt17integral_constantIbLb1EE>:
    6d80:	55                   	push   rbp
    6d81:	48 89 e5             	mov    rbp,rsp
    6d84:	48 83 ec 50          	sub    rsp,0x50
    6d88:	48 89 7d f0          	mov    QWORD PTR [rbp-0x10],rdi
    6d8c:	48 89 75 e8          	mov    QWORD PTR [rbp-0x18],rsi
    6d90:	48 8b 7d f0          	mov    rdi,QWORD PTR [rbp-0x10]
    6d94:	48 89 7d b8          	mov    QWORD PTR [rbp-0x48],rdi
    6d98:	48 8b 75 e8          	mov    rsi,QWORD PTR [rbp-0x18]
    6d9c:	e8 9f ef ff ff       	call   5d40 <_ZNSt10_HashtableINSt7__cxx1112basic_stringIcSt11char_traitsIcESaIcEEESt4pairIKS5_5TokenESaIS9_ENSt8__detail10_Select1stESt8equal_toIS5_ESt4hashIS5_ENSB_18_Mod_range_hashingENSB_20_Default_ranged_hashENSB_20_Prime_rehash_policyENSB_17_Hashtable_traitsILb1ELb0ELb1EEEE19_M_allocate_bucketsEm>
    6da1:	48 8b 7d b8          	mov    rdi,QWORD PTR [rbp-0x48]
    6da5:	48 89 45 e0          	mov    QWORD PTR [rbp-0x20],rax
    6da9:	e8 c2 c6 ff ff       	call   3470 <_ZNKSt10_HashtableINSt7__cxx1112basic_stringIcSt11char_traitsIcESaIcEEESt4pairIKS5_5TokenESaIS9_ENSt8__detail10_Select1stESt8equal_toIS5_ESt4hashIS5_ENSB_18_Mod_range_hashingENSB_20_Default_ranged_hashENSB_20_Prime_rehash_policyENSB_17_Hashtable_traitsILb1ELb0ELb1EEEE8_M_beginEv>
    6dae:	48 89 c1             	mov    rcx,rax
    6db1:	48 8b 45 b8          	mov    rax,QWORD PTR [rbp-0x48]
    6db5:	48 89 4d d8          	mov    QWORD PTR [rbp-0x28],rcx
    6db9:	48 c7 40 10 00 00 00 	mov    QWORD PTR [rax+0x10],0x0
    6dc0:	00 
    6dc1:	48 c7 45 d0 00 00 00 	mov    QWORD PTR [rbp-0x30],0x0
    6dc8:	00 
    6dc9:	48 83 7d d8 00       	cmp    QWORD PTR [rbp-0x28],0x0
    6dce:	0f 84 c1 00 00 00    	je     6e95 <_ZNSt10_HashtableINSt7__cxx1112basic_stringIcSt11char_traitsIcESaIcEEESt4pairIKS5_5TokenESaIS9_ENSt8__detail10_Select1stESt8equal_toIS5_ESt4hashIS5_ENSB_18_Mod_range_hashingENSB_20_Default_ranged_hashENSB_20_Prime_rehash_policyENSB_17_Hashtable_traitsILb1ELb0ELb1EEEE13_M_rehash_auxEmSt17integral_constantIbLb1EE+0x115>
    6dd4:	48 8b 7d d8          	mov    rdi,QWORD PTR [rbp-0x28]
    6dd8:	e8 b3 c6 ff ff       	call   3490 <_ZNKSt8__detail10_Hash_nodeISt4pairIKNSt7__cxx1112basic_stringIcSt11char_traitsIcESaIcEEE5TokenELb1EE7_M_nextEv>
    6ddd:	48 8b 7d b8          	mov    rdi,QWORD PTR [rbp-0x48]
    6de1:	48 89 45 c8          	mov    QWORD PTR [rbp-0x38],rax
    6de5:	48 8b 75 d8          	mov    rsi,QWORD PTR [rbp-0x28]
    6de9:	48 83 c6 08          	add    rsi,0x8
    6ded:	48 8b 55 e8          	mov    rdx,QWORD PTR [rbp-0x18]
    6df1:	e8 2a eb ff ff       	call   5920 <_ZNKSt8__detail15_Hash_code_baseINSt7__cxx1112basic_stringIcSt11char_traitsIcESaIcEEESt4pairIKS6_5TokenENS_10_Select1stESt4hashIS6_ENS_18_Mod_range_hashingENS_20_Default_ranged_hashELb1EE15_M_bucket_indexERKNS_16_Hash_node_valueISA_Lb1EEEm>
    6df6:	48 89 45 c0          	mov    QWORD PTR [rbp-0x40],rax
    6dfa:	48 8b 45 e0          	mov    rax,QWORD PTR [rbp-0x20]
    6dfe:	48 8b 4d c0          	mov    rcx,QWORD PTR [rbp-0x40]
    6e02:	48 83 3c c8 00       	cmp    QWORD PTR [rax+rcx*8],0x0
    6e07:	0f 85 52 00 00 00    	jne    6e5f <_ZNSt10_HashtableINSt7__cxx1112basic_stringIcSt11char_traitsIcESaIcEEESt4pairIKS5_5TokenESaIS9_ENSt8__detail10_Select1stESt8equal_toIS5_ESt4hashIS5_ENSB_18_Mod_range_hashingENSB_20_Default_ranged_hashENSB_20_Prime_rehash_policyENSB_17_Hashtable_traitsILb1ELb0ELb1EEEE13_M_rehash_auxEmSt17integral_constantIbLb1EE+0xdf>
    6e0d:	48 8b 55 b8          	mov    rdx,QWORD PTR [rbp-0x48]
    6e11:	48 8b 4a 10          	mov    rcx,QWORD PTR [rdx+0x10]
    6e15:	48 8b 45 d8          	mov    rax,QWORD PTR [rbp-0x28]
    6e19:	48 89 08             	mov    QWORD PTR [rax],rcx
    6e1c:	48 8b 45 d8          	mov    rax,QWORD PTR [rbp-0x28]
    6e20:	48 89 42 10          	mov    QWORD PTR [rdx+0x10],rax
    6e24:	48 83 c2 10          	add    rdx,0x10
    6e28:	48 8b 45 e0          	mov    rax,QWORD PTR [rbp-0x20]
    6e2c:	48 8b 4d c0          	mov    rcx,QWORD PTR [rbp-0x40]
    6e30:	48 89 14 c8          	mov    QWORD PTR [rax+rcx*8],rdx
    6e34:	48 8b 45 d8          	mov    rax,QWORD PTR [rbp-0x28]
    6e38:	48 83 38 00          	cmp    QWORD PTR [rax],0x0
    6e3c:	0f 84 10 00 00 00    	je     6e52 <_ZNSt10_HashtableINSt7__cxx1112basic_stringIcSt11char_traitsIcESaIcEEESt4pairIKS5_5TokenESaIS9_ENSt8__detail10_Select1stESt8equal_toIS5_ESt4hashIS5_ENSB_18_Mod_range_hashingENSB_20_Default_ranged_hashENSB_20_Prime_rehash_policyENSB_17_Hashtable_traitsILb1ELb0ELb1EEEE13_M_rehash_auxEmSt17integral_constantIbLb1EE+0xd2>
    6e42:	48 8b 55 d8          	mov    rdx,QWORD PTR [rbp-0x28]
    6e46:	48 8b 45 e0          	mov    rax,QWORD PTR [rbp-0x20]
    6e4a:	48 8b 4d d0          	mov    rcx,QWORD PTR [rbp-0x30]
    6e4e:	48 89 14 c8          	mov    QWORD PTR [rax+rcx*8],rdx
    6e52:	48 8b 45 c0          	mov    rax,QWORD PTR [rbp-0x40]
    6e56:	48 89 45 d0          	mov    QWORD PTR [rbp-0x30],rax
    6e5a:	e9 29 00 00 00       	jmp    6e88 <_ZNSt10_HashtableINSt7__cxx1112basic_stringIcSt11char_traitsIcESaIcEEESt4pairIKS5_5TokenESaIS9_ENSt8__detail10_Select1stESt8equal_toIS5_ESt4hashIS5_ENSB_18_Mod_range_hashingENSB_20_Default_ranged_hashENSB_20_Prime_rehash_policyENSB_17_Hashtable_traitsILb1ELb0ELb1EEEE13_M_rehash_auxEmSt17integral_constantIbLb1EE+0x108>
    6e5f:	48 8b 45 e0          	mov    rax,QWORD PTR [rbp-0x20]
    6e63:	48 8b 4d c0          	mov    rcx,QWORD PTR [rbp-0x40]
    6e67:	48 8b 04 c8          	mov    rax,QWORD PTR [rax+rcx*8]
    6e6b:	48 8b 08             	mov    rcx,QWORD PTR [rax]
    6e6e:	48 8b 45 d8          	mov    rax,QWORD PTR [rbp-0x28]
    6e72:	48 89 08             	mov    QWORD PTR [rax],rcx
    6e75:	48 8b 4d d8          	mov    rcx,QWORD PTR [rbp-0x28]
    6e79:	48 8b 45 e0          	mov    rax,QWORD PTR [rbp-0x20]
    6e7d:	48 8b 55 c0          	mov    rdx,QWORD PTR [rbp-0x40]
    6e81:	48 8b 04 d0          	mov    rax,QWORD PTR [rax+rdx*8]
    6e85:	48 89 08             	mov    QWORD PTR [rax],rcx
    6e88:	48 8b 45 c8          	mov    rax,QWORD PTR [rbp-0x38]
    6e8c:	48 89 45 d8          	mov    QWORD PTR [rbp-0x28],rax
    6e90:	e9 34 ff ff ff       	jmp    6dc9 <_ZNSt10_HashtableINSt7__cxx1112basic_stringIcSt11char_traitsIcESaIcEEESt4pairIKS5_5TokenESaIS9_ENSt8__detail10_Select1stESt8equal_toIS5_ESt4hashIS5_ENSB_18_Mod_range_hashingENSB_20_Default_ranged_hashENSB_20_Prime_rehash_policyENSB_17_Hashtable_traitsILb1ELb0ELb1EEEE13_M_rehash_auxEmSt17integral_constantIbLb1EE+0x49>
    6e95:	48 8b 7d b8          	mov    rdi,QWORD PTR [rbp-0x48]
    6e99:	e8 22 c5 ff ff       	call   33c0 <_ZNSt10_HashtableINSt7__cxx1112basic_stringIcSt11char_traitsIcESaIcEEESt4pairIKS5_5TokenESaIS9_ENSt8__detail10_Select1stESt8equal_toIS5_ESt4hashIS5_ENSB_18_Mod_range_hashingENSB_20_Default_ranged_hashENSB_20_Prime_rehash_policyENSB_17_Hashtable_traitsILb1ELb0ELb1EEEE21_M_deallocate_bucketsEv>
    6e9e:	48 8b 45 b8          	mov    rax,QWORD PTR [rbp-0x48]
    6ea2:	48 8b 4d e8          	mov    rcx,QWORD PTR [rbp-0x18]
    6ea6:	48 89 48 08          	mov    QWORD PTR [rax+0x8],rcx
    6eaa:	48 8b 4d e0          	mov    rcx,QWORD PTR [rbp-0x20]
    6eae:	48 89 08             	mov    QWORD PTR [rax],rcx
    6eb1:	48 83 c4 50          	add    rsp,0x50
    6eb5:	5d                   	pop    rbp
    6eb6:	c3                   	ret
    6eb7:	66 0f 1f 84 00 00 00 	nop    WORD PTR [rax+rax*1+0x0]
    6ebe:	00 00 

0000000000006ec0 <_ZNSt8__detail20_Prime_rehash_policy8_M_resetEm>:
    6ec0:	55                   	push   rbp
    6ec1:	48 89 e5             	mov    rbp,rsp
    6ec4:	48 89 7d f8          	mov    QWORD PTR [rbp-0x8],rdi
    6ec8:	48 89 75 f0          	mov    QWORD PTR [rbp-0x10],rsi
    6ecc:	48 8b 45 f8          	mov    rax,QWORD PTR [rbp-0x8]
    6ed0:	48 8b 4d f0          	mov    rcx,QWORD PTR [rbp-0x10]
    6ed4:	48 89 48 08          	mov    QWORD PTR [rax+0x8],rcx
    6ed8:	5d                   	pop    rbp
    6ed9:	c3                   	ret
    6eda:	66 0f 1f 44 00 00    	nop    WORD PTR [rax+rax*1+0x0]

0000000000006ee0 <_ZSt8_DestroyIPccEvT_S1_RSaIT0_E>:
    6ee0:	55                   	push   rbp
    6ee1:	48 89 e5             	mov    rbp,rsp
    6ee4:	48 83 ec 20          	sub    rsp,0x20
    6ee8:	48 89 7d f8          	mov    QWORD PTR [rbp-0x8],rdi
    6eec:	48 89 75 f0          	mov    QWORD PTR [rbp-0x10],rsi
    6ef0:	48 89 55 e8          	mov    QWORD PTR [rbp-0x18],rdx
    6ef4:	48 8b 7d f8          	mov    rdi,QWORD PTR [rbp-0x8]
    6ef8:	48 8b 75 f0          	mov    rsi,QWORD PTR [rbp-0x10]
    6efc:	e8 0f 00 00 00       	call   6f10 <_ZSt8_DestroyIPcEvT_S1_>
    6f01:	48 83 c4 20          	add    rsp,0x20
    6f05:	5d                   	pop    rbp
    6f06:	c3                   	ret
    6f07:	66 0f 1f 84 00 00 00 	nop    WORD PTR [rax+rax*1+0x0]
    6f0e:	00 00 

0000000000006f10 <_ZSt8_DestroyIPcEvT_S1_>:
    6f10:	55                   	push   rbp
    6f11:	48 89 e5             	mov    rbp,rsp
    6f14:	48 83 ec 10          	sub    rsp,0x10
    6f18:	48 89 7d f8          	mov    QWORD PTR [rbp-0x8],rdi
    6f1c:	48 89 75 f0          	mov    QWORD PTR [rbp-0x10],rsi
    6f20:	48 8b 7d f8          	mov    rdi,QWORD PTR [rbp-0x8]
    6f24:	48 8b 75 f0          	mov    rsi,QWORD PTR [rbp-0x10]
    6f28:	e8 13 00 00 00       	call   6f40 <_ZNSt12_Destroy_auxILb1EE9__destroyIPcEEvT_S3_>
    6f2d:	48 83 c4 10          	add    rsp,0x10
    6f31:	5d                   	pop    rbp
    6f32:	c3                   	ret
    6f33:	66 2e 0f 1f 84 00 00 	cs nop WORD PTR [rax+rax*1+0x0]
    6f3a:	00 00 00 
    6f3d:	0f 1f 00             	nop    DWORD PTR [rax]

0000000000006f40 <_ZNSt12_Destroy_auxILb1EE9__destroyIPcEEvT_S3_>:
    6f40:	55                   	push   rbp
    6f41:	48 89 e5             	mov    rbp,rsp
    6f44:	48 89 7d f8          	mov    QWORD PTR [rbp-0x8],rdi
    6f48:	48 89 75 f0          	mov    QWORD PTR [rbp-0x10],rsi
    6f4c:	5d                   	pop    rbp
    6f4d:	c3                   	ret
    6f4e:	66 90                	xchg   ax,ax

0000000000006f50 <_ZNSt6vectorIcSaIcEE19_M_range_initializeIN9__gnu_cxx17__normal_iteratorIPcNSt7__cxx1112basic_stringIcSt11char_traitsIcES0_EEEEEEvT_SC_St20forward_iterator_tag>:
    6f50:	55                   	push   rbp
    6f51:	48 89 e5             	mov    rbp,rsp
    6f54:	48 83 ec 60          	sub    rsp,0x60
    6f58:	48 89 75 f8          	mov    QWORD PTR [rbp-0x8],rsi
    6f5c:	48 89 55 f0          	mov    QWORD PTR [rbp-0x10],rdx
    6f60:	48 89 7d e0          	mov    QWORD PTR [rbp-0x20],rdi
    6f64:	48 8b 45 e0          	mov    rax,QWORD PTR [rbp-0x20]
    6f68:	48 89 45 b0          	mov    QWORD PTR [rbp-0x50],rax
    6f6c:	48 8b 45 f8          	mov    rax,QWORD PTR [rbp-0x8]
    6f70:	48 89 45 d0          	mov    QWORD PTR [rbp-0x30],rax
    6f74:	48 8b 45 f0          	mov    rax,QWORD PTR [rbp-0x10]
    6f78:	48 89 45 c8          	mov    QWORD PTR [rbp-0x38],rax
    6f7c:	48 8b 7d d0          	mov    rdi,QWORD PTR [rbp-0x30]
    6f80:	48 8b 75 c8          	mov    rsi,QWORD PTR [rbp-0x38]
    6f84:	e8 97 00 00 00       	call   7020 <_ZSt8distanceIN9__gnu_cxx17__normal_iteratorIPcNSt7__cxx1112basic_stringIcSt11char_traitsIcESaIcEEEEEENSt15iterator_traitsIT_E15difference_typeESB_SB_>
    6f89:	48 8b 7d b0          	mov    rdi,QWORD PTR [rbp-0x50]
    6f8d:	48 89 45 d8          	mov    QWORD PTR [rbp-0x28],rax
    6f91:	48 8b 45 d8          	mov    rax,QWORD PTR [rbp-0x28]
    6f95:	48 89 45 a0          	mov    QWORD PTR [rbp-0x60],rax
    6f99:	e8 52 cb ff ff       	call   3af0 <_ZNSt12_Vector_baseIcSaIcEE19_M_get_Tp_allocatorEv>
    6f9e:	48 8b 7d a0          	mov    rdi,QWORD PTR [rbp-0x60]
    6fa2:	48 89 c6             	mov    rsi,rax
    6fa5:	e8 46 d8 ff ff       	call   47f0 <_ZNSt6vectorIcSaIcEE17_S_check_init_lenEmRKS0_>
    6faa:	48 8b 7d b0          	mov    rdi,QWORD PTR [rbp-0x50]
    6fae:	48 89 c6             	mov    rsi,rax
    6fb1:	e8 8a cc ff ff       	call   3c40 <_ZNSt12_Vector_baseIcSaIcEE11_M_allocateEm>
    6fb6:	48 8b 7d b0          	mov    rdi,QWORD PTR [rbp-0x50]
    6fba:	48 89 07             	mov    QWORD PTR [rdi],rax
    6fbd:	48 8b 07             	mov    rax,QWORD PTR [rdi]
    6fc0:	48 03 45 d8          	add    rax,QWORD PTR [rbp-0x28]
    6fc4:	48 89 47 10          	mov    QWORD PTR [rdi+0x10],rax
    6fc8:	48 8b 45 f8          	mov    rax,QWORD PTR [rbp-0x8]
    6fcc:	48 89 45 c0          	mov    QWORD PTR [rbp-0x40],rax
    6fd0:	48 8b 45 f0          	mov    rax,QWORD PTR [rbp-0x10]
    6fd4:	48 89 45 b8          	mov    QWORD PTR [rbp-0x48],rax
    6fd8:	48 8b 07             	mov    rax,QWORD PTR [rdi]
    6fdb:	48 89 45 a8          	mov    QWORD PTR [rbp-0x58],rax
    6fdf:	e8 0c cb ff ff       	call   3af0 <_ZNSt12_Vector_baseIcSaIcEE19_M_get_Tp_allocatorEv>
    6fe4:	48 8b 55 a8          	mov    rdx,QWORD PTR [rbp-0x58]
    6fe8:	48 89 c1             	mov    rcx,rax
    6feb:	48 8b 7d c0          	mov    rdi,QWORD PTR [rbp-0x40]
    6fef:	48 8b 75 b8          	mov    rsi,QWORD PTR [rbp-0x48]
    6ff3:	e8 68 00 00 00       	call   7060 <_ZSt22__uninitialized_copy_aIN9__gnu_cxx17__normal_iteratorIPcNSt7__cxx1112basic_stringIcSt11char_traitsIcESaIcEEEEES2_cET0_T_SB_SA_RSaIT1_E>
    6ff8:	48 89 c1             	mov    rcx,rax
    6ffb:	48 8b 45 b0          	mov    rax,QWORD PTR [rbp-0x50]
    6fff:	48 89 48 08          	mov    QWORD PTR [rax+0x8],rcx
    7003:	48 83 c4 60          	add    rsp,0x60
    7007:	5d                   	pop    rbp
    7008:	c3                   	ret
    7009:	0f 1f 80 00 00 00 00 	nop    DWORD PTR [rax+0x0]

0000000000007010 <_ZSt19__iterator_categoryIN9__gnu_cxx17__normal_iteratorIPcNSt7__cxx1112basic_stringIcSt11char_traitsIcESaIcEEEEEENSt15iterator_traitsIT_E17iterator_categoryERKSB_>:
    7010:	55                   	push   rbp
    7011:	48 89 e5             	mov    rbp,rsp
    7014:	48 89 7d f8          	mov    QWORD PTR [rbp-0x8],rdi
    7018:	5d                   	pop    rbp
    7019:	c3                   	ret
    701a:	66 0f 1f 44 00 00    	nop    WORD PTR [rax+rax*1+0x0]

0000000000007020 <_ZSt8distanceIN9__gnu_cxx17__normal_iteratorIPcNSt7__cxx1112basic_stringIcSt11char_traitsIcESaIcEEEEEENSt15iterator_traitsIT_E15difference_typeESB_SB_>:
    7020:	55                   	push   rbp
    7021:	48 89 e5             	mov    rbp,rsp
    7024:	48 83 ec 30          	sub    rsp,0x30
    7028:	48 89 7d f8          	mov    QWORD PTR [rbp-0x8],rdi
    702c:	48 89 75 f0          	mov    QWORD PTR [rbp-0x10],rsi
    7030:	48 8b 45 f8          	mov    rax,QWORD PTR [rbp-0x8]
    7034:	48 89 45 e8          	mov    QWORD PTR [rbp-0x18],rax
    7038:	48 8b 45 f0          	mov    rax,QWORD PTR [rbp-0x10]
    703c:	48 89 45 e0          	mov    QWORD PTR [rbp-0x20],rax
    7040:	48 8d 7d f8          	lea    rdi,[rbp-0x8]
    7044:	e8 c7 ff ff ff       	call   7010 <_ZSt19__iterator_categoryIN9__gnu_cxx17__normal_iteratorIPcNSt7__cxx1112basic_stringIcSt11char_traitsIcESaIcEEEEEENSt15iterator_traitsIT_E17iterator_categoryERKSB_>
    7049:	48 8b 7d e8          	mov    rdi,QWORD PTR [rbp-0x18]
    704d:	48 8b 75 e0          	mov    rsi,QWORD PTR [rbp-0x20]
    7051:	e8 4a 00 00 00       	call   70a0 <_ZSt10__distanceIN9__gnu_cxx17__normal_iteratorIPcNSt7__cxx1112basic_stringIcSt11char_traitsIcESaIcEEEEEENSt15iterator_traitsIT_E15difference_typeESB_SB_St26random_access_iterator_tag>
    7056:	48 83 c4 30          	add    rsp,0x30
    705a:	5d                   	pop    rbp
    705b:	c3                   	ret
    705c:	0f 1f 40 00          	nop    DWORD PTR [rax+0x0]

0000000000007060 <_ZSt22__uninitialized_copy_aIN9__gnu_cxx17__normal_iteratorIPcNSt7__cxx1112basic_stringIcSt11char_traitsIcESaIcEEEEES2_cET0_T_SB_SA_RSaIT1_E>:
    7060:	55                   	push   rbp
    7061:	48 89 e5             	mov    rbp,rsp
    7064:	48 83 ec 30          	sub    rsp,0x30
    7068:	48 89 7d f8          	mov    QWORD PTR [rbp-0x8],rdi
    706c:	48 89 75 f0          	mov    QWORD PTR [rbp-0x10],rsi
    7070:	48 89 55 e8          	mov    QWORD PTR [rbp-0x18],rdx
    7074:	48 89 4d e0          	mov    QWORD PTR [rbp-0x20],rcx
    7078:	48 8b 45 f8          	mov    rax,QWORD PTR [rbp-0x8]
    707c:	48 89 45 d8          	mov    QWORD PTR [rbp-0x28],rax
    7080:	48 8b 45 f0          	mov    rax,QWORD PTR [rbp-0x10]
    7084:	48 89 45 d0          	mov    QWORD PTR [rbp-0x30],rax
    7088:	48 8b 55 e8          	mov    rdx,QWORD PTR [rbp-0x18]
    708c:	48 8b 7d d8          	mov    rdi,QWORD PTR [rbp-0x28]
    7090:	48 8b 75 d0          	mov    rsi,QWORD PTR [rbp-0x30]
    7094:	e8 87 00 00 00       	call   7120 <_ZSt18uninitialized_copyIN9__gnu_cxx17__normal_iteratorIPcNSt7__cxx1112basic_stringIcSt11char_traitsIcESaIcEEEEES2_ET0_T_SB_SA_>
    7099:	48 83 c4 30          	add    rsp,0x30
    709d:	5d                   	pop    rbp
    709e:	c3                   	ret
    709f:	90                   	nop

00000000000070a0 <_ZSt10__distanceIN9__gnu_cxx17__normal_iteratorIPcNSt7__cxx1112basic_stringIcSt11char_traitsIcESaIcEEEEEENSt15iterator_traitsIT_E15difference_typeESB_SB_St26random_access_iterator_tag>:
    70a0:	55                   	push   rbp
    70a1:	48 89 e5             	mov    rbp,rsp
    70a4:	48 83 ec 20          	sub    rsp,0x20
    70a8:	48 89 7d f8          	mov    QWORD PTR [rbp-0x8],rdi
    70ac:	48 89 75 f0          	mov    QWORD PTR [rbp-0x10],rsi
    70b0:	48 8d 7d f0          	lea    rdi,[rbp-0x10]
    70b4:	48 8d 75 f8          	lea    rsi,[rbp-0x8]
    70b8:	e8 13 00 00 00       	call   70d0 <_ZN9__gnu_cxxmiIPcNSt7__cxx1112basic_stringIcSt11char_traitsIcESaIcEEEEENS_17__normal_iteratorIT_T0_E15difference_typeERKSB_SE_>
    70bd:	48 83 c4 20          	add    rsp,0x20
    70c1:	5d                   	pop    rbp
    70c2:	c3                   	ret
    70c3:	66 2e 0f 1f 84 00 00 	cs nop WORD PTR [rax+rax*1+0x0]
    70ca:	00 00 00 
    70cd:	0f 1f 00             	nop    DWORD PTR [rax]

00000000000070d0 <_ZN9__gnu_cxxmiIPcNSt7__cxx1112basic_stringIcSt11char_traitsIcESaIcEEEEENS_17__normal_iteratorIT_T0_E15difference_typeERKSB_SE_>:
    70d0:	55                   	push   rbp
    70d1:	48 89 e5             	mov    rbp,rsp
    70d4:	48 83 ec 20          	sub    rsp,0x20
    70d8:	48 89 7d f8          	mov    QWORD PTR [rbp-0x8],rdi
    70dc:	48 89 75 f0          	mov    QWORD PTR [rbp-0x10],rsi
    70e0:	48 8b 7d f8          	mov    rdi,QWORD PTR [rbp-0x8]
    70e4:	e8 27 00 00 00       	call   7110 <_ZNK9__gnu_cxx17__normal_iteratorIPcNSt7__cxx1112basic_stringIcSt11char_traitsIcESaIcEEEE4baseEv>
    70e9:	48 8b 00             	mov    rax,QWORD PTR [rax]
    70ec:	48 89 45 e8          	mov    QWORD PTR [rbp-0x18],rax
    70f0:	48 8b 7d f0          	mov    rdi,QWORD PTR [rbp-0x10]
    70f4:	e8 17 00 00 00       	call   7110 <_ZNK9__gnu_cxx17__normal_iteratorIPcNSt7__cxx1112basic_stringIcSt11char_traitsIcESaIcEEEE4baseEv>
    70f9:	48 89 c1             	mov    rcx,rax
    70fc:	48 8b 45 e8          	mov    rax,QWORD PTR [rbp-0x18]
    7100:	48 8b 09             	mov    rcx,QWORD PTR [rcx]
    7103:	48 29 c8             	sub    rax,rcx
    7106:	48 83 c4 20          	add    rsp,0x20
    710a:	5d                   	pop    rbp
    710b:	c3                   	ret
    710c:	0f 1f 40 00          	nop    DWORD PTR [rax+0x0]

0000000000007110 <_ZNK9__gnu_cxx17__normal_iteratorIPcNSt7__cxx1112basic_stringIcSt11char_traitsIcESaIcEEEE4baseEv>:
    7110:	55                   	push   rbp
    7111:	48 89 e5             	mov    rbp,rsp
    7114:	48 89 7d f8          	mov    QWORD PTR [rbp-0x8],rdi
    7118:	48 8b 45 f8          	mov    rax,QWORD PTR [rbp-0x8]
    711c:	5d                   	pop    rbp
    711d:	c3                   	ret
    711e:	66 90                	xchg   ax,ax

0000000000007120 <_ZSt18uninitialized_copyIN9__gnu_cxx17__normal_iteratorIPcNSt7__cxx1112basic_stringIcSt11char_traitsIcESaIcEEEEES2_ET0_T_SB_SA_>:
    7120:	55                   	push   rbp
    7121:	48 89 e5             	mov    rbp,rsp
    7124:	48 83 ec 30          	sub    rsp,0x30
    7128:	48 89 7d f8          	mov    QWORD PTR [rbp-0x8],rdi
    712c:	48 89 75 f0          	mov    QWORD PTR [rbp-0x10],rsi
    7130:	48 89 55 e8          	mov    QWORD PTR [rbp-0x18],rdx
    7134:	c6 45 e7 01          	mov    BYTE PTR [rbp-0x19],0x1
    7138:	c6 45 e6 01          	mov    BYTE PTR [rbp-0x1a],0x1
    713c:	48 8b 45 f8          	mov    rax,QWORD PTR [rbp-0x8]
    7140:	48 89 45 d8          	mov    QWORD PTR [rbp-0x28],rax
    7144:	48 8b 45 f0          	mov    rax,QWORD PTR [rbp-0x10]
    7148:	48 89 45 d0          	mov    QWORD PTR [rbp-0x30],rax
    714c:	48 8b 55 e8          	mov    rdx,QWORD PTR [rbp-0x18]
    7150:	48 8b 7d d8          	mov    rdi,QWORD PTR [rbp-0x28]
    7154:	48 8b 75 d0          	mov    rsi,QWORD PTR [rbp-0x30]
    7158:	e8 13 00 00 00       	call   7170 <_ZNSt20__uninitialized_copyILb1EE13__uninit_copyIN9__gnu_cxx17__normal_iteratorIPcNSt7__cxx1112basic_stringIcSt11char_traitsIcESaIcEEEEES4_EET0_T_SD_SC_>
    715d:	48 83 c4 30          	add    rsp,0x30
    7161:	5d                   	pop    rbp
    7162:	c3                   	ret
    7163:	66 2e 0f 1f 84 00 00 	cs nop WORD PTR [rax+rax*1+0x0]
    716a:	00 00 00 
    716d:	0f 1f 00             	nop    DWORD PTR [rax]

0000000000007170 <_ZNSt20__uninitialized_copyILb1EE13__uninit_copyIN9__gnu_cxx17__normal_iteratorIPcNSt7__cxx1112basic_stringIcSt11char_traitsIcESaIcEEEEES4_EET0_T_SD_SC_>:
    7170:	55                   	push   rbp
    7171:	48 89 e5             	mov    rbp,rsp
    7174:	48 83 ec 30          	sub    rsp,0x30
    7178:	48 89 7d f8          	mov    QWORD PTR [rbp-0x8],rdi
    717c:	48 89 75 f0          	mov    QWORD PTR [rbp-0x10],rsi
    7180:	48 89 55 e8          	mov    QWORD PTR [rbp-0x18],rdx
    7184:	48 8b 45 f8          	mov    rax,QWORD PTR [rbp-0x8]
    7188:	48 89 45 e0          	mov    QWORD PTR [rbp-0x20],rax
    718c:	48 8b 45 f0          	mov    rax,QWORD PTR [rbp-0x10]
    7190:	48 89 45 d8          	mov    QWORD PTR [rbp-0x28],rax
    7194:	48 8b 55 e8          	mov    rdx,QWORD PTR [rbp-0x18]
    7198:	48 8b 7d e0          	mov    rdi,QWORD PTR [rbp-0x20]
    719c:	48 8b 75 d8          	mov    rsi,QWORD PTR [rbp-0x28]
    71a0:	e8 0b 00 00 00       	call   71b0 <_ZSt4copyIN9__gnu_cxx17__normal_iteratorIPcNSt7__cxx1112basic_stringIcSt11char_traitsIcESaIcEEEEES2_ET0_T_SB_SA_>
    71a5:	48 83 c4 30          	add    rsp,0x30
    71a9:	5d                   	pop    rbp
    71aa:	c3                   	ret
    71ab:	0f 1f 44 00 00       	nop    DWORD PTR [rax+rax*1+0x0]

00000000000071b0 <_ZSt4copyIN9__gnu_cxx17__normal_iteratorIPcNSt7__cxx1112basic_stringIcSt11char_traitsIcESaIcEEEEES2_ET0_T_SB_SA_>:
    71b0:	55                   	push   rbp
    71b1:	48 89 e5             	mov    rbp,rsp
    71b4:	48 83 ec 40          	sub    rsp,0x40
    71b8:	48 89 7d f8          	mov    QWORD PTR [rbp-0x8],rdi
    71bc:	48 89 75 f0          	mov    QWORD PTR [rbp-0x10],rsi
    71c0:	48 89 55 e8          	mov    QWORD PTR [rbp-0x18],rdx
    71c4:	48 8b 45 f8          	mov    rax,QWORD PTR [rbp-0x8]
    71c8:	48 89 45 d8          	mov    QWORD PTR [rbp-0x28],rax
    71cc:	48 8b 7d d8          	mov    rdi,QWORD PTR [rbp-0x28]
    71d0:	e8 ab 00 00 00       	call   7280 <_ZSt12__miter_baseIN9__gnu_cxx17__normal_iteratorIPcNSt7__cxx1112basic_stringIcSt11char_traitsIcESaIcEEEEEET_SA_>
    71d5:	48 89 45 e0          	mov    QWORD PTR [rbp-0x20],rax
    71d9:	48 8b 45 f0          	mov    rax,QWORD PTR [rbp-0x10]
    71dd:	48 89 45 c8          	mov    QWORD PTR [rbp-0x38],rax
    71e1:	48 8b 7d c8          	mov    rdi,QWORD PTR [rbp-0x38]
    71e5:	e8 96 00 00 00       	call   7280 <_ZSt12__miter_baseIN9__gnu_cxx17__normal_iteratorIPcNSt7__cxx1112basic_stringIcSt11char_traitsIcESaIcEEEEEET_SA_>
    71ea:	48 89 45 d0          	mov    QWORD PTR [rbp-0x30],rax
    71ee:	48 8b 55 e8          	mov    rdx,QWORD PTR [rbp-0x18]
    71f2:	48 8b 7d e0          	mov    rdi,QWORD PTR [rbp-0x20]
    71f6:	48 8b 75 d0          	mov    rsi,QWORD PTR [rbp-0x30]
    71fa:	e8 11 00 00 00       	call   7210 <_ZSt13__copy_move_aILb0EN9__gnu_cxx17__normal_iteratorIPcNSt7__cxx1112basic_stringIcSt11char_traitsIcESaIcEEEEES2_ET1_T0_SB_SA_>
    71ff:	48 83 c4 40          	add    rsp,0x40
    7203:	5d                   	pop    rbp
    7204:	c3                   	ret
    7205:	66 2e 0f 1f 84 00 00 	cs nop WORD PTR [rax+rax*1+0x0]
    720c:	00 00 00 
    720f:	90                   	nop

0000000000007210 <_ZSt13__copy_move_aILb0EN9__gnu_cxx17__normal_iteratorIPcNSt7__cxx1112basic_stringIcSt11char_traitsIcESaIcEEEEES2_ET1_T0_SB_SA_>:
    7210:	55                   	push   rbp
    7211:	48 89 e5             	mov    rbp,rsp
    7214:	48 83 ec 40          	sub    rsp,0x40
    7218:	48 89 7d f8          	mov    QWORD PTR [rbp-0x8],rdi
    721c:	48 89 75 f0          	mov    QWORD PTR [rbp-0x10],rsi
    7220:	48 89 55 e8          	mov    QWORD PTR [rbp-0x18],rdx
    7224:	48 8b 45 f8          	mov    rax,QWORD PTR [rbp-0x8]
    7228:	48 89 45 e0          	mov    QWORD PTR [rbp-0x20],rax
    722c:	48 8b 7d e0          	mov    rdi,QWORD PTR [rbp-0x20]
    7230:	e8 6b 00 00 00       	call   72a0 <_ZSt12__niter_baseIPcNSt7__cxx1112basic_stringIcSt11char_traitsIcESaIcEEEET_N9__gnu_cxx17__normal_iteratorIS7_T0_EE>
    7235:	48 89 45 c8          	mov    QWORD PTR [rbp-0x38],rax
    7239:	48 8b 45 f0          	mov    rax,QWORD PTR [rbp-0x10]
    723d:	48 89 45 d8          	mov    QWORD PTR [rbp-0x28],rax
    7241:	48 8b 7d d8          	mov    rdi,QWORD PTR [rbp-0x28]
    7245:	e8 56 00 00 00       	call   72a0 <_ZSt12__niter_baseIPcNSt7__cxx1112basic_stringIcSt11char_traitsIcESaIcEEEET_N9__gnu_cxx17__normal_iteratorIS7_T0_EE>
    724a:	48 89 45 d0          	mov    QWORD PTR [rbp-0x30],rax
    724e:	48 8b 7d e8          	mov    rdi,QWORD PTR [rbp-0x18]
    7252:	e8 d9 cc ff ff       	call   3f30 <_ZSt12__niter_baseIPcET_S1_>
    7257:	48 8b 7d c8          	mov    rdi,QWORD PTR [rbp-0x38]
    725b:	48 8b 75 d0          	mov    rsi,QWORD PTR [rbp-0x30]
    725f:	48 89 c2             	mov    rdx,rax
    7262:	e8 19 d9 ff ff       	call   4b80 <_ZSt14__copy_move_a1ILb0EPcS0_ET1_T0_S2_S1_>
    7267:	48 89 c6             	mov    rsi,rax
    726a:	48 8d 7d e8          	lea    rdi,[rbp-0x18]
    726e:	e8 4d cc ff ff       	call   3ec0 <_ZSt12__niter_wrapIPcET_RKS1_S1_>
    7273:	48 83 c4 40          	add    rsp,0x40
    7277:	5d                   	pop    rbp
    7278:	c3                   	ret
    7279:	0f 1f 80 00 00 00 00 	nop    DWORD PTR [rax+0x0]

0000000000007280 <_ZSt12__miter_baseIN9__gnu_cxx17__normal_iteratorIPcNSt7__cxx1112basic_stringIcSt11char_traitsIcESaIcEEEEEET_SA_>:
    7280:	55                   	push   rbp
    7281:	48 89 e5             	mov    rbp,rsp
    7284:	48 89 7d f0          	mov    QWORD PTR [rbp-0x10],rdi
    7288:	48 8b 45 f0          	mov    rax,QWORD PTR [rbp-0x10]
    728c:	48 89 45 f8          	mov    QWORD PTR [rbp-0x8],rax
    7290:	48 8b 45 f8          	mov    rax,QWORD PTR [rbp-0x8]
    7294:	5d                   	pop    rbp
    7295:	c3                   	ret
    7296:	66 2e 0f 1f 84 00 00 	cs nop WORD PTR [rax+rax*1+0x0]
    729d:	00 00 00 

00000000000072a0 <_ZSt12__niter_baseIPcNSt7__cxx1112basic_stringIcSt11char_traitsIcESaIcEEEET_N9__gnu_cxx17__normal_iteratorIS7_T0_EE>:
    72a0:	55                   	push   rbp
    72a1:	48 89 e5             	mov    rbp,rsp
    72a4:	48 83 ec 10          	sub    rsp,0x10
    72a8:	48 89 7d f8          	mov    QWORD PTR [rbp-0x8],rdi
    72ac:	48 8d 7d f8          	lea    rdi,[rbp-0x8]
    72b0:	e8 5b fe ff ff       	call   7110 <_ZNK9__gnu_cxx17__normal_iteratorIPcNSt7__cxx1112basic_stringIcSt11char_traitsIcESaIcEEEE4baseEv>
    72b5:	48 8b 00             	mov    rax,QWORD PTR [rax]
    72b8:	48 83 c4 10          	add    rsp,0x10
    72bc:	5d                   	pop    rbp
    72bd:	c3                   	ret

00000000000072c0 <_fini>:
    72c0:	f3 0f 1e fa          	endbr64
    72c4:	48 83 ec 08          	sub    rsp,0x8
    72c8:	48 83 c4 08          	add    rsp,0x8
    72cc:	c3                   	ret
